SF:/home/marra/projects/timekeeper/backend/src/bin/token_cleanup.rs
FN:8,_RNCNvCsfVpm1iUjF49_13token_cleanup4main0B3_
FN:8,_RNvCsfVpm1iUjF49_13token_cleanup4main
FN:8,_RNCNvCs5jUv7vJ8Cqs_13token_cleanup4main0B3_
FN:8,_RNvCs5jUv7vJ8Cqs_13token_cleanup4main
FNDA:1,_RNCNvCsfVpm1iUjF49_13token_cleanup4main0B3_
FNDA:1,_RNvCsfVpm1iUjF49_13token_cleanup4main
FNDA:0,_RNCNvCs5jUv7vJ8Cqs_13token_cleanup4main0B3_
FNDA:0,_RNvCs5jUv7vJ8Cqs_13token_cleanup4main
FNF:2
FNH:2
DA:8,1
DA:9,1
DA:10,1
DA:12,1
DA:13,1
DA:14,1
DA:16,1
DA:17,1
DA:18,1
DA:19,1
DA:20,1
DA:21,0
DA:23,1
DA:24,1
DA:25,1
DA:26,1
DA:28,1
DA:29,1
DA:30,1
DA:31,1
DA:33,1
DA:34,1
DA:35,1
DA:37,1
DA:38,1
DA:39,0
DA:41,1
DA:42,1
DA:43,1
DA:44,1
DA:46,2
DA:47,1
BRF:0
BRH:0
LF:34
LH:32
end_of_record
SF:/home/marra/projects/timekeeper/backend/src/config.rs
FN:68,_RNvMNtCs2oPl7zguF9n_18timekeeper_backend6configNtB2_23AuditLogRetentionPolicy14cleanup_cutoff
FN:61,_RNvMNtCs2oPl7zguF9n_18timekeeper_backend6configNtB2_23AuditLogRetentionPolicy14retention_days
FN:57,_RNvMNtCs2oPl7zguF9n_18timekeeper_backend6configNtB2_23AuditLogRetentionPolicy20is_recording_enabled
FN:280,_RNvMs_NtCs2oPl7zguF9n_18timekeeper_backend6configNtB4_6Config26audit_log_retention_policy
FN:290,_RNvMs_NtCs2oPl7zguF9n_18timekeeper_backend6configNtB4_6Config28consent_log_retention_policy
FN:75,_RNvMs_NtCs2oPl7zguF9n_18timekeeper_backend6configNtB4_6Config4load
FN:301,_RNvNtCs2oPl7zguF9n_18timekeeper_backend6config15parse_same_site
FN:70,_RNCNvMNtCs2oPl7zguF9n_18timekeeper_backend6configNtB4_23AuditLogRetentionPolicy14cleanup_cutoff0B6_
FN:78,_RNCNvMs_NtCs2oPl7zguF9n_18timekeeper_backend6configNtB6_6Config4load0B8_
FN:94,_RNCNvMs_NtCs2oPl7zguF9n_18timekeeper_backend6configNtB6_6Config4loads0_0B8_
FN:99,_RNCNvMs_NtCs2oPl7zguF9n_18timekeeper_backend6configNtB6_6Config4loads1_0B8_
FN:104,_RNCNvMs_NtCs2oPl7zguF9n_18timekeeper_backend6configNtB6_6Config4loads2_0B8_
FN:109,_RNCNvMs_NtCs2oPl7zguF9n_18timekeeper_backend6configNtB6_6Config4loads3_0B8_
FN:115,_RNCNvMs_NtCs2oPl7zguF9n_18timekeeper_backend6configNtB6_6Config4loads4_0B8_
FN:120,_RNCNvMs_NtCs2oPl7zguF9n_18timekeeper_backend6configNtB6_6Config4loads5_0B8_
FN:126,_RNCNvMs_NtCs2oPl7zguF9n_18timekeeper_backend6configNtB6_6Config4loads6_0B8_
FN:130,_RNCNvMs_NtCs2oPl7zguF9n_18timekeeper_backend6configNtB6_6Config4loads7_0B8_
FN:134,_RNCNvMs_NtCs2oPl7zguF9n_18timekeeper_backend6configNtB6_6Config4loads8_0B8_
FN:139,_RNCNvMs_NtCs2oPl7zguF9n_18timekeeper_backend6configNtB6_6Config4loads9_0B8_
FN:85,_RNCNvMs_NtCs2oPl7zguF9n_18timekeeper_backend6configNtB6_6Config4loads_0B8_
FN:144,_RNCNvMs_NtCs2oPl7zguF9n_18timekeeper_backend6configNtB6_6Config4loadsa_0B8_
FN:147,_RNCNvMs_NtCs2oPl7zguF9n_18timekeeper_backend6configNtB6_6Config4loadsb_0B8_
FN:149,_RNCNvMs_NtCs2oPl7zguF9n_18timekeeper_backend6configNtB6_6Config4loadsc_0B8_
FN:150,_RNCNvMs_NtCs2oPl7zguF9n_18timekeeper_backend6configNtB6_6Config4loadsd_0B8_
FN:153,_RNCNvMs_NtCs2oPl7zguF9n_18timekeeper_backend6configNtB6_6Config4loadse_0B8_
FN:156,_RNCNvMs_NtCs2oPl7zguF9n_18timekeeper_backend6configNtB6_6Config4loadsf_0B8_
FN:158,_RNCNvMs_NtCs2oPl7zguF9n_18timekeeper_backend6configNtB6_6Config4loadsg_0B8_
FN:161,_RNCNvMs_NtCs2oPl7zguF9n_18timekeeper_backend6configNtB6_6Config4loadsh_0B8_
FN:166,_RNCNvMs_NtCs2oPl7zguF9n_18timekeeper_backend6configNtB6_6Config4loadsi_0B8_
FN:171,_RNCNvMs_NtCs2oPl7zguF9n_18timekeeper_backend6configNtB6_6Config4loadsj_0B8_
FN:176,_RNCNvMs_NtCs2oPl7zguF9n_18timekeeper_backend6configNtB6_6Config4loadsk_0B8_
FN:182,_RNCNvMs_NtCs2oPl7zguF9n_18timekeeper_backend6configNtB6_6Config4loadsl_0B8_
FN:186,_RNCNvMs_NtCs2oPl7zguF9n_18timekeeper_backend6configNtB6_6Config4loadsm_0B8_
FN:191,_RNCNvMs_NtCs2oPl7zguF9n_18timekeeper_backend6configNtB6_6Config4loadsn_0B8_
FN:196,_RNCNvMs_NtCs2oPl7zguF9n_18timekeeper_backend6configNtB6_6Config4loadso_0B8_
FN:201,_RNCNvMs_NtCs2oPl7zguF9n_18timekeeper_backend6configNtB6_6Config4loadsp_0B8_
FN:206,_RNCNvMs_NtCs2oPl7zguF9n_18timekeeper_backend6configNtB6_6Config4loadsq_0B8_
FN:211,_RNCNvMs_NtCs2oPl7zguF9n_18timekeeper_backend6configNtB6_6Config4loadsr_0B8_
FN:216,_RNCNvMs_NtCs2oPl7zguF9n_18timekeeper_backend6configNtB6_6Config4loadss_0B8_
FN:221,_RNCNvMs_NtCs2oPl7zguF9n_18timekeeper_backend6configNtB6_6Config4loadst_0B8_
FN:226,_RNCNvMs_NtCs2oPl7zguF9n_18timekeeper_backend6configNtB6_6Config4loadsu_0B8_
FN:231,_RNCNvMs_NtCs2oPl7zguF9n_18timekeeper_backend6configNtB6_6Config4loadsv_0B8_
FN:236,_RNCNvMs_NtCs2oPl7zguF9n_18timekeeper_backend6configNtB6_6Config4loadsw_0B8_
FN:70,_RNCNvMNtCsjEFxG0ag9NF_18timekeeper_backend6configNtB4_23AuditLogRetentionPolicy14cleanup_cutoff0B6_
FN:68,_RNvMNtCsjEFxG0ag9NF_18timekeeper_backend6configNtB2_23AuditLogRetentionPolicy14cleanup_cutoff
FN:290,_RNvMs_NtCsjEFxG0ag9NF_18timekeeper_backend6configNtB4_6Config28consent_log_retention_policy
FN:61,_RNvMNtCsjEFxG0ag9NF_18timekeeper_backend6configNtB2_23AuditLogRetentionPolicy14retention_days
FN:57,_RNvMNtCsjEFxG0ag9NF_18timekeeper_backend6configNtB2_23AuditLogRetentionPolicy20is_recording_enabled
FN:280,_RNvMs_NtCsjEFxG0ag9NF_18timekeeper_backend6configNtB4_6Config26audit_log_retention_policy
FN:75,_RNvMs_NtCsjEFxG0ag9NF_18timekeeper_backend6configNtB4_6Config4load
FN:301,_RNvNtCsjEFxG0ag9NF_18timekeeper_backend6config15parse_same_site
FN:342,_RNvNtNtCsjEFxG0ag9NF_18timekeeper_backend6config5tests11base_config
FN:328,_RNvNtNtCsjEFxG0ag9NF_18timekeeper_backend6config5tests11restore_env
FN:324,_RNvNtNtCsjEFxG0ag9NF_18timekeeper_backend6config5tests12snapshot_env
FN:337,_RNvNtNtCsjEFxG0ag9NF_18timekeeper_backend6config5tests20set_optional_aws_env
FN:316,_RNvNtNtCsjEFxG0ag9NF_18timekeeper_backend6config5tests9env_guard
FN:421,_RNvNtNtCsjEFxG0ag9NF_18timekeeper_backend6config5testss_25config_loads_aws_defaults
FN:450,_RNvNtNtCsjEFxG0ag9NF_18timekeeper_backend6config5testss_33config_aws_kms_key_id_is_optional
FN:508,_RNvNtNtCsjEFxG0ag9NF_18timekeeper_backend6config5testss_39audit_log_retention_policy_returns_days
FN:467,_RNvNtNtCsjEFxG0ag9NF_18timekeeper_backend6config5testss_39config_aws_audit_log_bucket_is_optional
FN:384,_RNvNtNtCsjEFxG0ag9NF_18timekeeper_backend6config5testss_41config_loads_audit_log_retention_defaults
FN:484,_RNvNtNtCsjEFxG0ag9NF_18timekeeper_backend6config5testss_46audit_log_retention_policy_prioritizes_forever
FN:496,_RNvNtNtCsjEFxG0ag9NF_18timekeeper_backend6config5testss_50audit_log_retention_policy_disables_when_days_zero
FN:325,_RNCNvNtNtCsjEFxG0ag9NF_18timekeeper_backend6config5tests12snapshot_env0B7_
FN:319,_RNCNvNtNtCsjEFxG0ag9NF_18timekeeper_backend6config5tests9env_guard0B7_
FN:78,_RNCNvMs_NtCsjEFxG0ag9NF_18timekeeper_backend6configNtB6_6Config4load0B8_
FN:94,_RNCNvMs_NtCsjEFxG0ag9NF_18timekeeper_backend6configNtB6_6Config4loads0_0B8_
FN:99,_RNCNvMs_NtCsjEFxG0ag9NF_18timekeeper_backend6configNtB6_6Config4loads1_0B8_
FN:104,_RNCNvMs_NtCsjEFxG0ag9NF_18timekeeper_backend6configNtB6_6Config4loads2_0B8_
FN:109,_RNCNvMs_NtCsjEFxG0ag9NF_18timekeeper_backend6configNtB6_6Config4loads3_0B8_
FN:115,_RNCNvMs_NtCsjEFxG0ag9NF_18timekeeper_backend6configNtB6_6Config4loads4_0B8_
FN:120,_RNCNvMs_NtCsjEFxG0ag9NF_18timekeeper_backend6configNtB6_6Config4loads5_0B8_
FN:126,_RNCNvMs_NtCsjEFxG0ag9NF_18timekeeper_backend6configNtB6_6Config4loads6_0B8_
FN:130,_RNCNvMs_NtCsjEFxG0ag9NF_18timekeeper_backend6configNtB6_6Config4loads7_0B8_
FN:134,_RNCNvMs_NtCsjEFxG0ag9NF_18timekeeper_backend6configNtB6_6Config4loads8_0B8_
FN:139,_RNCNvMs_NtCsjEFxG0ag9NF_18timekeeper_backend6configNtB6_6Config4loads9_0B8_
FN:85,_RNCNvMs_NtCsjEFxG0ag9NF_18timekeeper_backend6configNtB6_6Config4loads_0B8_
FN:144,_RNCNvMs_NtCsjEFxG0ag9NF_18timekeeper_backend6configNtB6_6Config4loadsa_0B8_
FN:147,_RNCNvMs_NtCsjEFxG0ag9NF_18timekeeper_backend6configNtB6_6Config4loadsb_0B8_
FN:149,_RNCNvMs_NtCsjEFxG0ag9NF_18timekeeper_backend6configNtB6_6Config4loadsc_0B8_
FN:150,_RNCNvMs_NtCsjEFxG0ag9NF_18timekeeper_backend6configNtB6_6Config4loadsd_0B8_
FN:153,_RNCNvMs_NtCsjEFxG0ag9NF_18timekeeper_backend6configNtB6_6Config4loadse_0B8_
FN:156,_RNCNvMs_NtCsjEFxG0ag9NF_18timekeeper_backend6configNtB6_6Config4loadsf_0B8_
FN:158,_RNCNvMs_NtCsjEFxG0ag9NF_18timekeeper_backend6configNtB6_6Config4loadsg_0B8_
FN:161,_RNCNvMs_NtCsjEFxG0ag9NF_18timekeeper_backend6configNtB6_6Config4loadsh_0B8_
FN:166,_RNCNvMs_NtCsjEFxG0ag9NF_18timekeeper_backend6configNtB6_6Config4loadsi_0B8_
FN:171,_RNCNvMs_NtCsjEFxG0ag9NF_18timekeeper_backend6configNtB6_6Config4loadsj_0B8_
FN:176,_RNCNvMs_NtCsjEFxG0ag9NF_18timekeeper_backend6configNtB6_6Config4loadsk_0B8_
FN:182,_RNCNvMs_NtCsjEFxG0ag9NF_18timekeeper_backend6configNtB6_6Config4loadsl_0B8_
FN:186,_RNCNvMs_NtCsjEFxG0ag9NF_18timekeeper_backend6configNtB6_6Config4loadsm_0B8_
FN:191,_RNCNvMs_NtCsjEFxG0ag9NF_18timekeeper_backend6configNtB6_6Config4loadsn_0B8_
FN:196,_RNCNvMs_NtCsjEFxG0ag9NF_18timekeeper_backend6configNtB6_6Config4loadso_0B8_
FN:201,_RNCNvMs_NtCsjEFxG0ag9NF_18timekeeper_backend6configNtB6_6Config4loadsp_0B8_
FN:206,_RNCNvMs_NtCsjEFxG0ag9NF_18timekeeper_backend6configNtB6_6Config4loadsq_0B8_
FN:211,_RNCNvMs_NtCsjEFxG0ag9NF_18timekeeper_backend6configNtB6_6Config4loadsr_0B8_
FN:216,_RNCNvMs_NtCsjEFxG0ag9NF_18timekeeper_backend6configNtB6_6Config4loadss_0B8_
FN:221,_RNCNvMs_NtCsjEFxG0ag9NF_18timekeeper_backend6configNtB6_6Config4loadst_0B8_
FN:226,_RNCNvMs_NtCsjEFxG0ag9NF_18timekeeper_backend6configNtB6_6Config4loadsu_0B8_
FN:231,_RNCNvMs_NtCsjEFxG0ag9NF_18timekeeper_backend6configNtB6_6Config4loadsv_0B8_
FN:236,_RNCNvMs_NtCsjEFxG0ag9NF_18timekeeper_backend6configNtB6_6Config4loadsw_0B8_
FN:68,_RNvMNtCsiqn6J3Zmf7c_18timekeeper_backend6configNtB2_23AuditLogRetentionPolicy14cleanup_cutoff
FN:61,_RNvMNtCsiqn6J3Zmf7c_18timekeeper_backend6configNtB2_23AuditLogRetentionPolicy14retention_days
FN:57,_RNvMNtCsiqn6J3Zmf7c_18timekeeper_backend6configNtB2_23AuditLogRetentionPolicy20is_recording_enabled
FN:280,_RNvMs_NtCsiqn6J3Zmf7c_18timekeeper_backend6configNtB4_6Config26audit_log_retention_policy
FN:290,_RNvMs_NtCsiqn6J3Zmf7c_18timekeeper_backend6configNtB4_6Config28consent_log_retention_policy
FN:75,_RNvMs_NtCsiqn6J3Zmf7c_18timekeeper_backend6configNtB4_6Config4load
FN:301,_RNvNtCsiqn6J3Zmf7c_18timekeeper_backend6config15parse_same_site
FN:70,_RNCNvMNtCsiqn6J3Zmf7c_18timekeeper_backend6configNtB4_23AuditLogRetentionPolicy14cleanup_cutoff0B6_
FN:78,_RNCNvMs_NtCsiqn6J3Zmf7c_18timekeeper_backend6configNtB6_6Config4load0B8_
FN:94,_RNCNvMs_NtCsiqn6J3Zmf7c_18timekeeper_backend6configNtB6_6Config4loads0_0B8_
FN:99,_RNCNvMs_NtCsiqn6J3Zmf7c_18timekeeper_backend6configNtB6_6Config4loads1_0B8_
FN:104,_RNCNvMs_NtCsiqn6J3Zmf7c_18timekeeper_backend6configNtB6_6Config4loads2_0B8_
FN:109,_RNCNvMs_NtCsiqn6J3Zmf7c_18timekeeper_backend6configNtB6_6Config4loads3_0B8_
FN:115,_RNCNvMs_NtCsiqn6J3Zmf7c_18timekeeper_backend6configNtB6_6Config4loads4_0B8_
FN:120,_RNCNvMs_NtCsiqn6J3Zmf7c_18timekeeper_backend6configNtB6_6Config4loads5_0B8_
FN:126,_RNCNvMs_NtCsiqn6J3Zmf7c_18timekeeper_backend6configNtB6_6Config4loads6_0B8_
FN:130,_RNCNvMs_NtCsiqn6J3Zmf7c_18timekeeper_backend6configNtB6_6Config4loads7_0B8_
FN:134,_RNCNvMs_NtCsiqn6J3Zmf7c_18timekeeper_backend6configNtB6_6Config4loads8_0B8_
FN:139,_RNCNvMs_NtCsiqn6J3Zmf7c_18timekeeper_backend6configNtB6_6Config4loads9_0B8_
FN:85,_RNCNvMs_NtCsiqn6J3Zmf7c_18timekeeper_backend6configNtB6_6Config4loads_0B8_
FN:144,_RNCNvMs_NtCsiqn6J3Zmf7c_18timekeeper_backend6configNtB6_6Config4loadsa_0B8_
FN:147,_RNCNvMs_NtCsiqn6J3Zmf7c_18timekeeper_backend6configNtB6_6Config4loadsb_0B8_
FN:149,_RNCNvMs_NtCsiqn6J3Zmf7c_18timekeeper_backend6configNtB6_6Config4loadsc_0B8_
FN:150,_RNCNvMs_NtCsiqn6J3Zmf7c_18timekeeper_backend6configNtB6_6Config4loadsd_0B8_
FN:153,_RNCNvMs_NtCsiqn6J3Zmf7c_18timekeeper_backend6configNtB6_6Config4loadse_0B8_
FN:156,_RNCNvMs_NtCsiqn6J3Zmf7c_18timekeeper_backend6configNtB6_6Config4loadsf_0B8_
FN:158,_RNCNvMs_NtCsiqn6J3Zmf7c_18timekeeper_backend6configNtB6_6Config4loadsg_0B8_
FN:161,_RNCNvMs_NtCsiqn6J3Zmf7c_18timekeeper_backend6configNtB6_6Config4loadsh_0B8_
FN:166,_RNCNvMs_NtCsiqn6J3Zmf7c_18timekeeper_backend6configNtB6_6Config4loadsi_0B8_
FN:171,_RNCNvMs_NtCsiqn6J3Zmf7c_18timekeeper_backend6configNtB6_6Config4loadsj_0B8_
FN:176,_RNCNvMs_NtCsiqn6J3Zmf7c_18timekeeper_backend6configNtB6_6Config4loadsk_0B8_
FN:182,_RNCNvMs_NtCsiqn6J3Zmf7c_18timekeeper_backend6configNtB6_6Config4loadsl_0B8_
FN:186,_RNCNvMs_NtCsiqn6J3Zmf7c_18timekeeper_backend6configNtB6_6Config4loadsm_0B8_
FN:191,_RNCNvMs_NtCsiqn6J3Zmf7c_18timekeeper_backend6configNtB6_6Config4loadsn_0B8_
FN:196,_RNCNvMs_NtCsiqn6J3Zmf7c_18timekeeper_backend6configNtB6_6Config4loadso_0B8_
FN:201,_RNCNvMs_NtCsiqn6J3Zmf7c_18timekeeper_backend6configNtB6_6Config4loadsp_0B8_
FN:206,_RNCNvMs_NtCsiqn6J3Zmf7c_18timekeeper_backend6configNtB6_6Config4loadsq_0B8_
FN:211,_RNCNvMs_NtCsiqn6J3Zmf7c_18timekeeper_backend6configNtB6_6Config4loadsr_0B8_
FN:216,_RNCNvMs_NtCsiqn6J3Zmf7c_18timekeeper_backend6configNtB6_6Config4loadss_0B8_
FN:221,_RNCNvMs_NtCsiqn6J3Zmf7c_18timekeeper_backend6configNtB6_6Config4loadst_0B8_
FN:226,_RNCNvMs_NtCsiqn6J3Zmf7c_18timekeeper_backend6configNtB6_6Config4loadsu_0B8_
FN:231,_RNCNvMs_NtCsiqn6J3Zmf7c_18timekeeper_backend6configNtB6_6Config4loadsv_0B8_
FN:236,_RNCNvMs_NtCsiqn6J3Zmf7c_18timekeeper_backend6configNtB6_6Config4loadsw_0B8_
FN:70,_RNCNvMNtCs86yVScfUyun_18timekeeper_backend6configNtB4_23AuditLogRetentionPolicy14cleanup_cutoff0B6_
FN:68,_RNvMNtCs86yVScfUyun_18timekeeper_backend6configNtB2_23AuditLogRetentionPolicy14cleanup_cutoff
FN:290,_RNvMs_NtCs86yVScfUyun_18timekeeper_backend6configNtB4_6Config28consent_log_retention_policy
FN:78,_RNCNvMs_NtCs86yVScfUyun_18timekeeper_backend6configNtB6_6Config4load0B8_
FN:94,_RNCNvMs_NtCs86yVScfUyun_18timekeeper_backend6configNtB6_6Config4loads0_0B8_
FN:99,_RNCNvMs_NtCs86yVScfUyun_18timekeeper_backend6configNtB6_6Config4loads1_0B8_
FN:104,_RNCNvMs_NtCs86yVScfUyun_18timekeeper_backend6configNtB6_6Config4loads2_0B8_
FN:109,_RNCNvMs_NtCs86yVScfUyun_18timekeeper_backend6configNtB6_6Config4loads3_0B8_
FN:115,_RNCNvMs_NtCs86yVScfUyun_18timekeeper_backend6configNtB6_6Config4loads4_0B8_
FN:120,_RNCNvMs_NtCs86yVScfUyun_18timekeeper_backend6configNtB6_6Config4loads5_0B8_
FN:126,_RNCNvMs_NtCs86yVScfUyun_18timekeeper_backend6configNtB6_6Config4loads6_0B8_
FN:130,_RNCNvMs_NtCs86yVScfUyun_18timekeeper_backend6configNtB6_6Config4loads7_0B8_
FN:134,_RNCNvMs_NtCs86yVScfUyun_18timekeeper_backend6configNtB6_6Config4loads8_0B8_
FN:139,_RNCNvMs_NtCs86yVScfUyun_18timekeeper_backend6configNtB6_6Config4loads9_0B8_
FN:85,_RNCNvMs_NtCs86yVScfUyun_18timekeeper_backend6configNtB6_6Config4loads_0B8_
FN:144,_RNCNvMs_NtCs86yVScfUyun_18timekeeper_backend6configNtB6_6Config4loadsa_0B8_
FN:147,_RNCNvMs_NtCs86yVScfUyun_18timekeeper_backend6configNtB6_6Config4loadsb_0B8_
FN:149,_RNCNvMs_NtCs86yVScfUyun_18timekeeper_backend6configNtB6_6Config4loadsc_0B8_
FN:150,_RNCNvMs_NtCs86yVScfUyun_18timekeeper_backend6configNtB6_6Config4loadsd_0B8_
FN:153,_RNCNvMs_NtCs86yVScfUyun_18timekeeper_backend6configNtB6_6Config4loadse_0B8_
FN:156,_RNCNvMs_NtCs86yVScfUyun_18timekeeper_backend6configNtB6_6Config4loadsf_0B8_
FN:158,_RNCNvMs_NtCs86yVScfUyun_18timekeeper_backend6configNtB6_6Config4loadsg_0B8_
FN:161,_RNCNvMs_NtCs86yVScfUyun_18timekeeper_backend6configNtB6_6Config4loadsh_0B8_
FN:166,_RNCNvMs_NtCs86yVScfUyun_18timekeeper_backend6configNtB6_6Config4loadsi_0B8_
FN:171,_RNCNvMs_NtCs86yVScfUyun_18timekeeper_backend6configNtB6_6Config4loadsj_0B8_
FN:176,_RNCNvMs_NtCs86yVScfUyun_18timekeeper_backend6configNtB6_6Config4loadsk_0B8_
FN:182,_RNCNvMs_NtCs86yVScfUyun_18timekeeper_backend6configNtB6_6Config4loadsl_0B8_
FN:186,_RNCNvMs_NtCs86yVScfUyun_18timekeeper_backend6configNtB6_6Config4loadsm_0B8_
FN:191,_RNCNvMs_NtCs86yVScfUyun_18timekeeper_backend6configNtB6_6Config4loadsn_0B8_
FN:196,_RNCNvMs_NtCs86yVScfUyun_18timekeeper_backend6configNtB6_6Config4loadso_0B8_
FN:201,_RNCNvMs_NtCs86yVScfUyun_18timekeeper_backend6configNtB6_6Config4loadsp_0B8_
FN:206,_RNCNvMs_NtCs86yVScfUyun_18timekeeper_backend6configNtB6_6Config4loadsq_0B8_
FN:211,_RNCNvMs_NtCs86yVScfUyun_18timekeeper_backend6configNtB6_6Config4loadsr_0B8_
FN:216,_RNCNvMs_NtCs86yVScfUyun_18timekeeper_backend6configNtB6_6Config4loadss_0B8_
FN:221,_RNCNvMs_NtCs86yVScfUyun_18timekeeper_backend6configNtB6_6Config4loadst_0B8_
FN:226,_RNCNvMs_NtCs86yVScfUyun_18timekeeper_backend6configNtB6_6Config4loadsu_0B8_
FN:231,_RNCNvMs_NtCs86yVScfUyun_18timekeeper_backend6configNtB6_6Config4loadsv_0B8_
FN:236,_RNCNvMs_NtCs86yVScfUyun_18timekeeper_backend6configNtB6_6Config4loadsw_0B8_
FN:325,_RNCNvNtNtCs86yVScfUyun_18timekeeper_backend6config5tests12snapshot_env0B7_
FN:319,_RNCNvNtNtCs86yVScfUyun_18timekeeper_backend6config5tests9env_guard0B7_
FN:61,_RNvMNtCs86yVScfUyun_18timekeeper_backend6configNtB2_23AuditLogRetentionPolicy14retention_days
FN:57,_RNvMNtCs86yVScfUyun_18timekeeper_backend6configNtB2_23AuditLogRetentionPolicy20is_recording_enabled
FN:280,_RNvMs_NtCs86yVScfUyun_18timekeeper_backend6configNtB4_6Config26audit_log_retention_policy
FN:75,_RNvMs_NtCs86yVScfUyun_18timekeeper_backend6configNtB4_6Config4load
FN:301,_RNvNtCs86yVScfUyun_18timekeeper_backend6config15parse_same_site
FN:342,_RNvNtNtCs86yVScfUyun_18timekeeper_backend6config5tests11base_config
FN:328,_RNvNtNtCs86yVScfUyun_18timekeeper_backend6config5tests11restore_env
FN:324,_RNvNtNtCs86yVScfUyun_18timekeeper_backend6config5tests12snapshot_env
FN:337,_RNvNtNtCs86yVScfUyun_18timekeeper_backend6config5tests20set_optional_aws_env
FN:316,_RNvNtNtCs86yVScfUyun_18timekeeper_backend6config5tests9env_guard
FN:421,_RNvNtNtCs86yVScfUyun_18timekeeper_backend6config5testss_25config_loads_aws_defaults
FN:450,_RNvNtNtCs86yVScfUyun_18timekeeper_backend6config5testss_33config_aws_kms_key_id_is_optional
FN:508,_RNvNtNtCs86yVScfUyun_18timekeeper_backend6config5testss_39audit_log_retention_policy_returns_days
FN:467,_RNvNtNtCs86yVScfUyun_18timekeeper_backend6config5testss_39config_aws_audit_log_bucket_is_optional
FN:384,_RNvNtNtCs86yVScfUyun_18timekeeper_backend6config5testss_41config_loads_audit_log_retention_defaults
FN:484,_RNvNtNtCs86yVScfUyun_18timekeeper_backend6config5testss_46audit_log_retention_policy_prioritizes_forever
FN:496,_RNvNtNtCs86yVScfUyun_18timekeeper_backend6config5testss_50audit_log_retention_policy_disables_when_days_zero
FNDA:0,_RNvMNtCs2oPl7zguF9n_18timekeeper_backend6configNtB2_23AuditLogRetentionPolicy14cleanup_cutoff
FNDA:0,_RNvMNtCs2oPl7zguF9n_18timekeeper_backend6configNtB2_23AuditLogRetentionPolicy14retention_days
FNDA:10,_RNvMNtCs2oPl7zguF9n_18timekeeper_backend6configNtB2_23AuditLogRetentionPolicy20is_recording_enabled
FNDA:10,_RNvMs_NtCs2oPl7zguF9n_18timekeeper_backend6configNtB4_6Config26audit_log_retention_policy
FNDA:0,_RNvMs_NtCs2oPl7zguF9n_18timekeeper_backend6configNtB4_6Config28consent_log_retention_policy
FNDA:1,_RNvMs_NtCs2oPl7zguF9n_18timekeeper_backend6configNtB4_6Config4load
FNDA:1,_RNvNtCs2oPl7zguF9n_18timekeeper_backend6config15parse_same_site
FNDA:0,_RNCNvMNtCs2oPl7zguF9n_18timekeeper_backend6configNtB4_23AuditLogRetentionPolicy14cleanup_cutoff0B6_
FNDA:0,_RNCNvMs_NtCs2oPl7zguF9n_18timekeeper_backend6configNtB6_6Config4load0B8_
FNDA:1,_RNCNvMs_NtCs2oPl7zguF9n_18timekeeper_backend6configNtB6_6Config4loads0_0B8_
FNDA:1,_RNCNvMs_NtCs2oPl7zguF9n_18timekeeper_backend6configNtB6_6Config4loads1_0B8_
FNDA:1,_RNCNvMs_NtCs2oPl7zguF9n_18timekeeper_backend6configNtB6_6Config4loads2_0B8_
FNDA:1,_RNCNvMs_NtCs2oPl7zguF9n_18timekeeper_backend6configNtB6_6Config4loads3_0B8_
FNDA:1,_RNCNvMs_NtCs2oPl7zguF9n_18timekeeper_backend6configNtB6_6Config4loads4_0B8_
FNDA:1,_RNCNvMs_NtCs2oPl7zguF9n_18timekeeper_backend6configNtB6_6Config4loads5_0B8_
FNDA:1,_RNCNvMs_NtCs2oPl7zguF9n_18timekeeper_backend6configNtB6_6Config4loads6_0B8_
FNDA:1,_RNCNvMs_NtCs2oPl7zguF9n_18timekeeper_backend6configNtB6_6Config4loads7_0B8_
FNDA:1,_RNCNvMs_NtCs2oPl7zguF9n_18timekeeper_backend6configNtB6_6Config4loads8_0B8_
FNDA:1,_RNCNvMs_NtCs2oPl7zguF9n_18timekeeper_backend6configNtB6_6Config4loads9_0B8_
FNDA:0,_RNCNvMs_NtCs2oPl7zguF9n_18timekeeper_backend6configNtB6_6Config4loads_0B8_
FNDA:1,_RNCNvMs_NtCs2oPl7zguF9n_18timekeeper_backend6configNtB6_6Config4loadsa_0B8_
FNDA:1,_RNCNvMs_NtCs2oPl7zguF9n_18timekeeper_backend6configNtB6_6Config4loadsb_0B8_
FNDA:1,_RNCNvMs_NtCs2oPl7zguF9n_18timekeeper_backend6configNtB6_6Config4loadsc_0B8_
FNDA:1,_RNCNvMs_NtCs2oPl7zguF9n_18timekeeper_backend6configNtB6_6Config4loadsd_0B8_
FNDA:1,_RNCNvMs_NtCs2oPl7zguF9n_18timekeeper_backend6configNtB6_6Config4loadse_0B8_
FNDA:0,_RNCNvMs_NtCs2oPl7zguF9n_18timekeeper_backend6configNtB6_6Config4loadsf_0B8_
FNDA:1,_RNCNvMs_NtCs2oPl7zguF9n_18timekeeper_backend6configNtB6_6Config4loadsg_0B8_
FNDA:1,_RNCNvMs_NtCs2oPl7zguF9n_18timekeeper_backend6configNtB6_6Config4loadsh_0B8_
FNDA:1,_RNCNvMs_NtCs2oPl7zguF9n_18timekeeper_backend6configNtB6_6Config4loadsi_0B8_
FNDA:1,_RNCNvMs_NtCs2oPl7zguF9n_18timekeeper_backend6configNtB6_6Config4loadsj_0B8_
FNDA:1,_RNCNvMs_NtCs2oPl7zguF9n_18timekeeper_backend6configNtB6_6Config4loadsk_0B8_
FNDA:1,_RNCNvMs_NtCs2oPl7zguF9n_18timekeeper_backend6configNtB6_6Config4loadsl_0B8_
FNDA:1,_RNCNvMs_NtCs2oPl7zguF9n_18timekeeper_backend6configNtB6_6Config4loadsm_0B8_
FNDA:1,_RNCNvMs_NtCs2oPl7zguF9n_18timekeeper_backend6configNtB6_6Config4loadsn_0B8_
FNDA:1,_RNCNvMs_NtCs2oPl7zguF9n_18timekeeper_backend6configNtB6_6Config4loadso_0B8_
FNDA:1,_RNCNvMs_NtCs2oPl7zguF9n_18timekeeper_backend6configNtB6_6Config4loadsp_0B8_
FNDA:1,_RNCNvMs_NtCs2oPl7zguF9n_18timekeeper_backend6configNtB6_6Config4loadsq_0B8_
FNDA:1,_RNCNvMs_NtCs2oPl7zguF9n_18timekeeper_backend6configNtB6_6Config4loadsr_0B8_
FNDA:1,_RNCNvMs_NtCs2oPl7zguF9n_18timekeeper_backend6configNtB6_6Config4loadss_0B8_
FNDA:1,_RNCNvMs_NtCs2oPl7zguF9n_18timekeeper_backend6configNtB6_6Config4loadst_0B8_
FNDA:1,_RNCNvMs_NtCs2oPl7zguF9n_18timekeeper_backend6configNtB6_6Config4loadsu_0B8_
FNDA:1,_RNCNvMs_NtCs2oPl7zguF9n_18timekeeper_backend6configNtB6_6Config4loadsv_0B8_
FNDA:1,_RNCNvMs_NtCs2oPl7zguF9n_18timekeeper_backend6configNtB6_6Config4loadsw_0B8_
FNDA:0,_RNCNvMNtCsjEFxG0ag9NF_18timekeeper_backend6configNtB4_23AuditLogRetentionPolicy14cleanup_cutoff0B6_
FNDA:0,_RNvMNtCsjEFxG0ag9NF_18timekeeper_backend6configNtB2_23AuditLogRetentionPolicy14cleanup_cutoff
FNDA:0,_RNvMs_NtCsjEFxG0ag9NF_18timekeeper_backend6configNtB4_6Config28consent_log_retention_policy
FNDA:1,_RNvMNtCsjEFxG0ag9NF_18timekeeper_backend6configNtB2_23AuditLogRetentionPolicy14retention_days
FNDA:2,_RNvMNtCsjEFxG0ag9NF_18timekeeper_backend6configNtB2_23AuditLogRetentionPolicy20is_recording_enabled
FNDA:3,_RNvMs_NtCsjEFxG0ag9NF_18timekeeper_backend6configNtB4_6Config26audit_log_retention_policy
FNDA:4,_RNvMs_NtCsjEFxG0ag9NF_18timekeeper_backend6configNtB4_6Config4load
FNDA:4,_RNvNtCsjEFxG0ag9NF_18timekeeper_backend6config15parse_same_site
FNDA:3,_RNvNtNtCsjEFxG0ag9NF_18timekeeper_backend6config5tests11base_config
FNDA:4,_RNvNtNtCsjEFxG0ag9NF_18timekeeper_backend6config5tests11restore_env
FNDA:4,_RNvNtNtCsjEFxG0ag9NF_18timekeeper_backend6config5tests12snapshot_env
FNDA:2,_RNvNtNtCsjEFxG0ag9NF_18timekeeper_backend6config5tests20set_optional_aws_env
FNDA:4,_RNvNtNtCsjEFxG0ag9NF_18timekeeper_backend6config5tests9env_guard
FNDA:1,_RNvNtNtCsjEFxG0ag9NF_18timekeeper_backend6config5testss_25config_loads_aws_defaults
FNDA:1,_RNvNtNtCsjEFxG0ag9NF_18timekeeper_backend6config5testss_33config_aws_kms_key_id_is_optional
FNDA:1,_RNvNtNtCsjEFxG0ag9NF_18timekeeper_backend6config5testss_39audit_log_retention_policy_returns_days
FNDA:1,_RNvNtNtCsjEFxG0ag9NF_18timekeeper_backend6config5testss_39config_aws_audit_log_bucket_is_optional
FNDA:1,_RNvNtNtCsjEFxG0ag9NF_18timekeeper_backend6config5testss_41config_loads_audit_log_retention_defaults
FNDA:1,_RNvNtNtCsjEFxG0ag9NF_18timekeeper_backend6config5testss_46audit_log_retention_policy_prioritizes_forever
FNDA:1,_RNvNtNtCsjEFxG0ag9NF_18timekeeper_backend6config5testss_50audit_log_retention_policy_disables_when_days_zero
FNDA:22,_RNCNvNtNtCsjEFxG0ag9NF_18timekeeper_backend6config5tests12snapshot_env0B7_
FNDA:1,_RNCNvNtNtCsjEFxG0ag9NF_18timekeeper_backend6config5tests9env_guard0B7_
FNDA:0,_RNCNvMs_NtCsjEFxG0ag9NF_18timekeeper_backend6configNtB6_6Config4load0B8_
FNDA:4,_RNCNvMs_NtCsjEFxG0ag9NF_18timekeeper_backend6configNtB6_6Config4loads0_0B8_
FNDA:4,_RNCNvMs_NtCsjEFxG0ag9NF_18timekeeper_backend6configNtB6_6Config4loads1_0B8_
FNDA:4,_RNCNvMs_NtCsjEFxG0ag9NF_18timekeeper_backend6configNtB6_6Config4loads2_0B8_
FNDA:4,_RNCNvMs_NtCsjEFxG0ag9NF_18timekeeper_backend6configNtB6_6Config4loads3_0B8_
FNDA:4,_RNCNvMs_NtCsjEFxG0ag9NF_18timekeeper_backend6configNtB6_6Config4loads4_0B8_
FNDA:4,_RNCNvMs_NtCsjEFxG0ag9NF_18timekeeper_backend6configNtB6_6Config4loads5_0B8_
FNDA:4,_RNCNvMs_NtCsjEFxG0ag9NF_18timekeeper_backend6configNtB6_6Config4loads6_0B8_
FNDA:4,_RNCNvMs_NtCsjEFxG0ag9NF_18timekeeper_backend6configNtB6_6Config4loads7_0B8_
FNDA:4,_RNCNvMs_NtCsjEFxG0ag9NF_18timekeeper_backend6configNtB6_6Config4loads8_0B8_
FNDA:4,_RNCNvMs_NtCsjEFxG0ag9NF_18timekeeper_backend6configNtB6_6Config4loads9_0B8_
FNDA:0,_RNCNvMs_NtCsjEFxG0ag9NF_18timekeeper_backend6configNtB6_6Config4loads_0B8_
FNDA:4,_RNCNvMs_NtCsjEFxG0ag9NF_18timekeeper_backend6configNtB6_6Config4loadsa_0B8_
FNDA:4,_RNCNvMs_NtCsjEFxG0ag9NF_18timekeeper_backend6configNtB6_6Config4loadsb_0B8_
FNDA:4,_RNCNvMs_NtCsjEFxG0ag9NF_18timekeeper_backend6configNtB6_6Config4loadsc_0B8_
FNDA:4,_RNCNvMs_NtCsjEFxG0ag9NF_18timekeeper_backend6configNtB6_6Config4loadsd_0B8_
FNDA:4,_RNCNvMs_NtCsjEFxG0ag9NF_18timekeeper_backend6configNtB6_6Config4loadse_0B8_
FNDA:0,_RNCNvMs_NtCsjEFxG0ag9NF_18timekeeper_backend6configNtB6_6Config4loadsf_0B8_
FNDA:4,_RNCNvMs_NtCsjEFxG0ag9NF_18timekeeper_backend6configNtB6_6Config4loadsg_0B8_
FNDA:4,_RNCNvMs_NtCsjEFxG0ag9NF_18timekeeper_backend6configNtB6_6Config4loadsh_0B8_
FNDA:4,_RNCNvMs_NtCsjEFxG0ag9NF_18timekeeper_backend6configNtB6_6Config4loadsi_0B8_
FNDA:4,_RNCNvMs_NtCsjEFxG0ag9NF_18timekeeper_backend6configNtB6_6Config4loadsj_0B8_
FNDA:4,_RNCNvMs_NtCsjEFxG0ag9NF_18timekeeper_backend6configNtB6_6Config4loadsk_0B8_
FNDA:4,_RNCNvMs_NtCsjEFxG0ag9NF_18timekeeper_backend6configNtB6_6Config4loadsl_0B8_
FNDA:4,_RNCNvMs_NtCsjEFxG0ag9NF_18timekeeper_backend6configNtB6_6Config4loadsm_0B8_
FNDA:4,_RNCNvMs_NtCsjEFxG0ag9NF_18timekeeper_backend6configNtB6_6Config4loadsn_0B8_
FNDA:4,_RNCNvMs_NtCsjEFxG0ag9NF_18timekeeper_backend6configNtB6_6Config4loadso_0B8_
FNDA:4,_RNCNvMs_NtCsjEFxG0ag9NF_18timekeeper_backend6configNtB6_6Config4loadsp_0B8_
FNDA:4,_RNCNvMs_NtCsjEFxG0ag9NF_18timekeeper_backend6configNtB6_6Config4loadsq_0B8_
FNDA:4,_RNCNvMs_NtCsjEFxG0ag9NF_18timekeeper_backend6configNtB6_6Config4loadsr_0B8_
FNDA:4,_RNCNvMs_NtCsjEFxG0ag9NF_18timekeeper_backend6configNtB6_6Config4loadss_0B8_
FNDA:4,_RNCNvMs_NtCsjEFxG0ag9NF_18timekeeper_backend6configNtB6_6Config4loadst_0B8_
FNDA:4,_RNCNvMs_NtCsjEFxG0ag9NF_18timekeeper_backend6configNtB6_6Config4loadsu_0B8_
FNDA:4,_RNCNvMs_NtCsjEFxG0ag9NF_18timekeeper_backend6configNtB6_6Config4loadsv_0B8_
FNDA:4,_RNCNvMs_NtCsjEFxG0ag9NF_18timekeeper_backend6configNtB6_6Config4loadsw_0B8_
FNDA:0,_RNvMNtCsiqn6J3Zmf7c_18timekeeper_backend6configNtB2_23AuditLogRetentionPolicy14cleanup_cutoff
FNDA:0,_RNvMNtCsiqn6J3Zmf7c_18timekeeper_backend6configNtB2_23AuditLogRetentionPolicy14retention_days
FNDA:0,_RNvMNtCsiqn6J3Zmf7c_18timekeeper_backend6configNtB2_23AuditLogRetentionPolicy20is_recording_enabled
FNDA:0,_RNvMs_NtCsiqn6J3Zmf7c_18timekeeper_backend6configNtB4_6Config26audit_log_retention_policy
FNDA:0,_RNvMs_NtCsiqn6J3Zmf7c_18timekeeper_backend6configNtB4_6Config28consent_log_retention_policy
FNDA:0,_RNvMs_NtCsiqn6J3Zmf7c_18timekeeper_backend6configNtB4_6Config4load
FNDA:0,_RNvNtCsiqn6J3Zmf7c_18timekeeper_backend6config15parse_same_site
FNDA:0,_RNCNvMNtCsiqn6J3Zmf7c_18timekeeper_backend6configNtB4_23AuditLogRetentionPolicy14cleanup_cutoff0B6_
FNDA:0,_RNCNvMs_NtCsiqn6J3Zmf7c_18timekeeper_backend6configNtB6_6Config4load0B8_
FNDA:0,_RNCNvMs_NtCsiqn6J3Zmf7c_18timekeeper_backend6configNtB6_6Config4loads0_0B8_
FNDA:0,_RNCNvMs_NtCsiqn6J3Zmf7c_18timekeeper_backend6configNtB6_6Config4loads1_0B8_
FNDA:0,_RNCNvMs_NtCsiqn6J3Zmf7c_18timekeeper_backend6configNtB6_6Config4loads2_0B8_
FNDA:0,_RNCNvMs_NtCsiqn6J3Zmf7c_18timekeeper_backend6configNtB6_6Config4loads3_0B8_
FNDA:0,_RNCNvMs_NtCsiqn6J3Zmf7c_18timekeeper_backend6configNtB6_6Config4loads4_0B8_
FNDA:0,_RNCNvMs_NtCsiqn6J3Zmf7c_18timekeeper_backend6configNtB6_6Config4loads5_0B8_
FNDA:0,_RNCNvMs_NtCsiqn6J3Zmf7c_18timekeeper_backend6configNtB6_6Config4loads6_0B8_
FNDA:0,_RNCNvMs_NtCsiqn6J3Zmf7c_18timekeeper_backend6configNtB6_6Config4loads7_0B8_
FNDA:0,_RNCNvMs_NtCsiqn6J3Zmf7c_18timekeeper_backend6configNtB6_6Config4loads8_0B8_
FNDA:0,_RNCNvMs_NtCsiqn6J3Zmf7c_18timekeeper_backend6configNtB6_6Config4loads9_0B8_
FNDA:0,_RNCNvMs_NtCsiqn6J3Zmf7c_18timekeeper_backend6configNtB6_6Config4loads_0B8_
FNDA:0,_RNCNvMs_NtCsiqn6J3Zmf7c_18timekeeper_backend6configNtB6_6Config4loadsa_0B8_
FNDA:0,_RNCNvMs_NtCsiqn6J3Zmf7c_18timekeeper_backend6configNtB6_6Config4loadsb_0B8_
FNDA:0,_RNCNvMs_NtCsiqn6J3Zmf7c_18timekeeper_backend6configNtB6_6Config4loadsc_0B8_
FNDA:0,_RNCNvMs_NtCsiqn6J3Zmf7c_18timekeeper_backend6configNtB6_6Config4loadsd_0B8_
FNDA:0,_RNCNvMs_NtCsiqn6J3Zmf7c_18timekeeper_backend6configNtB6_6Config4loadse_0B8_
FNDA:0,_RNCNvMs_NtCsiqn6J3Zmf7c_18timekeeper_backend6configNtB6_6Config4loadsf_0B8_
FNDA:0,_RNCNvMs_NtCsiqn6J3Zmf7c_18timekeeper_backend6configNtB6_6Config4loadsg_0B8_
FNDA:0,_RNCNvMs_NtCsiqn6J3Zmf7c_18timekeeper_backend6configNtB6_6Config4loadsh_0B8_
FNDA:0,_RNCNvMs_NtCsiqn6J3Zmf7c_18timekeeper_backend6configNtB6_6Config4loadsi_0B8_
FNDA:0,_RNCNvMs_NtCsiqn6J3Zmf7c_18timekeeper_backend6configNtB6_6Config4loadsj_0B8_
FNDA:0,_RNCNvMs_NtCsiqn6J3Zmf7c_18timekeeper_backend6configNtB6_6Config4loadsk_0B8_
FNDA:0,_RNCNvMs_NtCsiqn6J3Zmf7c_18timekeeper_backend6configNtB6_6Config4loadsl_0B8_
FNDA:0,_RNCNvMs_NtCsiqn6J3Zmf7c_18timekeeper_backend6configNtB6_6Config4loadsm_0B8_
FNDA:0,_RNCNvMs_NtCsiqn6J3Zmf7c_18timekeeper_backend6configNtB6_6Config4loadsn_0B8_
FNDA:0,_RNCNvMs_NtCsiqn6J3Zmf7c_18timekeeper_backend6configNtB6_6Config4loadso_0B8_
FNDA:0,_RNCNvMs_NtCsiqn6J3Zmf7c_18timekeeper_backend6configNtB6_6Config4loadsp_0B8_
FNDA:0,_RNCNvMs_NtCsiqn6J3Zmf7c_18timekeeper_backend6configNtB6_6Config4loadsq_0B8_
FNDA:0,_RNCNvMs_NtCsiqn6J3Zmf7c_18timekeeper_backend6configNtB6_6Config4loadsr_0B8_
FNDA:0,_RNCNvMs_NtCsiqn6J3Zmf7c_18timekeeper_backend6configNtB6_6Config4loadss_0B8_
FNDA:0,_RNCNvMs_NtCsiqn6J3Zmf7c_18timekeeper_backend6configNtB6_6Config4loadst_0B8_
FNDA:0,_RNCNvMs_NtCsiqn6J3Zmf7c_18timekeeper_backend6configNtB6_6Config4loadsu_0B8_
FNDA:0,_RNCNvMs_NtCsiqn6J3Zmf7c_18timekeeper_backend6configNtB6_6Config4loadsv_0B8_
FNDA:0,_RNCNvMs_NtCsiqn6J3Zmf7c_18timekeeper_backend6configNtB6_6Config4loadsw_0B8_
FNDA:0,_RNCNvMNtCs86yVScfUyun_18timekeeper_backend6configNtB4_23AuditLogRetentionPolicy14cleanup_cutoff0B6_
FNDA:0,_RNvMNtCs86yVScfUyun_18timekeeper_backend6configNtB2_23AuditLogRetentionPolicy14cleanup_cutoff
FNDA:0,_RNvMs_NtCs86yVScfUyun_18timekeeper_backend6configNtB4_6Config28consent_log_retention_policy
FNDA:0,_RNCNvMs_NtCs86yVScfUyun_18timekeeper_backend6configNtB6_6Config4load0B8_
FNDA:4,_RNCNvMs_NtCs86yVScfUyun_18timekeeper_backend6configNtB6_6Config4loads0_0B8_
FNDA:4,_RNCNvMs_NtCs86yVScfUyun_18timekeeper_backend6configNtB6_6Config4loads1_0B8_
FNDA:4,_RNCNvMs_NtCs86yVScfUyun_18timekeeper_backend6configNtB6_6Config4loads2_0B8_
FNDA:4,_RNCNvMs_NtCs86yVScfUyun_18timekeeper_backend6configNtB6_6Config4loads3_0B8_
FNDA:4,_RNCNvMs_NtCs86yVScfUyun_18timekeeper_backend6configNtB6_6Config4loads4_0B8_
FNDA:4,_RNCNvMs_NtCs86yVScfUyun_18timekeeper_backend6configNtB6_6Config4loads5_0B8_
FNDA:4,_RNCNvMs_NtCs86yVScfUyun_18timekeeper_backend6configNtB6_6Config4loads6_0B8_
FNDA:4,_RNCNvMs_NtCs86yVScfUyun_18timekeeper_backend6configNtB6_6Config4loads7_0B8_
FNDA:4,_RNCNvMs_NtCs86yVScfUyun_18timekeeper_backend6configNtB6_6Config4loads8_0B8_
FNDA:4,_RNCNvMs_NtCs86yVScfUyun_18timekeeper_backend6configNtB6_6Config4loads9_0B8_
FNDA:0,_RNCNvMs_NtCs86yVScfUyun_18timekeeper_backend6configNtB6_6Config4loads_0B8_
FNDA:4,_RNCNvMs_NtCs86yVScfUyun_18timekeeper_backend6configNtB6_6Config4loadsa_0B8_
FNDA:4,_RNCNvMs_NtCs86yVScfUyun_18timekeeper_backend6configNtB6_6Config4loadsb_0B8_
FNDA:4,_RNCNvMs_NtCs86yVScfUyun_18timekeeper_backend6configNtB6_6Config4loadsc_0B8_
FNDA:4,_RNCNvMs_NtCs86yVScfUyun_18timekeeper_backend6configNtB6_6Config4loadsd_0B8_
FNDA:4,_RNCNvMs_NtCs86yVScfUyun_18timekeeper_backend6configNtB6_6Config4loadse_0B8_
FNDA:0,_RNCNvMs_NtCs86yVScfUyun_18timekeeper_backend6configNtB6_6Config4loadsf_0B8_
FNDA:4,_RNCNvMs_NtCs86yVScfUyun_18timekeeper_backend6configNtB6_6Config4loadsg_0B8_
FNDA:4,_RNCNvMs_NtCs86yVScfUyun_18timekeeper_backend6configNtB6_6Config4loadsh_0B8_
FNDA:4,_RNCNvMs_NtCs86yVScfUyun_18timekeeper_backend6configNtB6_6Config4loadsi_0B8_
FNDA:4,_RNCNvMs_NtCs86yVScfUyun_18timekeeper_backend6configNtB6_6Config4loadsj_0B8_
FNDA:4,_RNCNvMs_NtCs86yVScfUyun_18timekeeper_backend6configNtB6_6Config4loadsk_0B8_
FNDA:4,_RNCNvMs_NtCs86yVScfUyun_18timekeeper_backend6configNtB6_6Config4loadsl_0B8_
FNDA:4,_RNCNvMs_NtCs86yVScfUyun_18timekeeper_backend6configNtB6_6Config4loadsm_0B8_
FNDA:4,_RNCNvMs_NtCs86yVScfUyun_18timekeeper_backend6configNtB6_6Config4loadsn_0B8_
FNDA:4,_RNCNvMs_NtCs86yVScfUyun_18timekeeper_backend6configNtB6_6Config4loadso_0B8_
FNDA:4,_RNCNvMs_NtCs86yVScfUyun_18timekeeper_backend6configNtB6_6Config4loadsp_0B8_
FNDA:4,_RNCNvMs_NtCs86yVScfUyun_18timekeeper_backend6configNtB6_6Config4loadsq_0B8_
FNDA:4,_RNCNvMs_NtCs86yVScfUyun_18timekeeper_backend6configNtB6_6Config4loadsr_0B8_
FNDA:4,_RNCNvMs_NtCs86yVScfUyun_18timekeeper_backend6configNtB6_6Config4loadss_0B8_
FNDA:4,_RNCNvMs_NtCs86yVScfUyun_18timekeeper_backend6configNtB6_6Config4loadst_0B8_
FNDA:4,_RNCNvMs_NtCs86yVScfUyun_18timekeeper_backend6configNtB6_6Config4loadsu_0B8_
FNDA:4,_RNCNvMs_NtCs86yVScfUyun_18timekeeper_backend6configNtB6_6Config4loadsv_0B8_
FNDA:4,_RNCNvMs_NtCs86yVScfUyun_18timekeeper_backend6configNtB6_6Config4loadsw_0B8_
FNDA:22,_RNCNvNtNtCs86yVScfUyun_18timekeeper_backend6config5tests12snapshot_env0B7_
FNDA:1,_RNCNvNtNtCs86yVScfUyun_18timekeeper_backend6config5tests9env_guard0B7_
FNDA:1,_RNvMNtCs86yVScfUyun_18timekeeper_backend6configNtB2_23AuditLogRetentionPolicy14retention_days
FNDA:2,_RNvMNtCs86yVScfUyun_18timekeeper_backend6configNtB2_23AuditLogRetentionPolicy20is_recording_enabled
FNDA:3,_RNvMs_NtCs86yVScfUyun_18timekeeper_backend6configNtB4_6Config26audit_log_retention_policy
FNDA:4,_RNvMs_NtCs86yVScfUyun_18timekeeper_backend6configNtB4_6Config4load
FNDA:4,_RNvNtCs86yVScfUyun_18timekeeper_backend6config15parse_same_site
FNDA:3,_RNvNtNtCs86yVScfUyun_18timekeeper_backend6config5tests11base_config
FNDA:4,_RNvNtNtCs86yVScfUyun_18timekeeper_backend6config5tests11restore_env
FNDA:4,_RNvNtNtCs86yVScfUyun_18timekeeper_backend6config5tests12snapshot_env
FNDA:2,_RNvNtNtCs86yVScfUyun_18timekeeper_backend6config5tests20set_optional_aws_env
FNDA:4,_RNvNtNtCs86yVScfUyun_18timekeeper_backend6config5tests9env_guard
FNDA:1,_RNvNtNtCs86yVScfUyun_18timekeeper_backend6config5testss_25config_loads_aws_defaults
FNDA:1,_RNvNtNtCs86yVScfUyun_18timekeeper_backend6config5testss_33config_aws_kms_key_id_is_optional
FNDA:1,_RNvNtNtCs86yVScfUyun_18timekeeper_backend6config5testss_39audit_log_retention_policy_returns_days
FNDA:1,_RNvNtNtCs86yVScfUyun_18timekeeper_backend6config5testss_39config_aws_audit_log_bucket_is_optional
FNDA:1,_RNvNtNtCs86yVScfUyun_18timekeeper_backend6config5testss_41config_loads_audit_log_retention_defaults
FNDA:1,_RNvNtNtCs86yVScfUyun_18timekeeper_backend6config5testss_46audit_log_retention_policy_prioritizes_forever
FNDA:1,_RNvNtNtCs86yVScfUyun_18timekeeper_backend6config5testss_50audit_log_retention_policy_disables_when_days_zero
FNF:57
FNH:51
DA:57,14
DA:58,14
DA:59,14
DA:61,2
DA:62,2
DA:63,2
DA:64,0
DA:66,2
DA:68,0
DA:69,0
DA:70,0
DA:71,0
DA:75,9
DA:76,9
DA:78,9
DA:79,0
DA:80,0
DA:82,9
DA:84,9
DA:85,9
DA:86,9
DA:87,0
DA:88,0
DA:89,0
DA:90,0
DA:91,9
DA:93,9
DA:94,9
DA:95,9
DA:96,9
DA:98,9
DA:99,9
DA:100,9
DA:101,9
DA:103,9
DA:104,9
DA:105,9
DA:106,9
DA:108,9
DA:109,9
DA:110,9
DA:111,9
DA:112,9
DA:114,9
DA:115,9
DA:116,9
DA:117,9
DA:119,9
DA:120,9
DA:121,9
DA:122,9
DA:123,9
DA:125,9
DA:126,9
DA:127,9
DA:128,9
DA:130,9
DA:131,9
DA:132,9
DA:133,9
DA:134,9
DA:135,9
DA:136,9
DA:138,9
DA:139,9
DA:140,9
DA:141,9
DA:143,9
DA:144,9
DA:146,9
DA:147,9
DA:148,9
DA:149,9
DA:150,9
DA:151,9
DA:153,9
DA:154,9
DA:155,9
DA:156,9
DA:158,9
DA:160,9
DA:161,9
DA:162,9
DA:163,9
DA:165,9
DA:166,9
DA:167,9
DA:168,9
DA:170,9
DA:171,9
DA:172,9
DA:173,9
DA:175,9
DA:176,9
DA:177,9
DA:178,9
DA:180,9
DA:181,9
DA:182,9
DA:183,9
DA:184,9
DA:185,9
DA:186,9
DA:187,9
DA:188,9
DA:190,9
DA:191,9
DA:192,9
DA:193,9
DA:195,9
DA:196,9
DA:197,9
DA:198,9
DA:200,9
DA:201,9
DA:202,9
DA:203,9
DA:205,9
DA:206,9
DA:207,9
DA:208,9
DA:210,9
DA:211,9
DA:212,9
DA:213,9
DA:215,9
DA:216,9
DA:217,9
DA:218,9
DA:220,9
DA:221,9
DA:222,9
DA:223,9
DA:225,9
DA:226,9
DA:227,9
DA:228,9
DA:230,9
DA:231,9
DA:232,9
DA:233,9
DA:235,9
DA:236,9
DA:237,9
DA:238,9
DA:240,9
DA:241,9
DA:242,9
DA:243,9
DA:244,9
DA:245,9
DA:246,9
DA:247,9
DA:248,9
DA:249,9
DA:250,9
DA:251,9
DA:252,9
DA:253,9
DA:254,9
DA:255,9
DA:256,9
DA:257,9
DA:258,9
DA:259,9
DA:260,9
DA:261,9
DA:262,9
DA:263,9
DA:264,9
DA:265,9
DA:266,9
DA:267,9
DA:268,9
DA:269,9
DA:270,9
DA:271,9
DA:272,9
DA:273,9
DA:274,9
DA:275,9
DA:276,9
DA:277,9
DA:278,9
DA:280,16
DA:281,16
DA:282,2
DA:283,14
DA:284,3
DA:286,11
DA:288,16
DA:290,0
DA:291,0
DA:292,0
DA:293,0
DA:294,0
DA:296,0
DA:298,0
DA:301,9
DA:302,9
DA:303,9
DA:304,0
DA:305,0
DA:306,0
DA:308,9
DA:316,8
DA:318,8
DA:319,8
DA:320,8
DA:321,8
DA:322,8
DA:324,8
DA:325,44
DA:326,8
DA:328,8
DA:329,44
DA:330,44
DA:331,0
DA:332,44
DA:335,8
DA:337,4
DA:338,4
DA:339,4
DA:340,4
DA:342,6
DA:343,6
DA:344,6
DA:345,6
DA:346,6
DA:347,6
DA:348,6
DA:349,6
DA:350,6
DA:351,6
DA:352,6
DA:353,6
DA:354,6
DA:355,6
DA:356,6
DA:357,6
DA:358,6
DA:359,6
DA:360,6
DA:361,6
DA:362,6
DA:363,6
DA:364,6
DA:365,6
DA:366,6
DA:367,6
DA:368,6
DA:369,6
DA:370,6
DA:371,6
DA:372,6
DA:373,6
DA:374,6
DA:375,6
DA:376,6
DA:377,6
DA:378,6
DA:379,6
DA:380,6
DA:381,6
DA:384,2
DA:385,2
DA:386,2
DA:387,2
DA:388,2
DA:389,2
DA:390,2
DA:391,2
DA:392,2
DA:393,2
DA:394,2
DA:395,2
DA:396,2
DA:397,2
DA:399,2
DA:400,2
DA:401,2
DA:402,2
DA:403,2
DA:404,2
DA:405,2
DA:406,2
DA:408,2
DA:410,2
DA:411,2
DA:412,2
DA:413,2
DA:414,2
DA:415,2
DA:417,2
DA:418,2
DA:421,2
DA:422,2
DA:423,2
DA:424,2
DA:425,2
DA:426,2
DA:427,2
DA:428,2
DA:429,2
DA:430,2
DA:431,2
DA:432,2
DA:434,2
DA:435,2
DA:436,2
DA:437,2
DA:439,2
DA:441,2
DA:442,2
DA:443,2
DA:444,2
DA:446,2
DA:447,2
DA:450,2
DA:451,2
DA:452,2
DA:453,2
DA:455,2
DA:456,2
DA:457,2
DA:459,2
DA:460,2
DA:461,2
DA:463,2
DA:464,2
DA:467,2
DA:468,2
DA:469,2
DA:470,2
DA:472,2
DA:473,2
DA:474,2
DA:476,2
DA:477,2
DA:478,2
DA:480,2
DA:481,2
DA:484,2
DA:485,2
DA:486,2
DA:487,2
DA:489,2
DA:491,2
DA:492,2
DA:493,2
DA:496,2
DA:497,2
DA:498,2
DA:499,2
DA:501,2
DA:503,2
DA:504,2
DA:505,2
DA:508,2
DA:509,2
DA:510,2
DA:511,2
DA:513,2
DA:515,2
DA:516,2
DA:517,2
BRF:0
BRH:0
LF:404
LH:378
end_of_record
SF:/home/marra/projects/timekeeper/backend/src/db/connection.rs
FN:58,_RNvMs_NtNtCs2oPl7zguF9n_18timekeeper_backend2db10connectionNtB4_10PoolConfig3log
FN:33,_RNvMs_NtNtCs2oPl7zguF9n_18timekeeper_backend2db10connectionNtB4_10PoolConfig8from_env
FN:71,_RNvNtNtCs2oPl7zguF9n_18timekeeper_backend2db10connection11create_pool
FN:99,_RNvNtNtCs2oPl7zguF9n_18timekeeper_backend2db10connection12create_pools
FN:78,_RNvNtNtCs2oPl7zguF9n_18timekeeper_backend2db10connection23create_pool_with_config
FN:106,_RNvNtNtCs2oPl7zguF9n_18timekeeper_backend2db10connection24create_pools_with_config
FN:21,_RNvXNtNtCs2oPl7zguF9n_18timekeeper_backend2db10connectionNtB2_10PoolConfigNtNtCslH02haMvknO_4core7default7Default7default
FN:37,_RNCNvMs_NtNtCs2oPl7zguF9n_18timekeeper_backend2db10connectionNtB6_10PoolConfig8from_env0Ba_
FN:45,_RNCNvMs_NtNtCs2oPl7zguF9n_18timekeeper_backend2db10connectionNtB6_10PoolConfig8from_envs0_0Ba_
FN:49,_RNCNvMs_NtNtCs2oPl7zguF9n_18timekeeper_backend2db10connectionNtB6_10PoolConfig8from_envs1_0Ba_
FN:53,_RNCNvMs_NtNtCs2oPl7zguF9n_18timekeeper_backend2db10connectionNtB6_10PoolConfig8from_envs2_0Ba_
FN:41,_RNCNvMs_NtNtCs2oPl7zguF9n_18timekeeper_backend2db10connectionNtB6_10PoolConfig8from_envs_0Ba_
FN:71,_RNCNvNtNtCs2oPl7zguF9n_18timekeeper_backend2db10connection11create_pool0B7_
FN:102,_RNCNvNtNtCs2oPl7zguF9n_18timekeeper_backend2db10connection12create_pools0B7_
FN:81,_RNCNvNtNtCs2oPl7zguF9n_18timekeeper_backend2db10connection23create_pool_with_config0B7_
FN:110,_RNCNvNtNtCs2oPl7zguF9n_18timekeeper_backend2db10connection24create_pools_with_config0B7_
FN:71,_RNvNtNtCsjEFxG0ag9NF_18timekeeper_backend2db10connection11create_pool
FN:99,_RNvNtNtCsjEFxG0ag9NF_18timekeeper_backend2db10connection12create_pools
FN:21,_RNvXNtNtCsjEFxG0ag9NF_18timekeeper_backend2db10connectionNtB2_10PoolConfigNtNtCslH02haMvknO_4core7default7Default7default
FN:58,_RNvMs_NtNtCsjEFxG0ag9NF_18timekeeper_backend2db10connectionNtB4_10PoolConfig3log
FN:33,_RNvMs_NtNtCsjEFxG0ag9NF_18timekeeper_backend2db10connectionNtB4_10PoolConfig8from_env
FN:78,_RNvNtNtCsjEFxG0ag9NF_18timekeeper_backend2db10connection23create_pool_with_config
FN:106,_RNvNtNtCsjEFxG0ag9NF_18timekeeper_backend2db10connection24create_pools_with_config
FN:37,_RNCNvMs_NtNtCsjEFxG0ag9NF_18timekeeper_backend2db10connectionNtB6_10PoolConfig8from_env0Ba_
FN:45,_RNCNvMs_NtNtCsjEFxG0ag9NF_18timekeeper_backend2db10connectionNtB6_10PoolConfig8from_envs0_0Ba_
FN:49,_RNCNvMs_NtNtCsjEFxG0ag9NF_18timekeeper_backend2db10connectionNtB6_10PoolConfig8from_envs1_0Ba_
FN:53,_RNCNvMs_NtNtCsjEFxG0ag9NF_18timekeeper_backend2db10connectionNtB6_10PoolConfig8from_envs2_0Ba_
FN:41,_RNCNvMs_NtNtCsjEFxG0ag9NF_18timekeeper_backend2db10connectionNtB6_10PoolConfig8from_envs_0Ba_
FN:71,_RNCNvNtNtCsjEFxG0ag9NF_18timekeeper_backend2db10connection11create_pool0B7_
FN:102,_RNCNvNtNtCsjEFxG0ag9NF_18timekeeper_backend2db10connection12create_pools0B7_
FN:81,_RNCNvNtNtCsjEFxG0ag9NF_18timekeeper_backend2db10connection23create_pool_with_config0B7_
FN:110,_RNCNvNtNtCsjEFxG0ag9NF_18timekeeper_backend2db10connection24create_pools_with_config0B7_
FN:58,_RNvMs_NtNtCsiqn6J3Zmf7c_18timekeeper_backend2db10connectionNtB4_10PoolConfig3log
FN:33,_RNvMs_NtNtCsiqn6J3Zmf7c_18timekeeper_backend2db10connectionNtB4_10PoolConfig8from_env
FN:99,_RNvNtNtCsiqn6J3Zmf7c_18timekeeper_backend2db10connection12create_pools
FN:78,_RNvNtNtCsiqn6J3Zmf7c_18timekeeper_backend2db10connection23create_pool_with_config
FN:106,_RNvNtNtCsiqn6J3Zmf7c_18timekeeper_backend2db10connection24create_pools_with_config
FN:71,_RNvNtNtCsiqn6J3Zmf7c_18timekeeper_backend2db10connection11create_pool
FN:21,_RNvXNtNtCsiqn6J3Zmf7c_18timekeeper_backend2db10connectionNtB2_10PoolConfigNtNtCslH02haMvknO_4core7default7Default7default
FN:37,_RNCNvMs_NtNtCsiqn6J3Zmf7c_18timekeeper_backend2db10connectionNtB6_10PoolConfig8from_env0Ba_
FN:45,_RNCNvMs_NtNtCsiqn6J3Zmf7c_18timekeeper_backend2db10connectionNtB6_10PoolConfig8from_envs0_0Ba_
FN:49,_RNCNvMs_NtNtCsiqn6J3Zmf7c_18timekeeper_backend2db10connectionNtB6_10PoolConfig8from_envs1_0Ba_
FN:53,_RNCNvMs_NtNtCsiqn6J3Zmf7c_18timekeeper_backend2db10connectionNtB6_10PoolConfig8from_envs2_0Ba_
FN:41,_RNCNvMs_NtNtCsiqn6J3Zmf7c_18timekeeper_backend2db10connectionNtB6_10PoolConfig8from_envs_0Ba_
FN:71,_RNCNvNtNtCsiqn6J3Zmf7c_18timekeeper_backend2db10connection11create_pool0B7_
FN:102,_RNCNvNtNtCsiqn6J3Zmf7c_18timekeeper_backend2db10connection12create_pools0B7_
FN:81,_RNCNvNtNtCsiqn6J3Zmf7c_18timekeeper_backend2db10connection23create_pool_with_config0B7_
FN:110,_RNCNvNtNtCsiqn6J3Zmf7c_18timekeeper_backend2db10connection24create_pools_with_config0B7_
FN:71,_RNvNtNtCs86yVScfUyun_18timekeeper_backend2db10connection11create_pool
FN:99,_RNvNtNtCs86yVScfUyun_18timekeeper_backend2db10connection12create_pools
FN:21,_RNvXNtNtCs86yVScfUyun_18timekeeper_backend2db10connectionNtB2_10PoolConfigNtNtCslH02haMvknO_4core7default7Default7default
FN:58,_RNvMs_NtNtCs86yVScfUyun_18timekeeper_backend2db10connectionNtB4_10PoolConfig3log
FN:33,_RNvMs_NtNtCs86yVScfUyun_18timekeeper_backend2db10connectionNtB4_10PoolConfig8from_env
FN:78,_RNvNtNtCs86yVScfUyun_18timekeeper_backend2db10connection23create_pool_with_config
FN:106,_RNvNtNtCs86yVScfUyun_18timekeeper_backend2db10connection24create_pools_with_config
FN:37,_RNCNvMs_NtNtCs86yVScfUyun_18timekeeper_backend2db10connectionNtB6_10PoolConfig8from_env0Ba_
FN:45,_RNCNvMs_NtNtCs86yVScfUyun_18timekeeper_backend2db10connectionNtB6_10PoolConfig8from_envs0_0Ba_
FN:49,_RNCNvMs_NtNtCs86yVScfUyun_18timekeeper_backend2db10connectionNtB6_10PoolConfig8from_envs1_0Ba_
FN:53,_RNCNvMs_NtNtCs86yVScfUyun_18timekeeper_backend2db10connectionNtB6_10PoolConfig8from_envs2_0Ba_
FN:41,_RNCNvMs_NtNtCs86yVScfUyun_18timekeeper_backend2db10connectionNtB6_10PoolConfig8from_envs_0Ba_
FN:71,_RNCNvNtNtCs86yVScfUyun_18timekeeper_backend2db10connection11create_pool0B7_
FN:102,_RNCNvNtNtCs86yVScfUyun_18timekeeper_backend2db10connection12create_pools0B7_
FN:81,_RNCNvNtNtCs86yVScfUyun_18timekeeper_backend2db10connection23create_pool_with_config0B7_
FN:110,_RNCNvNtNtCs86yVScfUyun_18timekeeper_backend2db10connection24create_pools_with_config0B7_
FNDA:5,_RNvMs_NtNtCs2oPl7zguF9n_18timekeeper_backend2db10connectionNtB4_10PoolConfig3log
FNDA:2,_RNvMs_NtNtCs2oPl7zguF9n_18timekeeper_backend2db10connectionNtB4_10PoolConfig8from_env
FNDA:1,_RNvNtNtCs2oPl7zguF9n_18timekeeper_backend2db10connection11create_pool
FNDA:1,_RNvNtNtCs2oPl7zguF9n_18timekeeper_backend2db10connection12create_pools
FNDA:5,_RNvNtNtCs2oPl7zguF9n_18timekeeper_backend2db10connection23create_pool_with_config
FNDA:2,_RNvNtNtCs2oPl7zguF9n_18timekeeper_backend2db10connection24create_pools_with_config
FNDA:2,_RNvXNtNtCs2oPl7zguF9n_18timekeeper_backend2db10connectionNtB2_10PoolConfigNtNtCslH02haMvknO_4core7default7Default7default
FNDA:0,_RNCNvMs_NtNtCs2oPl7zguF9n_18timekeeper_backend2db10connectionNtB6_10PoolConfig8from_env0Ba_
FNDA:0,_RNCNvMs_NtNtCs2oPl7zguF9n_18timekeeper_backend2db10connectionNtB6_10PoolConfig8from_envs0_0Ba_
FNDA:0,_RNCNvMs_NtNtCs2oPl7zguF9n_18timekeeper_backend2db10connectionNtB6_10PoolConfig8from_envs1_0Ba_
FNDA:0,_RNCNvMs_NtNtCs2oPl7zguF9n_18timekeeper_backend2db10connectionNtB6_10PoolConfig8from_envs2_0Ba_
FNDA:0,_RNCNvMs_NtNtCs2oPl7zguF9n_18timekeeper_backend2db10connectionNtB6_10PoolConfig8from_envs_0Ba_
FNDA:1,_RNCNvNtNtCs2oPl7zguF9n_18timekeeper_backend2db10connection11create_pool0B7_
FNDA:1,_RNCNvNtNtCs2oPl7zguF9n_18timekeeper_backend2db10connection12create_pools0B7_
FNDA:5,_RNCNvNtNtCs2oPl7zguF9n_18timekeeper_backend2db10connection23create_pool_with_config0B7_
FNDA:2,_RNCNvNtNtCs2oPl7zguF9n_18timekeeper_backend2db10connection24create_pools_with_config0B7_
FNDA:0,_RNvNtNtCsjEFxG0ag9NF_18timekeeper_backend2db10connection11create_pool
FNDA:0,_RNvNtNtCsjEFxG0ag9NF_18timekeeper_backend2db10connection12create_pools
FNDA:0,_RNvXNtNtCsjEFxG0ag9NF_18timekeeper_backend2db10connectionNtB2_10PoolConfigNtNtCslH02haMvknO_4core7default7Default7default
FNDA:0,_RNvMs_NtNtCsjEFxG0ag9NF_18timekeeper_backend2db10connectionNtB4_10PoolConfig3log
FNDA:0,_RNvMs_NtNtCsjEFxG0ag9NF_18timekeeper_backend2db10connectionNtB4_10PoolConfig8from_env
FNDA:0,_RNvNtNtCsjEFxG0ag9NF_18timekeeper_backend2db10connection23create_pool_with_config
FNDA:0,_RNvNtNtCsjEFxG0ag9NF_18timekeeper_backend2db10connection24create_pools_with_config
FNDA:0,_RNCNvMs_NtNtCsjEFxG0ag9NF_18timekeeper_backend2db10connectionNtB6_10PoolConfig8from_env0Ba_
FNDA:0,_RNCNvMs_NtNtCsjEFxG0ag9NF_18timekeeper_backend2db10connectionNtB6_10PoolConfig8from_envs0_0Ba_
FNDA:0,_RNCNvMs_NtNtCsjEFxG0ag9NF_18timekeeper_backend2db10connectionNtB6_10PoolConfig8from_envs1_0Ba_
FNDA:0,_RNCNvMs_NtNtCsjEFxG0ag9NF_18timekeeper_backend2db10connectionNtB6_10PoolConfig8from_envs2_0Ba_
FNDA:0,_RNCNvMs_NtNtCsjEFxG0ag9NF_18timekeeper_backend2db10connectionNtB6_10PoolConfig8from_envs_0Ba_
FNDA:0,_RNCNvNtNtCsjEFxG0ag9NF_18timekeeper_backend2db10connection11create_pool0B7_
FNDA:0,_RNCNvNtNtCsjEFxG0ag9NF_18timekeeper_backend2db10connection12create_pools0B7_
FNDA:0,_RNCNvNtNtCsjEFxG0ag9NF_18timekeeper_backend2db10connection23create_pool_with_config0B7_
FNDA:0,_RNCNvNtNtCsjEFxG0ag9NF_18timekeeper_backend2db10connection24create_pools_with_config0B7_
FNDA:0,_RNvMs_NtNtCsiqn6J3Zmf7c_18timekeeper_backend2db10connectionNtB4_10PoolConfig3log
FNDA:0,_RNvMs_NtNtCsiqn6J3Zmf7c_18timekeeper_backend2db10connectionNtB4_10PoolConfig8from_env
FNDA:0,_RNvNtNtCsiqn6J3Zmf7c_18timekeeper_backend2db10connection12create_pools
FNDA:0,_RNvNtNtCsiqn6J3Zmf7c_18timekeeper_backend2db10connection23create_pool_with_config
FNDA:0,_RNvNtNtCsiqn6J3Zmf7c_18timekeeper_backend2db10connection24create_pools_with_config
FNDA:0,_RNvNtNtCsiqn6J3Zmf7c_18timekeeper_backend2db10connection11create_pool
FNDA:0,_RNvXNtNtCsiqn6J3Zmf7c_18timekeeper_backend2db10connectionNtB2_10PoolConfigNtNtCslH02haMvknO_4core7default7Default7default
FNDA:0,_RNCNvMs_NtNtCsiqn6J3Zmf7c_18timekeeper_backend2db10connectionNtB6_10PoolConfig8from_env0Ba_
FNDA:0,_RNCNvMs_NtNtCsiqn6J3Zmf7c_18timekeeper_backend2db10connectionNtB6_10PoolConfig8from_envs0_0Ba_
FNDA:0,_RNCNvMs_NtNtCsiqn6J3Zmf7c_18timekeeper_backend2db10connectionNtB6_10PoolConfig8from_envs1_0Ba_
FNDA:0,_RNCNvMs_NtNtCsiqn6J3Zmf7c_18timekeeper_backend2db10connectionNtB6_10PoolConfig8from_envs2_0Ba_
FNDA:0,_RNCNvMs_NtNtCsiqn6J3Zmf7c_18timekeeper_backend2db10connectionNtB6_10PoolConfig8from_envs_0Ba_
FNDA:0,_RNCNvNtNtCsiqn6J3Zmf7c_18timekeeper_backend2db10connection11create_pool0B7_
FNDA:0,_RNCNvNtNtCsiqn6J3Zmf7c_18timekeeper_backend2db10connection12create_pools0B7_
FNDA:0,_RNCNvNtNtCsiqn6J3Zmf7c_18timekeeper_backend2db10connection23create_pool_with_config0B7_
FNDA:0,_RNCNvNtNtCsiqn6J3Zmf7c_18timekeeper_backend2db10connection24create_pools_with_config0B7_
FNDA:0,_RNvNtNtCs86yVScfUyun_18timekeeper_backend2db10connection11create_pool
FNDA:0,_RNvNtNtCs86yVScfUyun_18timekeeper_backend2db10connection12create_pools
FNDA:0,_RNvXNtNtCs86yVScfUyun_18timekeeper_backend2db10connectionNtB2_10PoolConfigNtNtCslH02haMvknO_4core7default7Default7default
FNDA:0,_RNvMs_NtNtCs86yVScfUyun_18timekeeper_backend2db10connectionNtB4_10PoolConfig3log
FNDA:0,_RNvMs_NtNtCs86yVScfUyun_18timekeeper_backend2db10connectionNtB4_10PoolConfig8from_env
FNDA:0,_RNvNtNtCs86yVScfUyun_18timekeeper_backend2db10connection23create_pool_with_config
FNDA:0,_RNvNtNtCs86yVScfUyun_18timekeeper_backend2db10connection24create_pools_with_config
FNDA:0,_RNCNvMs_NtNtCs86yVScfUyun_18timekeeper_backend2db10connectionNtB6_10PoolConfig8from_env0Ba_
FNDA:0,_RNCNvMs_NtNtCs86yVScfUyun_18timekeeper_backend2db10connectionNtB6_10PoolConfig8from_envs0_0Ba_
FNDA:0,_RNCNvMs_NtNtCs86yVScfUyun_18timekeeper_backend2db10connectionNtB6_10PoolConfig8from_envs1_0Ba_
FNDA:0,_RNCNvMs_NtNtCs86yVScfUyun_18timekeeper_backend2db10connectionNtB6_10PoolConfig8from_envs2_0Ba_
FNDA:0,_RNCNvMs_NtNtCs86yVScfUyun_18timekeeper_backend2db10connectionNtB6_10PoolConfig8from_envs_0Ba_
FNDA:0,_RNCNvNtNtCs86yVScfUyun_18timekeeper_backend2db10connection11create_pool0B7_
FNDA:0,_RNCNvNtNtCs86yVScfUyun_18timekeeper_backend2db10connection12create_pools0B7_
FNDA:0,_RNCNvNtNtCs86yVScfUyun_18timekeeper_backend2db10connection23create_pool_with_config0B7_
FNDA:0,_RNCNvNtNtCs86yVScfUyun_18timekeeper_backend2db10connection24create_pools_with_config0B7_
FNF:16
FNH:11
DA:21,2
DA:22,2
DA:23,2
DA:24,2
DA:25,2
DA:26,2
DA:27,2
DA:28,2
DA:29,2
DA:33,2
DA:35,2
DA:36,2
DA:37,2
DA:38,2
DA:39,2
DA:40,2
DA:41,2
DA:42,2
DA:43,2
DA:44,2
DA:45,2
DA:46,2
DA:47,2
DA:48,2
DA:49,2
DA:50,2
DA:51,2
DA:52,2
DA:53,2
DA:54,2
DA:56,2
DA:58,5
DA:59,5
DA:67,5
DA:71,1
DA:72,1
DA:73,1
DA:75,1
DA:76,1
DA:78,5
DA:79,5
DA:80,5
DA:81,5
DA:82,5
DA:84,5
DA:85,5
DA:87,5
DA:88,5
DA:89,5
DA:90,5
DA:91,5
DA:92,5
DA:93,5
DA:94,5
DA:96,5
DA:97,5
DA:99,1
DA:100,1
DA:101,1
DA:102,1
DA:103,1
DA:104,1
DA:106,2
DA:107,2
DA:108,2
DA:109,2
DA:110,2
DA:111,2
DA:112,2
DA:114,2
DA:115,1
DA:116,1
DA:118,1
DA:119,1
DA:122,2
DA:123,2
BRF:0
BRH:0
LF:85
LH:80
end_of_record
SF:/home/marra/projects/timekeeper/backend/src/db/redis.rs
FN:8,_RNvNtNtCs2oPl7zguF9n_18timekeeper_backend2db5redis17create_redis_pool
FN:8,_RNCNvNtNtCs2oPl7zguF9n_18timekeeper_backend2db5redis17create_redis_pool0B7_
FN:8,_RNvNtNtCsjEFxG0ag9NF_18timekeeper_backend2db5redis17create_redis_pool
FN:8,_RNCNvNtNtCsjEFxG0ag9NF_18timekeeper_backend2db5redis17create_redis_pool0B7_
FN:8,_RNvNtNtCsiqn6J3Zmf7c_18timekeeper_backend2db5redis17create_redis_pool
FN:8,_RNCNvNtNtCsiqn6J3Zmf7c_18timekeeper_backend2db5redis17create_redis_pool0B7_
FN:8,_RNvNtNtCs86yVScfUyun_18timekeeper_backend2db5redis17create_redis_pool
FN:8,_RNCNvNtNtCs86yVScfUyun_18timekeeper_backend2db5redis17create_redis_pool0B7_
FNDA:3,_RNvNtNtCs2oPl7zguF9n_18timekeeper_backend2db5redis17create_redis_pool
FNDA:3,_RNCNvNtNtCs2oPl7zguF9n_18timekeeper_backend2db5redis17create_redis_pool0B7_
FNDA:0,_RNvNtNtCsjEFxG0ag9NF_18timekeeper_backend2db5redis17create_redis_pool
FNDA:0,_RNCNvNtNtCsjEFxG0ag9NF_18timekeeper_backend2db5redis17create_redis_pool0B7_
FNDA:0,_RNvNtNtCsiqn6J3Zmf7c_18timekeeper_backend2db5redis17create_redis_pool
FNDA:0,_RNCNvNtNtCsiqn6J3Zmf7c_18timekeeper_backend2db5redis17create_redis_pool0B7_
FNDA:0,_RNvNtNtCs86yVScfUyun_18timekeeper_backend2db5redis17create_redis_pool
FNDA:0,_RNCNvNtNtCs86yVScfUyun_18timekeeper_backend2db5redis17create_redis_pool0B7_
FNF:2
FNH:2
DA:8,3
DA:9,3
DA:10,1
DA:11,1
DA:14,2
DA:15,2
DA:16,2
DA:17,2
DA:18,2
DA:19,2
DA:21,2
DA:25,2
DA:26,3
BRF:0
BRH:0
LF:14
LH:14
end_of_record
SF:/home/marra/projects/timekeeper/backend/src/docs.rs
FN:273,_RNvNtCs2oPl7zguF9n_18timekeeper_backend4docs10logout_doc
FN:213,_RNvNtCs2oPl7zguF9n_18timekeeper_backend4docs11refresh_doc
FN:299,_RNvNtCs2oPl7zguF9n_18timekeeper_backend4docs12clock_in_doc
FN:326,_RNvNtCs2oPl7zguF9n_18timekeeper_backend4docs13break_end_doc
FN:308,_RNvNtCs2oPl7zguF9n_18timekeeper_backend4docs13clock_out_doc
FN:237,_RNvNtCs2oPl7zguF9n_18timekeeper_backend4docs13mfa_setup_doc
FN:229,_RNvNtCs2oPl7zguF9n_18timekeeper_backend4docs14mfa_status_doc
FN:317,_RNvNtCs2oPl7zguF9n_18timekeeper_backend4docs15break_start_doc
FN:255,_RNvNtCs2oPl7zguF9n_18timekeeper_backend4docs15mfa_disable_doc
FN:390,_RNvNtCs2oPl7zguF9n_18timekeeper_backend4docs15my_requests_doc
FN:588,_RNvNtCs2oPl7zguF9n_18timekeeper_backend4docs16admin_export_doc
FN:373,_RNvNtCs2oPl7zguF9n_18timekeeper_backend4docs16create_leave_doc
FN:246,_RNvNtCs2oPl7zguF9n_18timekeeper_backend4docs16mfa_activate_doc
FN:281,_RNvNtCs2oPl7zguF9n_18timekeeper_backend4docs17list_sessions_doc
FN:346,_RNvNtCs2oPl7zguF9n_18timekeeper_backend4docs17my_attendance_doc
FN:399,_RNvNtCs2oPl7zguF9n_18timekeeper_backend4docs18record_consent_doc
FN:290,_RNvNtCs2oPl7zguF9n_18timekeeper_backend4docs18revoke_session_doc
FN:508,_RNvNtCs2oPl7zguF9n_18timekeeper_backend4docs19admin_get_users_doc
FN:264,_RNvNtCs2oPl7zguF9n_18timekeeper_backend4docs19change_password_doc
FN:382,_RNvNtCs2oPl7zguF9n_18timekeeper_backend4docs19create_overtime_doc
FN:407,_RNvNtCs2oPl7zguF9n_18timekeeper_backend4docs20list_my_consents_doc
FN:517,_RNvNtCs2oPl7zguF9n_18timekeeper_backend4docs21admin_create_user_doc
FN:337,_RNvNtCs2oPl7zguF9n_18timekeeper_backend4docs21attendance_status_doc
FN:364,_RNvNtCs2oPl7zguF9n_18timekeeper_backend4docs21export_attendance_doc
FN:606,_RNvNtCs2oPl7zguF9n_18timekeeper_backend4docs23admin_get_audit_log_doc
FN:544,_RNvNtCs2oPl7zguF9n_18timekeeper_backend4docs23admin_list_holidays_doc
FN:442,_RNvNtCs2oPl7zguF9n_18timekeeper_backend4docs23admin_list_requests_doc
FN:553,_RNvNtCs2oPl7zguF9n_18timekeeper_backend4docs24admin_create_holiday_doc
FN:562,_RNvNtCs2oPl7zguF9n_18timekeeper_backend4docs24admin_delete_holiday_doc
FN:471,_RNvNtCs2oPl7zguF9n_18timekeeper_backend4docs24admin_reject_request_doc
FN:451,_RNvNtCs2oPl7zguF9n_18timekeeper_backend4docs24admin_request_detail_doc
FN:535,_RNvNtCs2oPl7zguF9n_18timekeeper_backend4docs24admin_revoke_session_doc
FN:461,_RNvNtCs2oPl7zguF9n_18timekeeper_backend4docs25admin_approve_request_doc
FN:597,_RNvNtCs2oPl7zguF9n_18timekeeper_backend4docs25admin_list_audit_logs_doc
FN:355,_RNvNtCs2oPl7zguF9n_18timekeeper_backend4docs25my_attendance_summary_doc
FN:433,_RNvNtCs2oPl7zguF9n_18timekeeper_backend4docs26cancel_subject_request_doc
FN:416,_RNvNtCs2oPl7zguF9n_18timekeeper_backend4docs26create_subject_request_doc
FN:624,_RNvNtCs2oPl7zguF9n_18timekeeper_backend4docs26system_admin_reset_mfa_doc
FN:615,_RNvNtCs2oPl7zguF9n_18timekeeper_backend4docs27admin_export_audit_logs_doc
FN:526,_RNvNtCs2oPl7zguF9n_18timekeeper_backend4docs28admin_list_user_sessions_doc
FN:424,_RNvNtCs2oPl7zguF9n_18timekeeper_backend4docs28list_my_subject_requests_doc
FN:570,_RNvNtCs2oPl7zguF9n_18timekeeper_backend4docs30admin_list_weekly_holidays_doc
FN:579,_RNvNtCs2oPl7zguF9n_18timekeeper_backend4docs31admin_create_weekly_holiday_doc
FN:480,_RNvNtCs2oPl7zguF9n_18timekeeper_backend4docs31admin_list_subject_requests_doc
FN:500,_RNvNtCs2oPl7zguF9n_18timekeeper_backend4docs32admin_reject_subject_request_doc
FN:490,_RNvNtCs2oPl7zguF9n_18timekeeper_backend4docs33admin_approve_subject_request_doc
FN:650,_RNvNtCs2oPl7zguF9n_18timekeeper_backend4docs33admin_list_holiday_exceptions_doc
FN:637,_RNvNtCs2oPl7zguF9n_18timekeeper_backend4docs34admin_create_holiday_exception_doc
FN:662,_RNvNtCs2oPl7zguF9n_18timekeeper_backend4docs34admin_delete_holiday_exception_doc
FN:221,_RNvNtCs2oPl7zguF9n_18timekeeper_backend4docs6me_doc
FN:203,_RNvNtCs2oPl7zguF9n_18timekeeper_backend4docs9login_doc
FN:182,_RNvXNtCs2oPl7zguF9n_18timekeeper_backend4docsNtB2_15SecuritySchemesNtCsbIbDRHCsfHB_6utoipa6Modify6modify
FN:273,_RNvNtCsjEFxG0ag9NF_18timekeeper_backend4docs10logout_doc
FN:213,_RNvNtCsjEFxG0ag9NF_18timekeeper_backend4docs11refresh_doc
FN:299,_RNvNtCsjEFxG0ag9NF_18timekeeper_backend4docs12clock_in_doc
FN:326,_RNvNtCsjEFxG0ag9NF_18timekeeper_backend4docs13break_end_doc
FN:308,_RNvNtCsjEFxG0ag9NF_18timekeeper_backend4docs13clock_out_doc
FN:237,_RNvNtCsjEFxG0ag9NF_18timekeeper_backend4docs13mfa_setup_doc
FN:229,_RNvNtCsjEFxG0ag9NF_18timekeeper_backend4docs14mfa_status_doc
FN:317,_RNvNtCsjEFxG0ag9NF_18timekeeper_backend4docs15break_start_doc
FN:255,_RNvNtCsjEFxG0ag9NF_18timekeeper_backend4docs15mfa_disable_doc
FN:390,_RNvNtCsjEFxG0ag9NF_18timekeeper_backend4docs15my_requests_doc
FN:588,_RNvNtCsjEFxG0ag9NF_18timekeeper_backend4docs16admin_export_doc
FN:373,_RNvNtCsjEFxG0ag9NF_18timekeeper_backend4docs16create_leave_doc
FN:246,_RNvNtCsjEFxG0ag9NF_18timekeeper_backend4docs16mfa_activate_doc
FN:281,_RNvNtCsjEFxG0ag9NF_18timekeeper_backend4docs17list_sessions_doc
FN:346,_RNvNtCsjEFxG0ag9NF_18timekeeper_backend4docs17my_attendance_doc
FN:399,_RNvNtCsjEFxG0ag9NF_18timekeeper_backend4docs18record_consent_doc
FN:290,_RNvNtCsjEFxG0ag9NF_18timekeeper_backend4docs18revoke_session_doc
FN:508,_RNvNtCsjEFxG0ag9NF_18timekeeper_backend4docs19admin_get_users_doc
FN:264,_RNvNtCsjEFxG0ag9NF_18timekeeper_backend4docs19change_password_doc
FN:382,_RNvNtCsjEFxG0ag9NF_18timekeeper_backend4docs19create_overtime_doc
FN:407,_RNvNtCsjEFxG0ag9NF_18timekeeper_backend4docs20list_my_consents_doc
FN:517,_RNvNtCsjEFxG0ag9NF_18timekeeper_backend4docs21admin_create_user_doc
FN:337,_RNvNtCsjEFxG0ag9NF_18timekeeper_backend4docs21attendance_status_doc
FN:364,_RNvNtCsjEFxG0ag9NF_18timekeeper_backend4docs21export_attendance_doc
FN:606,_RNvNtCsjEFxG0ag9NF_18timekeeper_backend4docs23admin_get_audit_log_doc
FN:544,_RNvNtCsjEFxG0ag9NF_18timekeeper_backend4docs23admin_list_holidays_doc
FN:442,_RNvNtCsjEFxG0ag9NF_18timekeeper_backend4docs23admin_list_requests_doc
FN:553,_RNvNtCsjEFxG0ag9NF_18timekeeper_backend4docs24admin_create_holiday_doc
FN:562,_RNvNtCsjEFxG0ag9NF_18timekeeper_backend4docs24admin_delete_holiday_doc
FN:471,_RNvNtCsjEFxG0ag9NF_18timekeeper_backend4docs24admin_reject_request_doc
FN:451,_RNvNtCsjEFxG0ag9NF_18timekeeper_backend4docs24admin_request_detail_doc
FN:535,_RNvNtCsjEFxG0ag9NF_18timekeeper_backend4docs24admin_revoke_session_doc
FN:461,_RNvNtCsjEFxG0ag9NF_18timekeeper_backend4docs25admin_approve_request_doc
FN:597,_RNvNtCsjEFxG0ag9NF_18timekeeper_backend4docs25admin_list_audit_logs_doc
FN:355,_RNvNtCsjEFxG0ag9NF_18timekeeper_backend4docs25my_attendance_summary_doc
FN:433,_RNvNtCsjEFxG0ag9NF_18timekeeper_backend4docs26cancel_subject_request_doc
FN:416,_RNvNtCsjEFxG0ag9NF_18timekeeper_backend4docs26create_subject_request_doc
FN:624,_RNvNtCsjEFxG0ag9NF_18timekeeper_backend4docs26system_admin_reset_mfa_doc
FN:615,_RNvNtCsjEFxG0ag9NF_18timekeeper_backend4docs27admin_export_audit_logs_doc
FN:526,_RNvNtCsjEFxG0ag9NF_18timekeeper_backend4docs28admin_list_user_sessions_doc
FN:424,_RNvNtCsjEFxG0ag9NF_18timekeeper_backend4docs28list_my_subject_requests_doc
FN:570,_RNvNtCsjEFxG0ag9NF_18timekeeper_backend4docs30admin_list_weekly_holidays_doc
FN:579,_RNvNtCsjEFxG0ag9NF_18timekeeper_backend4docs31admin_create_weekly_holiday_doc
FN:480,_RNvNtCsjEFxG0ag9NF_18timekeeper_backend4docs31admin_list_subject_requests_doc
FN:500,_RNvNtCsjEFxG0ag9NF_18timekeeper_backend4docs32admin_reject_subject_request_doc
FN:490,_RNvNtCsjEFxG0ag9NF_18timekeeper_backend4docs33admin_approve_subject_request_doc
FN:650,_RNvNtCsjEFxG0ag9NF_18timekeeper_backend4docs33admin_list_holiday_exceptions_doc
FN:637,_RNvNtCsjEFxG0ag9NF_18timekeeper_backend4docs34admin_create_holiday_exception_doc
FN:662,_RNvNtCsjEFxG0ag9NF_18timekeeper_backend4docs34admin_delete_holiday_exception_doc
FN:221,_RNvNtCsjEFxG0ag9NF_18timekeeper_backend4docs6me_doc
FN:203,_RNvNtCsjEFxG0ag9NF_18timekeeper_backend4docs9login_doc
FN:182,_RNvXNtCsjEFxG0ag9NF_18timekeeper_backend4docsNtB2_15SecuritySchemesNtCsbIbDRHCsfHB_6utoipa6Modify6modify
FN:273,_RNvNtCsiqn6J3Zmf7c_18timekeeper_backend4docs10logout_doc
FN:213,_RNvNtCsiqn6J3Zmf7c_18timekeeper_backend4docs11refresh_doc
FN:299,_RNvNtCsiqn6J3Zmf7c_18timekeeper_backend4docs12clock_in_doc
FN:326,_RNvNtCsiqn6J3Zmf7c_18timekeeper_backend4docs13break_end_doc
FN:308,_RNvNtCsiqn6J3Zmf7c_18timekeeper_backend4docs13clock_out_doc
FN:237,_RNvNtCsiqn6J3Zmf7c_18timekeeper_backend4docs13mfa_setup_doc
FN:229,_RNvNtCsiqn6J3Zmf7c_18timekeeper_backend4docs14mfa_status_doc
FN:317,_RNvNtCsiqn6J3Zmf7c_18timekeeper_backend4docs15break_start_doc
FN:255,_RNvNtCsiqn6J3Zmf7c_18timekeeper_backend4docs15mfa_disable_doc
FN:390,_RNvNtCsiqn6J3Zmf7c_18timekeeper_backend4docs15my_requests_doc
FN:588,_RNvNtCsiqn6J3Zmf7c_18timekeeper_backend4docs16admin_export_doc
FN:373,_RNvNtCsiqn6J3Zmf7c_18timekeeper_backend4docs16create_leave_doc
FN:246,_RNvNtCsiqn6J3Zmf7c_18timekeeper_backend4docs16mfa_activate_doc
FN:281,_RNvNtCsiqn6J3Zmf7c_18timekeeper_backend4docs17list_sessions_doc
FN:346,_RNvNtCsiqn6J3Zmf7c_18timekeeper_backend4docs17my_attendance_doc
FN:399,_RNvNtCsiqn6J3Zmf7c_18timekeeper_backend4docs18record_consent_doc
FN:290,_RNvNtCsiqn6J3Zmf7c_18timekeeper_backend4docs18revoke_session_doc
FN:508,_RNvNtCsiqn6J3Zmf7c_18timekeeper_backend4docs19admin_get_users_doc
FN:264,_RNvNtCsiqn6J3Zmf7c_18timekeeper_backend4docs19change_password_doc
FN:382,_RNvNtCsiqn6J3Zmf7c_18timekeeper_backend4docs19create_overtime_doc
FN:407,_RNvNtCsiqn6J3Zmf7c_18timekeeper_backend4docs20list_my_consents_doc
FN:517,_RNvNtCsiqn6J3Zmf7c_18timekeeper_backend4docs21admin_create_user_doc
FN:337,_RNvNtCsiqn6J3Zmf7c_18timekeeper_backend4docs21attendance_status_doc
FN:364,_RNvNtCsiqn6J3Zmf7c_18timekeeper_backend4docs21export_attendance_doc
FN:606,_RNvNtCsiqn6J3Zmf7c_18timekeeper_backend4docs23admin_get_audit_log_doc
FN:544,_RNvNtCsiqn6J3Zmf7c_18timekeeper_backend4docs23admin_list_holidays_doc
FN:442,_RNvNtCsiqn6J3Zmf7c_18timekeeper_backend4docs23admin_list_requests_doc
FN:553,_RNvNtCsiqn6J3Zmf7c_18timekeeper_backend4docs24admin_create_holiday_doc
FN:562,_RNvNtCsiqn6J3Zmf7c_18timekeeper_backend4docs24admin_delete_holiday_doc
FN:471,_RNvNtCsiqn6J3Zmf7c_18timekeeper_backend4docs24admin_reject_request_doc
FN:451,_RNvNtCsiqn6J3Zmf7c_18timekeeper_backend4docs24admin_request_detail_doc
FN:535,_RNvNtCsiqn6J3Zmf7c_18timekeeper_backend4docs24admin_revoke_session_doc
FN:461,_RNvNtCsiqn6J3Zmf7c_18timekeeper_backend4docs25admin_approve_request_doc
FN:597,_RNvNtCsiqn6J3Zmf7c_18timekeeper_backend4docs25admin_list_audit_logs_doc
FN:355,_RNvNtCsiqn6J3Zmf7c_18timekeeper_backend4docs25my_attendance_summary_doc
FN:433,_RNvNtCsiqn6J3Zmf7c_18timekeeper_backend4docs26cancel_subject_request_doc
FN:416,_RNvNtCsiqn6J3Zmf7c_18timekeeper_backend4docs26create_subject_request_doc
FN:624,_RNvNtCsiqn6J3Zmf7c_18timekeeper_backend4docs26system_admin_reset_mfa_doc
FN:615,_RNvNtCsiqn6J3Zmf7c_18timekeeper_backend4docs27admin_export_audit_logs_doc
FN:526,_RNvNtCsiqn6J3Zmf7c_18timekeeper_backend4docs28admin_list_user_sessions_doc
FN:424,_RNvNtCsiqn6J3Zmf7c_18timekeeper_backend4docs28list_my_subject_requests_doc
FN:570,_RNvNtCsiqn6J3Zmf7c_18timekeeper_backend4docs30admin_list_weekly_holidays_doc
FN:579,_RNvNtCsiqn6J3Zmf7c_18timekeeper_backend4docs31admin_create_weekly_holiday_doc
FN:480,_RNvNtCsiqn6J3Zmf7c_18timekeeper_backend4docs31admin_list_subject_requests_doc
FN:500,_RNvNtCsiqn6J3Zmf7c_18timekeeper_backend4docs32admin_reject_subject_request_doc
FN:490,_RNvNtCsiqn6J3Zmf7c_18timekeeper_backend4docs33admin_approve_subject_request_doc
FN:650,_RNvNtCsiqn6J3Zmf7c_18timekeeper_backend4docs33admin_list_holiday_exceptions_doc
FN:637,_RNvNtCsiqn6J3Zmf7c_18timekeeper_backend4docs34admin_create_holiday_exception_doc
FN:662,_RNvNtCsiqn6J3Zmf7c_18timekeeper_backend4docs34admin_delete_holiday_exception_doc
FN:221,_RNvNtCsiqn6J3Zmf7c_18timekeeper_backend4docs6me_doc
FN:203,_RNvNtCsiqn6J3Zmf7c_18timekeeper_backend4docs9login_doc
FN:182,_RNvXNtCsiqn6J3Zmf7c_18timekeeper_backend4docsNtB2_15SecuritySchemesNtCsbIbDRHCsfHB_6utoipa6Modify6modify
FN:273,_RNvNtCs86yVScfUyun_18timekeeper_backend4docs10logout_doc
FN:213,_RNvNtCs86yVScfUyun_18timekeeper_backend4docs11refresh_doc
FN:299,_RNvNtCs86yVScfUyun_18timekeeper_backend4docs12clock_in_doc
FN:326,_RNvNtCs86yVScfUyun_18timekeeper_backend4docs13break_end_doc
FN:308,_RNvNtCs86yVScfUyun_18timekeeper_backend4docs13clock_out_doc
FN:237,_RNvNtCs86yVScfUyun_18timekeeper_backend4docs13mfa_setup_doc
FN:229,_RNvNtCs86yVScfUyun_18timekeeper_backend4docs14mfa_status_doc
FN:317,_RNvNtCs86yVScfUyun_18timekeeper_backend4docs15break_start_doc
FN:255,_RNvNtCs86yVScfUyun_18timekeeper_backend4docs15mfa_disable_doc
FN:390,_RNvNtCs86yVScfUyun_18timekeeper_backend4docs15my_requests_doc
FN:588,_RNvNtCs86yVScfUyun_18timekeeper_backend4docs16admin_export_doc
FN:373,_RNvNtCs86yVScfUyun_18timekeeper_backend4docs16create_leave_doc
FN:246,_RNvNtCs86yVScfUyun_18timekeeper_backend4docs16mfa_activate_doc
FN:281,_RNvNtCs86yVScfUyun_18timekeeper_backend4docs17list_sessions_doc
FN:346,_RNvNtCs86yVScfUyun_18timekeeper_backend4docs17my_attendance_doc
FN:399,_RNvNtCs86yVScfUyun_18timekeeper_backend4docs18record_consent_doc
FN:290,_RNvNtCs86yVScfUyun_18timekeeper_backend4docs18revoke_session_doc
FN:508,_RNvNtCs86yVScfUyun_18timekeeper_backend4docs19admin_get_users_doc
FN:264,_RNvNtCs86yVScfUyun_18timekeeper_backend4docs19change_password_doc
FN:382,_RNvNtCs86yVScfUyun_18timekeeper_backend4docs19create_overtime_doc
FN:407,_RNvNtCs86yVScfUyun_18timekeeper_backend4docs20list_my_consents_doc
FN:517,_RNvNtCs86yVScfUyun_18timekeeper_backend4docs21admin_create_user_doc
FN:337,_RNvNtCs86yVScfUyun_18timekeeper_backend4docs21attendance_status_doc
FN:364,_RNvNtCs86yVScfUyun_18timekeeper_backend4docs21export_attendance_doc
FN:606,_RNvNtCs86yVScfUyun_18timekeeper_backend4docs23admin_get_audit_log_doc
FN:544,_RNvNtCs86yVScfUyun_18timekeeper_backend4docs23admin_list_holidays_doc
FN:442,_RNvNtCs86yVScfUyun_18timekeeper_backend4docs23admin_list_requests_doc
FN:553,_RNvNtCs86yVScfUyun_18timekeeper_backend4docs24admin_create_holiday_doc
FN:562,_RNvNtCs86yVScfUyun_18timekeeper_backend4docs24admin_delete_holiday_doc
FN:471,_RNvNtCs86yVScfUyun_18timekeeper_backend4docs24admin_reject_request_doc
FN:451,_RNvNtCs86yVScfUyun_18timekeeper_backend4docs24admin_request_detail_doc
FN:535,_RNvNtCs86yVScfUyun_18timekeeper_backend4docs24admin_revoke_session_doc
FN:461,_RNvNtCs86yVScfUyun_18timekeeper_backend4docs25admin_approve_request_doc
FN:597,_RNvNtCs86yVScfUyun_18timekeeper_backend4docs25admin_list_audit_logs_doc
FN:355,_RNvNtCs86yVScfUyun_18timekeeper_backend4docs25my_attendance_summary_doc
FN:433,_RNvNtCs86yVScfUyun_18timekeeper_backend4docs26cancel_subject_request_doc
FN:416,_RNvNtCs86yVScfUyun_18timekeeper_backend4docs26create_subject_request_doc
FN:624,_RNvNtCs86yVScfUyun_18timekeeper_backend4docs26system_admin_reset_mfa_doc
FN:615,_RNvNtCs86yVScfUyun_18timekeeper_backend4docs27admin_export_audit_logs_doc
FN:526,_RNvNtCs86yVScfUyun_18timekeeper_backend4docs28admin_list_user_sessions_doc
FN:424,_RNvNtCs86yVScfUyun_18timekeeper_backend4docs28list_my_subject_requests_doc
FN:570,_RNvNtCs86yVScfUyun_18timekeeper_backend4docs30admin_list_weekly_holidays_doc
FN:579,_RNvNtCs86yVScfUyun_18timekeeper_backend4docs31admin_create_weekly_holiday_doc
FN:480,_RNvNtCs86yVScfUyun_18timekeeper_backend4docs31admin_list_subject_requests_doc
FN:500,_RNvNtCs86yVScfUyun_18timekeeper_backend4docs32admin_reject_subject_request_doc
FN:490,_RNvNtCs86yVScfUyun_18timekeeper_backend4docs33admin_approve_subject_request_doc
FN:650,_RNvNtCs86yVScfUyun_18timekeeper_backend4docs33admin_list_holiday_exceptions_doc
FN:637,_RNvNtCs86yVScfUyun_18timekeeper_backend4docs34admin_create_holiday_exception_doc
FN:662,_RNvNtCs86yVScfUyun_18timekeeper_backend4docs34admin_delete_holiday_exception_doc
FN:221,_RNvNtCs86yVScfUyun_18timekeeper_backend4docs6me_doc
FN:203,_RNvNtCs86yVScfUyun_18timekeeper_backend4docs9login_doc
FN:182,_RNvXNtCs86yVScfUyun_18timekeeper_backend4docsNtB2_15SecuritySchemesNtCsbIbDRHCsfHB_6utoipa6Modify6modify
FNDA:0,_RNvNtCs2oPl7zguF9n_18timekeeper_backend4docs10logout_doc
FNDA:0,_RNvNtCs2oPl7zguF9n_18timekeeper_backend4docs11refresh_doc
FNDA:0,_RNvNtCs2oPl7zguF9n_18timekeeper_backend4docs12clock_in_doc
FNDA:0,_RNvNtCs2oPl7zguF9n_18timekeeper_backend4docs13break_end_doc
FNDA:0,_RNvNtCs2oPl7zguF9n_18timekeeper_backend4docs13clock_out_doc
FNDA:0,_RNvNtCs2oPl7zguF9n_18timekeeper_backend4docs13mfa_setup_doc
FNDA:0,_RNvNtCs2oPl7zguF9n_18timekeeper_backend4docs14mfa_status_doc
FNDA:0,_RNvNtCs2oPl7zguF9n_18timekeeper_backend4docs15break_start_doc
FNDA:0,_RNvNtCs2oPl7zguF9n_18timekeeper_backend4docs15mfa_disable_doc
FNDA:0,_RNvNtCs2oPl7zguF9n_18timekeeper_backend4docs15my_requests_doc
FNDA:0,_RNvNtCs2oPl7zguF9n_18timekeeper_backend4docs16admin_export_doc
FNDA:0,_RNvNtCs2oPl7zguF9n_18timekeeper_backend4docs16create_leave_doc
FNDA:0,_RNvNtCs2oPl7zguF9n_18timekeeper_backend4docs16mfa_activate_doc
FNDA:0,_RNvNtCs2oPl7zguF9n_18timekeeper_backend4docs17list_sessions_doc
FNDA:0,_RNvNtCs2oPl7zguF9n_18timekeeper_backend4docs17my_attendance_doc
FNDA:0,_RNvNtCs2oPl7zguF9n_18timekeeper_backend4docs18record_consent_doc
FNDA:0,_RNvNtCs2oPl7zguF9n_18timekeeper_backend4docs18revoke_session_doc
FNDA:0,_RNvNtCs2oPl7zguF9n_18timekeeper_backend4docs19admin_get_users_doc
FNDA:0,_RNvNtCs2oPl7zguF9n_18timekeeper_backend4docs19change_password_doc
FNDA:0,_RNvNtCs2oPl7zguF9n_18timekeeper_backend4docs19create_overtime_doc
FNDA:0,_RNvNtCs2oPl7zguF9n_18timekeeper_backend4docs20list_my_consents_doc
FNDA:0,_RNvNtCs2oPl7zguF9n_18timekeeper_backend4docs21admin_create_user_doc
FNDA:0,_RNvNtCs2oPl7zguF9n_18timekeeper_backend4docs21attendance_status_doc
FNDA:0,_RNvNtCs2oPl7zguF9n_18timekeeper_backend4docs21export_attendance_doc
FNDA:0,_RNvNtCs2oPl7zguF9n_18timekeeper_backend4docs23admin_get_audit_log_doc
FNDA:0,_RNvNtCs2oPl7zguF9n_18timekeeper_backend4docs23admin_list_holidays_doc
FNDA:0,_RNvNtCs2oPl7zguF9n_18timekeeper_backend4docs23admin_list_requests_doc
FNDA:0,_RNvNtCs2oPl7zguF9n_18timekeeper_backend4docs24admin_create_holiday_doc
FNDA:0,_RNvNtCs2oPl7zguF9n_18timekeeper_backend4docs24admin_delete_holiday_doc
FNDA:0,_RNvNtCs2oPl7zguF9n_18timekeeper_backend4docs24admin_reject_request_doc
FNDA:0,_RNvNtCs2oPl7zguF9n_18timekeeper_backend4docs24admin_request_detail_doc
FNDA:0,_RNvNtCs2oPl7zguF9n_18timekeeper_backend4docs24admin_revoke_session_doc
FNDA:0,_RNvNtCs2oPl7zguF9n_18timekeeper_backend4docs25admin_approve_request_doc
FNDA:0,_RNvNtCs2oPl7zguF9n_18timekeeper_backend4docs25admin_list_audit_logs_doc
FNDA:0,_RNvNtCs2oPl7zguF9n_18timekeeper_backend4docs25my_attendance_summary_doc
FNDA:0,_RNvNtCs2oPl7zguF9n_18timekeeper_backend4docs26cancel_subject_request_doc
FNDA:0,_RNvNtCs2oPl7zguF9n_18timekeeper_backend4docs26create_subject_request_doc
FNDA:0,_RNvNtCs2oPl7zguF9n_18timekeeper_backend4docs26system_admin_reset_mfa_doc
FNDA:0,_RNvNtCs2oPl7zguF9n_18timekeeper_backend4docs27admin_export_audit_logs_doc
FNDA:0,_RNvNtCs2oPl7zguF9n_18timekeeper_backend4docs28admin_list_user_sessions_doc
FNDA:0,_RNvNtCs2oPl7zguF9n_18timekeeper_backend4docs28list_my_subject_requests_doc
FNDA:0,_RNvNtCs2oPl7zguF9n_18timekeeper_backend4docs30admin_list_weekly_holidays_doc
FNDA:0,_RNvNtCs2oPl7zguF9n_18timekeeper_backend4docs31admin_create_weekly_holiday_doc
FNDA:0,_RNvNtCs2oPl7zguF9n_18timekeeper_backend4docs31admin_list_subject_requests_doc
FNDA:0,_RNvNtCs2oPl7zguF9n_18timekeeper_backend4docs32admin_reject_subject_request_doc
FNDA:0,_RNvNtCs2oPl7zguF9n_18timekeeper_backend4docs33admin_approve_subject_request_doc
FNDA:0,_RNvNtCs2oPl7zguF9n_18timekeeper_backend4docs33admin_list_holiday_exceptions_doc
FNDA:0,_RNvNtCs2oPl7zguF9n_18timekeeper_backend4docs34admin_create_holiday_exception_doc
FNDA:0,_RNvNtCs2oPl7zguF9n_18timekeeper_backend4docs34admin_delete_holiday_exception_doc
FNDA:0,_RNvNtCs2oPl7zguF9n_18timekeeper_backend4docs6me_doc
FNDA:0,_RNvNtCs2oPl7zguF9n_18timekeeper_backend4docs9login_doc
FNDA:3,_RNvXNtCs2oPl7zguF9n_18timekeeper_backend4docsNtB2_15SecuritySchemesNtCsbIbDRHCsfHB_6utoipa6Modify6modify
FNDA:0,_RNvNtCsjEFxG0ag9NF_18timekeeper_backend4docs10logout_doc
FNDA:0,_RNvNtCsjEFxG0ag9NF_18timekeeper_backend4docs11refresh_doc
FNDA:0,_RNvNtCsjEFxG0ag9NF_18timekeeper_backend4docs12clock_in_doc
FNDA:0,_RNvNtCsjEFxG0ag9NF_18timekeeper_backend4docs13break_end_doc
FNDA:0,_RNvNtCsjEFxG0ag9NF_18timekeeper_backend4docs13clock_out_doc
FNDA:0,_RNvNtCsjEFxG0ag9NF_18timekeeper_backend4docs13mfa_setup_doc
FNDA:0,_RNvNtCsjEFxG0ag9NF_18timekeeper_backend4docs14mfa_status_doc
FNDA:0,_RNvNtCsjEFxG0ag9NF_18timekeeper_backend4docs15break_start_doc
FNDA:0,_RNvNtCsjEFxG0ag9NF_18timekeeper_backend4docs15mfa_disable_doc
FNDA:0,_RNvNtCsjEFxG0ag9NF_18timekeeper_backend4docs15my_requests_doc
FNDA:0,_RNvNtCsjEFxG0ag9NF_18timekeeper_backend4docs16admin_export_doc
FNDA:0,_RNvNtCsjEFxG0ag9NF_18timekeeper_backend4docs16create_leave_doc
FNDA:0,_RNvNtCsjEFxG0ag9NF_18timekeeper_backend4docs16mfa_activate_doc
FNDA:0,_RNvNtCsjEFxG0ag9NF_18timekeeper_backend4docs17list_sessions_doc
FNDA:0,_RNvNtCsjEFxG0ag9NF_18timekeeper_backend4docs17my_attendance_doc
FNDA:0,_RNvNtCsjEFxG0ag9NF_18timekeeper_backend4docs18record_consent_doc
FNDA:0,_RNvNtCsjEFxG0ag9NF_18timekeeper_backend4docs18revoke_session_doc
FNDA:0,_RNvNtCsjEFxG0ag9NF_18timekeeper_backend4docs19admin_get_users_doc
FNDA:0,_RNvNtCsjEFxG0ag9NF_18timekeeper_backend4docs19change_password_doc
FNDA:0,_RNvNtCsjEFxG0ag9NF_18timekeeper_backend4docs19create_overtime_doc
FNDA:0,_RNvNtCsjEFxG0ag9NF_18timekeeper_backend4docs20list_my_consents_doc
FNDA:0,_RNvNtCsjEFxG0ag9NF_18timekeeper_backend4docs21admin_create_user_doc
FNDA:0,_RNvNtCsjEFxG0ag9NF_18timekeeper_backend4docs21attendance_status_doc
FNDA:0,_RNvNtCsjEFxG0ag9NF_18timekeeper_backend4docs21export_attendance_doc
FNDA:0,_RNvNtCsjEFxG0ag9NF_18timekeeper_backend4docs23admin_get_audit_log_doc
FNDA:0,_RNvNtCsjEFxG0ag9NF_18timekeeper_backend4docs23admin_list_holidays_doc
FNDA:0,_RNvNtCsjEFxG0ag9NF_18timekeeper_backend4docs23admin_list_requests_doc
FNDA:0,_RNvNtCsjEFxG0ag9NF_18timekeeper_backend4docs24admin_create_holiday_doc
FNDA:0,_RNvNtCsjEFxG0ag9NF_18timekeeper_backend4docs24admin_delete_holiday_doc
FNDA:0,_RNvNtCsjEFxG0ag9NF_18timekeeper_backend4docs24admin_reject_request_doc
FNDA:0,_RNvNtCsjEFxG0ag9NF_18timekeeper_backend4docs24admin_request_detail_doc
FNDA:0,_RNvNtCsjEFxG0ag9NF_18timekeeper_backend4docs24admin_revoke_session_doc
FNDA:0,_RNvNtCsjEFxG0ag9NF_18timekeeper_backend4docs25admin_approve_request_doc
FNDA:0,_RNvNtCsjEFxG0ag9NF_18timekeeper_backend4docs25admin_list_audit_logs_doc
FNDA:0,_RNvNtCsjEFxG0ag9NF_18timekeeper_backend4docs25my_attendance_summary_doc
FNDA:0,_RNvNtCsjEFxG0ag9NF_18timekeeper_backend4docs26cancel_subject_request_doc
FNDA:0,_RNvNtCsjEFxG0ag9NF_18timekeeper_backend4docs26create_subject_request_doc
FNDA:0,_RNvNtCsjEFxG0ag9NF_18timekeeper_backend4docs26system_admin_reset_mfa_doc
FNDA:0,_RNvNtCsjEFxG0ag9NF_18timekeeper_backend4docs27admin_export_audit_logs_doc
FNDA:0,_RNvNtCsjEFxG0ag9NF_18timekeeper_backend4docs28admin_list_user_sessions_doc
FNDA:0,_RNvNtCsjEFxG0ag9NF_18timekeeper_backend4docs28list_my_subject_requests_doc
FNDA:0,_RNvNtCsjEFxG0ag9NF_18timekeeper_backend4docs30admin_list_weekly_holidays_doc
FNDA:0,_RNvNtCsjEFxG0ag9NF_18timekeeper_backend4docs31admin_create_weekly_holiday_doc
FNDA:0,_RNvNtCsjEFxG0ag9NF_18timekeeper_backend4docs31admin_list_subject_requests_doc
FNDA:0,_RNvNtCsjEFxG0ag9NF_18timekeeper_backend4docs32admin_reject_subject_request_doc
FNDA:0,_RNvNtCsjEFxG0ag9NF_18timekeeper_backend4docs33admin_approve_subject_request_doc
FNDA:0,_RNvNtCsjEFxG0ag9NF_18timekeeper_backend4docs33admin_list_holiday_exceptions_doc
FNDA:0,_RNvNtCsjEFxG0ag9NF_18timekeeper_backend4docs34admin_create_holiday_exception_doc
FNDA:0,_RNvNtCsjEFxG0ag9NF_18timekeeper_backend4docs34admin_delete_holiday_exception_doc
FNDA:0,_RNvNtCsjEFxG0ag9NF_18timekeeper_backend4docs6me_doc
FNDA:0,_RNvNtCsjEFxG0ag9NF_18timekeeper_backend4docs9login_doc
FNDA:0,_RNvXNtCsjEFxG0ag9NF_18timekeeper_backend4docsNtB2_15SecuritySchemesNtCsbIbDRHCsfHB_6utoipa6Modify6modify
FNDA:0,_RNvNtCsiqn6J3Zmf7c_18timekeeper_backend4docs10logout_doc
FNDA:0,_RNvNtCsiqn6J3Zmf7c_18timekeeper_backend4docs11refresh_doc
FNDA:0,_RNvNtCsiqn6J3Zmf7c_18timekeeper_backend4docs12clock_in_doc
FNDA:0,_RNvNtCsiqn6J3Zmf7c_18timekeeper_backend4docs13break_end_doc
FNDA:0,_RNvNtCsiqn6J3Zmf7c_18timekeeper_backend4docs13clock_out_doc
FNDA:0,_RNvNtCsiqn6J3Zmf7c_18timekeeper_backend4docs13mfa_setup_doc
FNDA:0,_RNvNtCsiqn6J3Zmf7c_18timekeeper_backend4docs14mfa_status_doc
FNDA:0,_RNvNtCsiqn6J3Zmf7c_18timekeeper_backend4docs15break_start_doc
FNDA:0,_RNvNtCsiqn6J3Zmf7c_18timekeeper_backend4docs15mfa_disable_doc
FNDA:0,_RNvNtCsiqn6J3Zmf7c_18timekeeper_backend4docs15my_requests_doc
FNDA:0,_RNvNtCsiqn6J3Zmf7c_18timekeeper_backend4docs16admin_export_doc
FNDA:0,_RNvNtCsiqn6J3Zmf7c_18timekeeper_backend4docs16create_leave_doc
FNDA:0,_RNvNtCsiqn6J3Zmf7c_18timekeeper_backend4docs16mfa_activate_doc
FNDA:0,_RNvNtCsiqn6J3Zmf7c_18timekeeper_backend4docs17list_sessions_doc
FNDA:0,_RNvNtCsiqn6J3Zmf7c_18timekeeper_backend4docs17my_attendance_doc
FNDA:0,_RNvNtCsiqn6J3Zmf7c_18timekeeper_backend4docs18record_consent_doc
FNDA:0,_RNvNtCsiqn6J3Zmf7c_18timekeeper_backend4docs18revoke_session_doc
FNDA:0,_RNvNtCsiqn6J3Zmf7c_18timekeeper_backend4docs19admin_get_users_doc
FNDA:0,_RNvNtCsiqn6J3Zmf7c_18timekeeper_backend4docs19change_password_doc
FNDA:0,_RNvNtCsiqn6J3Zmf7c_18timekeeper_backend4docs19create_overtime_doc
FNDA:0,_RNvNtCsiqn6J3Zmf7c_18timekeeper_backend4docs20list_my_consents_doc
FNDA:0,_RNvNtCsiqn6J3Zmf7c_18timekeeper_backend4docs21admin_create_user_doc
FNDA:0,_RNvNtCsiqn6J3Zmf7c_18timekeeper_backend4docs21attendance_status_doc
FNDA:0,_RNvNtCsiqn6J3Zmf7c_18timekeeper_backend4docs21export_attendance_doc
FNDA:0,_RNvNtCsiqn6J3Zmf7c_18timekeeper_backend4docs23admin_get_audit_log_doc
FNDA:0,_RNvNtCsiqn6J3Zmf7c_18timekeeper_backend4docs23admin_list_holidays_doc
FNDA:0,_RNvNtCsiqn6J3Zmf7c_18timekeeper_backend4docs23admin_list_requests_doc
FNDA:0,_RNvNtCsiqn6J3Zmf7c_18timekeeper_backend4docs24admin_create_holiday_doc
FNDA:0,_RNvNtCsiqn6J3Zmf7c_18timekeeper_backend4docs24admin_delete_holiday_doc
FNDA:0,_RNvNtCsiqn6J3Zmf7c_18timekeeper_backend4docs24admin_reject_request_doc
FNDA:0,_RNvNtCsiqn6J3Zmf7c_18timekeeper_backend4docs24admin_request_detail_doc
FNDA:0,_RNvNtCsiqn6J3Zmf7c_18timekeeper_backend4docs24admin_revoke_session_doc
FNDA:0,_RNvNtCsiqn6J3Zmf7c_18timekeeper_backend4docs25admin_approve_request_doc
FNDA:0,_RNvNtCsiqn6J3Zmf7c_18timekeeper_backend4docs25admin_list_audit_logs_doc
FNDA:0,_RNvNtCsiqn6J3Zmf7c_18timekeeper_backend4docs25my_attendance_summary_doc
FNDA:0,_RNvNtCsiqn6J3Zmf7c_18timekeeper_backend4docs26cancel_subject_request_doc
FNDA:0,_RNvNtCsiqn6J3Zmf7c_18timekeeper_backend4docs26create_subject_request_doc
FNDA:0,_RNvNtCsiqn6J3Zmf7c_18timekeeper_backend4docs26system_admin_reset_mfa_doc
FNDA:0,_RNvNtCsiqn6J3Zmf7c_18timekeeper_backend4docs27admin_export_audit_logs_doc
FNDA:0,_RNvNtCsiqn6J3Zmf7c_18timekeeper_backend4docs28admin_list_user_sessions_doc
FNDA:0,_RNvNtCsiqn6J3Zmf7c_18timekeeper_backend4docs28list_my_subject_requests_doc
FNDA:0,_RNvNtCsiqn6J3Zmf7c_18timekeeper_backend4docs30admin_list_weekly_holidays_doc
FNDA:0,_RNvNtCsiqn6J3Zmf7c_18timekeeper_backend4docs31admin_create_weekly_holiday_doc
FNDA:0,_RNvNtCsiqn6J3Zmf7c_18timekeeper_backend4docs31admin_list_subject_requests_doc
FNDA:0,_RNvNtCsiqn6J3Zmf7c_18timekeeper_backend4docs32admin_reject_subject_request_doc
FNDA:0,_RNvNtCsiqn6J3Zmf7c_18timekeeper_backend4docs33admin_approve_subject_request_doc
FNDA:0,_RNvNtCsiqn6J3Zmf7c_18timekeeper_backend4docs33admin_list_holiday_exceptions_doc
FNDA:0,_RNvNtCsiqn6J3Zmf7c_18timekeeper_backend4docs34admin_create_holiday_exception_doc
FNDA:0,_RNvNtCsiqn6J3Zmf7c_18timekeeper_backend4docs34admin_delete_holiday_exception_doc
FNDA:0,_RNvNtCsiqn6J3Zmf7c_18timekeeper_backend4docs6me_doc
FNDA:0,_RNvNtCsiqn6J3Zmf7c_18timekeeper_backend4docs9login_doc
FNDA:0,_RNvXNtCsiqn6J3Zmf7c_18timekeeper_backend4docsNtB2_15SecuritySchemesNtCsbIbDRHCsfHB_6utoipa6Modify6modify
FNDA:0,_RNvNtCs86yVScfUyun_18timekeeper_backend4docs10logout_doc
FNDA:0,_RNvNtCs86yVScfUyun_18timekeeper_backend4docs11refresh_doc
FNDA:0,_RNvNtCs86yVScfUyun_18timekeeper_backend4docs12clock_in_doc
FNDA:0,_RNvNtCs86yVScfUyun_18timekeeper_backend4docs13break_end_doc
FNDA:0,_RNvNtCs86yVScfUyun_18timekeeper_backend4docs13clock_out_doc
FNDA:0,_RNvNtCs86yVScfUyun_18timekeeper_backend4docs13mfa_setup_doc
FNDA:0,_RNvNtCs86yVScfUyun_18timekeeper_backend4docs14mfa_status_doc
FNDA:0,_RNvNtCs86yVScfUyun_18timekeeper_backend4docs15break_start_doc
FNDA:0,_RNvNtCs86yVScfUyun_18timekeeper_backend4docs15mfa_disable_doc
FNDA:0,_RNvNtCs86yVScfUyun_18timekeeper_backend4docs15my_requests_doc
FNDA:0,_RNvNtCs86yVScfUyun_18timekeeper_backend4docs16admin_export_doc
FNDA:0,_RNvNtCs86yVScfUyun_18timekeeper_backend4docs16create_leave_doc
FNDA:0,_RNvNtCs86yVScfUyun_18timekeeper_backend4docs16mfa_activate_doc
FNDA:0,_RNvNtCs86yVScfUyun_18timekeeper_backend4docs17list_sessions_doc
FNDA:0,_RNvNtCs86yVScfUyun_18timekeeper_backend4docs17my_attendance_doc
FNDA:0,_RNvNtCs86yVScfUyun_18timekeeper_backend4docs18record_consent_doc
FNDA:0,_RNvNtCs86yVScfUyun_18timekeeper_backend4docs18revoke_session_doc
FNDA:0,_RNvNtCs86yVScfUyun_18timekeeper_backend4docs19admin_get_users_doc
FNDA:0,_RNvNtCs86yVScfUyun_18timekeeper_backend4docs19change_password_doc
FNDA:0,_RNvNtCs86yVScfUyun_18timekeeper_backend4docs19create_overtime_doc
FNDA:0,_RNvNtCs86yVScfUyun_18timekeeper_backend4docs20list_my_consents_doc
FNDA:0,_RNvNtCs86yVScfUyun_18timekeeper_backend4docs21admin_create_user_doc
FNDA:0,_RNvNtCs86yVScfUyun_18timekeeper_backend4docs21attendance_status_doc
FNDA:0,_RNvNtCs86yVScfUyun_18timekeeper_backend4docs21export_attendance_doc
FNDA:0,_RNvNtCs86yVScfUyun_18timekeeper_backend4docs23admin_get_audit_log_doc
FNDA:0,_RNvNtCs86yVScfUyun_18timekeeper_backend4docs23admin_list_holidays_doc
FNDA:0,_RNvNtCs86yVScfUyun_18timekeeper_backend4docs23admin_list_requests_doc
FNDA:0,_RNvNtCs86yVScfUyun_18timekeeper_backend4docs24admin_create_holiday_doc
FNDA:0,_RNvNtCs86yVScfUyun_18timekeeper_backend4docs24admin_delete_holiday_doc
FNDA:0,_RNvNtCs86yVScfUyun_18timekeeper_backend4docs24admin_reject_request_doc
FNDA:0,_RNvNtCs86yVScfUyun_18timekeeper_backend4docs24admin_request_detail_doc
FNDA:0,_RNvNtCs86yVScfUyun_18timekeeper_backend4docs24admin_revoke_session_doc
FNDA:0,_RNvNtCs86yVScfUyun_18timekeeper_backend4docs25admin_approve_request_doc
FNDA:0,_RNvNtCs86yVScfUyun_18timekeeper_backend4docs25admin_list_audit_logs_doc
FNDA:0,_RNvNtCs86yVScfUyun_18timekeeper_backend4docs25my_attendance_summary_doc
FNDA:0,_RNvNtCs86yVScfUyun_18timekeeper_backend4docs26cancel_subject_request_doc
FNDA:0,_RNvNtCs86yVScfUyun_18timekeeper_backend4docs26create_subject_request_doc
FNDA:0,_RNvNtCs86yVScfUyun_18timekeeper_backend4docs26system_admin_reset_mfa_doc
FNDA:0,_RNvNtCs86yVScfUyun_18timekeeper_backend4docs27admin_export_audit_logs_doc
FNDA:0,_RNvNtCs86yVScfUyun_18timekeeper_backend4docs28admin_list_user_sessions_doc
FNDA:0,_RNvNtCs86yVScfUyun_18timekeeper_backend4docs28list_my_subject_requests_doc
FNDA:0,_RNvNtCs86yVScfUyun_18timekeeper_backend4docs30admin_list_weekly_holidays_doc
FNDA:0,_RNvNtCs86yVScfUyun_18timekeeper_backend4docs31admin_create_weekly_holiday_doc
FNDA:0,_RNvNtCs86yVScfUyun_18timekeeper_backend4docs31admin_list_subject_requests_doc
FNDA:0,_RNvNtCs86yVScfUyun_18timekeeper_backend4docs32admin_reject_subject_request_doc
FNDA:0,_RNvNtCs86yVScfUyun_18timekeeper_backend4docs33admin_approve_subject_request_doc
FNDA:0,_RNvNtCs86yVScfUyun_18timekeeper_backend4docs33admin_list_holiday_exceptions_doc
FNDA:0,_RNvNtCs86yVScfUyun_18timekeeper_backend4docs34admin_create_holiday_exception_doc
FNDA:0,_RNvNtCs86yVScfUyun_18timekeeper_backend4docs34admin_delete_holiday_exception_doc
FNDA:0,_RNvNtCs86yVScfUyun_18timekeeper_backend4docs6me_doc
FNDA:0,_RNvNtCs86yVScfUyun_18timekeeper_backend4docs9login_doc
FNDA:0,_RNvXNtCs86yVScfUyun_18timekeeper_backend4docsNtB2_15SecuritySchemesNtCsbIbDRHCsfHB_6utoipa6Modify6modify
FNF:52
FNH:1
DA:182,3
DA:183,3
DA:185,3
DA:186,3
DA:188,3
DA:189,3
DA:203,0
DA:213,0
DA:221,0
DA:229,0
DA:237,0
DA:246,0
DA:255,0
DA:264,0
DA:273,0
DA:281,0
DA:290,0
DA:299,0
DA:308,0
DA:317,0
DA:326,0
DA:337,0
DA:346,0
DA:355,0
DA:364,0
DA:373,0
DA:382,0
DA:390,0
DA:399,0
DA:407,0
DA:416,0
DA:424,0
DA:433,0
DA:442,0
DA:451,0
DA:461,0
DA:471,0
DA:480,0
DA:490,0
DA:500,0
DA:508,0
DA:517,0
DA:526,0
DA:535,0
DA:544,0
DA:553,0
DA:562,0
DA:570,0
DA:579,0
DA:588,0
DA:597,0
DA:606,0
DA:615,0
DA:624,0
DA:637,0
DA:650,0
DA:662,0
BRF:0
BRH:0
LF:57
LH:6
end_of_record
SF:/home/marra/projects/timekeeper/backend/src/error/mod.rs
FN:94,_RNCNCNvXs1_NtCs2oPl7zguF9n_18timekeeper_backend5errorNtB9_8AppErrorINtNtCslH02haMvknO_4core7convert4FromNtNtCs750dlybBgq4_9validator5types16ValidationErrorsE4from00Bb_
FN:93,_RNCNvXs1_NtCs2oPl7zguF9n_18timekeeper_backend5errorNtB7_8AppErrorINtNtCslH02haMvknO_4core7convert4FromNtNtCs750dlybBgq4_9validator5types16ValidationErrorsE4from0B9_
FN:29,_RNvXNtCs2oPl7zguF9n_18timekeeper_backend5errorNtB2_8AppErrorNtNtNtCsLr94lOfCqh_9axum_core8response13into_response12IntoResponse13into_response
FN:80,_RNvXs0_NtCs2oPl7zguF9n_18timekeeper_backend5errorNtB5_8AppErrorINtNtCslH02haMvknO_4core7convert4FromNtNtCs5clRJchDb2G_9sqlx_core5error5ErrorE4from
FN:89,_RNvXs1_NtCs2oPl7zguF9n_18timekeeper_backend5errorNtB5_8AppErrorINtNtCslH02haMvknO_4core7convert4FromNtNtCs750dlybBgq4_9validator5types16ValidationErrorsE4from
FN:74,_RNvXs_NtCs2oPl7zguF9n_18timekeeper_backend5errorNtB4_8AppErrorINtNtCslH02haMvknO_4core7convert4FromNtCs6oqSscmUHfi_6anyhow5ErrorE4from
FN:74,_RNvXs_NtCsjEFxG0ag9NF_18timekeeper_backend5errorNtB4_8AppErrorINtNtCslH02haMvknO_4core7convert4FromNtCs6oqSscmUHfi_6anyhow5ErrorE4from
FN:94,_RNCNCNvXs1_NtCsjEFxG0ag9NF_18timekeeper_backend5errorNtB9_8AppErrorINtNtCslH02haMvknO_4core7convert4FromNtNtCs750dlybBgq4_9validator5types16ValidationErrorsE4from00Bb_
FN:93,_RNCNvXs1_NtCsjEFxG0ag9NF_18timekeeper_backend5errorNtB7_8AppErrorINtNtCslH02haMvknO_4core7convert4FromNtNtCs750dlybBgq4_9validator5types16ValidationErrorsE4from0B9_
FN:29,_RNvXNtCsjEFxG0ag9NF_18timekeeper_backend5errorNtB2_8AppErrorNtNtNtCsLr94lOfCqh_9axum_core8response13into_response12IntoResponse13into_response
FN:80,_RNvXs0_NtCsjEFxG0ag9NF_18timekeeper_backend5errorNtB5_8AppErrorINtNtCslH02haMvknO_4core7convert4FromNtNtCs5clRJchDb2G_9sqlx_core5error5ErrorE4from
FN:89,_RNvXs1_NtCsjEFxG0ag9NF_18timekeeper_backend5errorNtB5_8AppErrorINtNtCslH02haMvknO_4core7convert4FromNtNtCs750dlybBgq4_9validator5types16ValidationErrorsE4from
FN:74,_RNvXs_NtCsiqn6J3Zmf7c_18timekeeper_backend5errorNtB4_8AppErrorINtNtCslH02haMvknO_4core7convert4FromNtCs6oqSscmUHfi_6anyhow5ErrorE4from
FN:29,_RNvXNtCsiqn6J3Zmf7c_18timekeeper_backend5errorNtB2_8AppErrorNtNtNtCsLr94lOfCqh_9axum_core8response13into_response12IntoResponse13into_response
FN:80,_RNvXs0_NtCsiqn6J3Zmf7c_18timekeeper_backend5errorNtB5_8AppErrorINtNtCslH02haMvknO_4core7convert4FromNtNtCs5clRJchDb2G_9sqlx_core5error5ErrorE4from
FN:89,_RNvXs1_NtCsiqn6J3Zmf7c_18timekeeper_backend5errorNtB5_8AppErrorINtNtCslH02haMvknO_4core7convert4FromNtNtCs750dlybBgq4_9validator5types16ValidationErrorsE4from
FN:94,_RNCNCNvXs1_NtCsiqn6J3Zmf7c_18timekeeper_backend5errorNtB9_8AppErrorINtNtCslH02haMvknO_4core7convert4FromNtNtCs750dlybBgq4_9validator5types16ValidationErrorsE4from00Bb_
FN:93,_RNCNvXs1_NtCsiqn6J3Zmf7c_18timekeeper_backend5errorNtB7_8AppErrorINtNtCslH02haMvknO_4core7convert4FromNtNtCs750dlybBgq4_9validator5types16ValidationErrorsE4from0B9_
FN:29,_RNvXNtCs86yVScfUyun_18timekeeper_backend5errorNtB2_8AppErrorNtNtNtCsLr94lOfCqh_9axum_core8response13into_response12IntoResponse13into_response
FN:74,_RNvXs_NtCs86yVScfUyun_18timekeeper_backend5errorNtB4_8AppErrorINtNtCslH02haMvknO_4core7convert4FromNtCs6oqSscmUHfi_6anyhow5ErrorE4from
FN:80,_RNvXs0_NtCs86yVScfUyun_18timekeeper_backend5errorNtB5_8AppErrorINtNtCslH02haMvknO_4core7convert4FromNtNtCs5clRJchDb2G_9sqlx_core5error5ErrorE4from
FN:89,_RNvXs1_NtCs86yVScfUyun_18timekeeper_backend5errorNtB5_8AppErrorINtNtCslH02haMvknO_4core7convert4FromNtNtCs750dlybBgq4_9validator5types16ValidationErrorsE4from
FN:94,_RNCNCNvXs1_NtCs86yVScfUyun_18timekeeper_backend5errorNtB9_8AppErrorINtNtCslH02haMvknO_4core7convert4FromNtNtCs750dlybBgq4_9validator5types16ValidationErrorsE4from00Bb_
FN:93,_RNCNvXs1_NtCs86yVScfUyun_18timekeeper_backend5errorNtB7_8AppErrorINtNtCslH02haMvknO_4core7convert4FromNtNtCs750dlybBgq4_9validator5types16ValidationErrorsE4from0B9_
FNDA:11,_RNCNCNvXs1_NtCs2oPl7zguF9n_18timekeeper_backend5errorNtB9_8AppErrorINtNtCslH02haMvknO_4core7convert4FromNtNtCs750dlybBgq4_9validator5types16ValidationErrorsE4from00Bb_
FNDA:9,_RNCNvXs1_NtCs2oPl7zguF9n_18timekeeper_backend5errorNtB7_8AppErrorINtNtCslH02haMvknO_4core7convert4FromNtNtCs750dlybBgq4_9validator5types16ValidationErrorsE4from0B9_
FNDA:66,_RNvXNtCs2oPl7zguF9n_18timekeeper_backend5errorNtB2_8AppErrorNtNtNtCsLr94lOfCqh_9axum_core8response13into_response12IntoResponse13into_response
FNDA:1,_RNvXs0_NtCs2oPl7zguF9n_18timekeeper_backend5errorNtB5_8AppErrorINtNtCslH02haMvknO_4core7convert4FromNtNtCs5clRJchDb2G_9sqlx_core5error5ErrorE4from
FNDA:9,_RNvXs1_NtCs2oPl7zguF9n_18timekeeper_backend5errorNtB5_8AppErrorINtNtCslH02haMvknO_4core7convert4FromNtNtCs750dlybBgq4_9validator5types16ValidationErrorsE4from
FNDA:0,_RNvXs_NtCs2oPl7zguF9n_18timekeeper_backend5errorNtB4_8AppErrorINtNtCslH02haMvknO_4core7convert4FromNtCs6oqSscmUHfi_6anyhow5ErrorE4from
FNDA:0,_RNvXs_NtCsjEFxG0ag9NF_18timekeeper_backend5errorNtB4_8AppErrorINtNtCslH02haMvknO_4core7convert4FromNtCs6oqSscmUHfi_6anyhow5ErrorE4from
FNDA:0,_RNCNCNvXs1_NtCsjEFxG0ag9NF_18timekeeper_backend5errorNtB9_8AppErrorINtNtCslH02haMvknO_4core7convert4FromNtNtCs750dlybBgq4_9validator5types16ValidationErrorsE4from00Bb_
FNDA:0,_RNCNvXs1_NtCsjEFxG0ag9NF_18timekeeper_backend5errorNtB7_8AppErrorINtNtCslH02haMvknO_4core7convert4FromNtNtCs750dlybBgq4_9validator5types16ValidationErrorsE4from0B9_
FNDA:0,_RNvXNtCsjEFxG0ag9NF_18timekeeper_backend5errorNtB2_8AppErrorNtNtNtCsLr94lOfCqh_9axum_core8response13into_response12IntoResponse13into_response
FNDA:0,_RNvXs0_NtCsjEFxG0ag9NF_18timekeeper_backend5errorNtB5_8AppErrorINtNtCslH02haMvknO_4core7convert4FromNtNtCs5clRJchDb2G_9sqlx_core5error5ErrorE4from
FNDA:0,_RNvXs1_NtCsjEFxG0ag9NF_18timekeeper_backend5errorNtB5_8AppErrorINtNtCslH02haMvknO_4core7convert4FromNtNtCs750dlybBgq4_9validator5types16ValidationErrorsE4from
FNDA:0,_RNvXs_NtCsiqn6J3Zmf7c_18timekeeper_backend5errorNtB4_8AppErrorINtNtCslH02haMvknO_4core7convert4FromNtCs6oqSscmUHfi_6anyhow5ErrorE4from
FNDA:0,_RNvXNtCsiqn6J3Zmf7c_18timekeeper_backend5errorNtB2_8AppErrorNtNtNtCsLr94lOfCqh_9axum_core8response13into_response12IntoResponse13into_response
FNDA:0,_RNvXs0_NtCsiqn6J3Zmf7c_18timekeeper_backend5errorNtB5_8AppErrorINtNtCslH02haMvknO_4core7convert4FromNtNtCs5clRJchDb2G_9sqlx_core5error5ErrorE4from
FNDA:0,_RNvXs1_NtCsiqn6J3Zmf7c_18timekeeper_backend5errorNtB5_8AppErrorINtNtCslH02haMvknO_4core7convert4FromNtNtCs750dlybBgq4_9validator5types16ValidationErrorsE4from
FNDA:0,_RNCNCNvXs1_NtCsiqn6J3Zmf7c_18timekeeper_backend5errorNtB9_8AppErrorINtNtCslH02haMvknO_4core7convert4FromNtNtCs750dlybBgq4_9validator5types16ValidationErrorsE4from00Bb_
FNDA:0,_RNCNvXs1_NtCsiqn6J3Zmf7c_18timekeeper_backend5errorNtB7_8AppErrorINtNtCslH02haMvknO_4core7convert4FromNtNtCs750dlybBgq4_9validator5types16ValidationErrorsE4from0B9_
FNDA:0,_RNvXNtCs86yVScfUyun_18timekeeper_backend5errorNtB2_8AppErrorNtNtNtCsLr94lOfCqh_9axum_core8response13into_response12IntoResponse13into_response
FNDA:0,_RNvXs_NtCs86yVScfUyun_18timekeeper_backend5errorNtB4_8AppErrorINtNtCslH02haMvknO_4core7convert4FromNtCs6oqSscmUHfi_6anyhow5ErrorE4from
FNDA:0,_RNvXs0_NtCs86yVScfUyun_18timekeeper_backend5errorNtB5_8AppErrorINtNtCslH02haMvknO_4core7convert4FromNtNtCs5clRJchDb2G_9sqlx_core5error5ErrorE4from
FNDA:0,_RNvXs1_NtCs86yVScfUyun_18timekeeper_backend5errorNtB5_8AppErrorINtNtCslH02haMvknO_4core7convert4FromNtNtCs750dlybBgq4_9validator5types16ValidationErrorsE4from
FNDA:0,_RNCNCNvXs1_NtCs86yVScfUyun_18timekeeper_backend5errorNtB9_8AppErrorINtNtCslH02haMvknO_4core7convert4FromNtNtCs750dlybBgq4_9validator5types16ValidationErrorsE4from00Bb_
FNDA:0,_RNCNvXs1_NtCs86yVScfUyun_18timekeeper_backend5errorNtB7_8AppErrorINtNtCslH02haMvknO_4core7convert4FromNtNtCs750dlybBgq4_9validator5types16ValidationErrorsE4from0B9_
FNF:6
FNH:5
DA:29,66
DA:30,66
DA:31,7
DA:32,5
DA:33,5
DA:34,5
DA:35,5
DA:36,5
DA:37,5
DA:38,17
DA:39,1
DA:40,27
DA:41,27
DA:42,27
DA:43,27
DA:44,27
DA:45,27
DA:46,0
DA:47,0
DA:48,0
DA:49,0
DA:50,0
DA:51,0
DA:52,0
DA:53,0
DA:55,9
DA:56,9
DA:57,9
DA:58,9
DA:59,9
DA:60,9
DA:63,66
DA:64,66
DA:65,66
DA:66,66
DA:67,66
DA:69,66
DA:70,66
DA:74,0
DA:75,0
DA:76,0
DA:80,1
DA:81,1
DA:82,0
DA:83,1
DA:85,1
DA:89,9
DA:90,9
DA:91,9
DA:92,9
DA:93,9
DA:94,11
DA:95,11
DA:96,11
DA:97,11
DA:98,9
DA:99,9
DA:100,9
DA:101,9
BRF:0
BRH:0
LF:61
LH:49
end_of_record
SF:/home/marra/projects/timekeeper/backend/src/handlers/admin/attendance.rs
FN:154,_RNCNCNCNvNtNtNtCs2oPl7zguF9n_18timekeeper_backend8handlers5admin10attendance17upsert_attendance0s6_00Bd_
FN:205,_RNCNCNvNtNtNtCs2oPl7zguF9n_18timekeeper_backend8handlers5admin10attendance15force_end_break00Bb_
FN:102,_RNCNCNvNtNtNtCs2oPl7zguF9n_18timekeeper_backend8handlers5admin10attendance17upsert_attendance00Bb_
FN:105,_RNCNCNvNtNtNtCs2oPl7zguF9n_18timekeeper_backend8handlers5admin10attendance17upsert_attendance0s0_0Bb_
FN:109,_RNCNCNvNtNtNtCs2oPl7zguF9n_18timekeeper_backend8handlers5admin10attendance17upsert_attendance0s1_0Bb_
FN:110,_RNCNCNvNtNtNtCs2oPl7zguF9n_18timekeeper_backend8handlers5admin10attendance17upsert_attendance0s2_0Bb_
FN:119,_RNCNCNvNtNtNtCs2oPl7zguF9n_18timekeeper_backend8handlers5admin10attendance17upsert_attendance0s3_0Bb_
FN:144,_RNCNCNvNtNtNtCs2oPl7zguF9n_18timekeeper_backend8handlers5admin10attendance17upsert_attendance0s4_0Bb_
FN:150,_RNCNCNvNtNtNtCs2oPl7zguF9n_18timekeeper_backend8handlers5admin10attendance17upsert_attendance0s5_0Bb_
FN:151,_RNCNCNvNtNtNtCs2oPl7zguF9n_18timekeeper_backend8handlers5admin10attendance17upsert_attendance0s6_0Bb_
FN:104,_RNCNCNvNtNtNtCs2oPl7zguF9n_18timekeeper_backend8handlers5admin10attendance17upsert_attendance0s_0Bb_
FN:200,_RNCNvNtNtNtCs2oPl7zguF9n_18timekeeper_backend8handlers5admin10attendance15force_end_break0B9_
FN:86,_RNCNvNtNtNtCs2oPl7zguF9n_18timekeeper_backend8handlers5admin10attendance17upsert_attendance0B9_
FN:29,_RNCNvNtNtNtCs2oPl7zguF9n_18timekeeper_backend8handlers5admin10attendance18get_all_attendance0B9_
FN:196,_RNvNtNtNtCs2oPl7zguF9n_18timekeeper_backend8handlers5admin10attendance15force_end_break
FN:82,_RNvNtNtNtCs2oPl7zguF9n_18timekeeper_backend8handlers5admin10attendance17upsert_attendance
FN:25,_RNvNtNtNtCs2oPl7zguF9n_18timekeeper_backend8handlers5admin10attendance18get_all_attendance
FN:196,_RNvNtNtNtCsjEFxG0ag9NF_18timekeeper_backend8handlers5admin10attendance15force_end_break
FN:82,_RNvNtNtNtCsjEFxG0ag9NF_18timekeeper_backend8handlers5admin10attendance17upsert_attendance
FN:25,_RNvNtNtNtCsjEFxG0ag9NF_18timekeeper_backend8handlers5admin10attendance18get_all_attendance
FN:154,_RNCNCNCNvNtNtNtCsjEFxG0ag9NF_18timekeeper_backend8handlers5admin10attendance17upsert_attendance0s6_00Bd_
FN:205,_RNCNCNvNtNtNtCsjEFxG0ag9NF_18timekeeper_backend8handlers5admin10attendance15force_end_break00Bb_
FN:102,_RNCNCNvNtNtNtCsjEFxG0ag9NF_18timekeeper_backend8handlers5admin10attendance17upsert_attendance00Bb_
FN:105,_RNCNCNvNtNtNtCsjEFxG0ag9NF_18timekeeper_backend8handlers5admin10attendance17upsert_attendance0s0_0Bb_
FN:109,_RNCNCNvNtNtNtCsjEFxG0ag9NF_18timekeeper_backend8handlers5admin10attendance17upsert_attendance0s1_0Bb_
FN:110,_RNCNCNvNtNtNtCsjEFxG0ag9NF_18timekeeper_backend8handlers5admin10attendance17upsert_attendance0s2_0Bb_
FN:119,_RNCNCNvNtNtNtCsjEFxG0ag9NF_18timekeeper_backend8handlers5admin10attendance17upsert_attendance0s3_0Bb_
FN:144,_RNCNCNvNtNtNtCsjEFxG0ag9NF_18timekeeper_backend8handlers5admin10attendance17upsert_attendance0s4_0Bb_
FN:150,_RNCNCNvNtNtNtCsjEFxG0ag9NF_18timekeeper_backend8handlers5admin10attendance17upsert_attendance0s5_0Bb_
FN:151,_RNCNCNvNtNtNtCsjEFxG0ag9NF_18timekeeper_backend8handlers5admin10attendance17upsert_attendance0s6_0Bb_
FN:104,_RNCNCNvNtNtNtCsjEFxG0ag9NF_18timekeeper_backend8handlers5admin10attendance17upsert_attendance0s_0Bb_
FN:200,_RNCNvNtNtNtCsjEFxG0ag9NF_18timekeeper_backend8handlers5admin10attendance15force_end_break0B9_
FN:86,_RNCNvNtNtNtCsjEFxG0ag9NF_18timekeeper_backend8handlers5admin10attendance17upsert_attendance0B9_
FN:29,_RNCNvNtNtNtCsjEFxG0ag9NF_18timekeeper_backend8handlers5admin10attendance18get_all_attendance0B9_
FN:196,_RNvNtNtNtCsiqn6J3Zmf7c_18timekeeper_backend8handlers5admin10attendance15force_end_break
FN:82,_RNvNtNtNtCsiqn6J3Zmf7c_18timekeeper_backend8handlers5admin10attendance17upsert_attendance
FN:25,_RNvNtNtNtCsiqn6J3Zmf7c_18timekeeper_backend8handlers5admin10attendance18get_all_attendance
FN:154,_RNCNCNCNvNtNtNtCsiqn6J3Zmf7c_18timekeeper_backend8handlers5admin10attendance17upsert_attendance0s6_00Bd_
FN:205,_RNCNCNvNtNtNtCsiqn6J3Zmf7c_18timekeeper_backend8handlers5admin10attendance15force_end_break00Bb_
FN:102,_RNCNCNvNtNtNtCsiqn6J3Zmf7c_18timekeeper_backend8handlers5admin10attendance17upsert_attendance00Bb_
FN:105,_RNCNCNvNtNtNtCsiqn6J3Zmf7c_18timekeeper_backend8handlers5admin10attendance17upsert_attendance0s0_0Bb_
FN:109,_RNCNCNvNtNtNtCsiqn6J3Zmf7c_18timekeeper_backend8handlers5admin10attendance17upsert_attendance0s1_0Bb_
FN:110,_RNCNCNvNtNtNtCsiqn6J3Zmf7c_18timekeeper_backend8handlers5admin10attendance17upsert_attendance0s2_0Bb_
FN:119,_RNCNCNvNtNtNtCsiqn6J3Zmf7c_18timekeeper_backend8handlers5admin10attendance17upsert_attendance0s3_0Bb_
FN:144,_RNCNCNvNtNtNtCsiqn6J3Zmf7c_18timekeeper_backend8handlers5admin10attendance17upsert_attendance0s4_0Bb_
FN:150,_RNCNCNvNtNtNtCsiqn6J3Zmf7c_18timekeeper_backend8handlers5admin10attendance17upsert_attendance0s5_0Bb_
FN:151,_RNCNCNvNtNtNtCsiqn6J3Zmf7c_18timekeeper_backend8handlers5admin10attendance17upsert_attendance0s6_0Bb_
FN:104,_RNCNCNvNtNtNtCsiqn6J3Zmf7c_18timekeeper_backend8handlers5admin10attendance17upsert_attendance0s_0Bb_
FN:200,_RNCNvNtNtNtCsiqn6J3Zmf7c_18timekeeper_backend8handlers5admin10attendance15force_end_break0B9_
FN:86,_RNCNvNtNtNtCsiqn6J3Zmf7c_18timekeeper_backend8handlers5admin10attendance17upsert_attendance0B9_
FN:29,_RNCNvNtNtNtCsiqn6J3Zmf7c_18timekeeper_backend8handlers5admin10attendance18get_all_attendance0B9_
FN:196,_RNvNtNtNtCs86yVScfUyun_18timekeeper_backend8handlers5admin10attendance15force_end_break
FN:82,_RNvNtNtNtCs86yVScfUyun_18timekeeper_backend8handlers5admin10attendance17upsert_attendance
FN:25,_RNvNtNtNtCs86yVScfUyun_18timekeeper_backend8handlers5admin10attendance18get_all_attendance
FN:154,_RNCNCNCNvNtNtNtCs86yVScfUyun_18timekeeper_backend8handlers5admin10attendance17upsert_attendance0s6_00Bd_
FN:205,_RNCNCNvNtNtNtCs86yVScfUyun_18timekeeper_backend8handlers5admin10attendance15force_end_break00Bb_
FN:102,_RNCNCNvNtNtNtCs86yVScfUyun_18timekeeper_backend8handlers5admin10attendance17upsert_attendance00Bb_
FN:105,_RNCNCNvNtNtNtCs86yVScfUyun_18timekeeper_backend8handlers5admin10attendance17upsert_attendance0s0_0Bb_
FN:109,_RNCNCNvNtNtNtCs86yVScfUyun_18timekeeper_backend8handlers5admin10attendance17upsert_attendance0s1_0Bb_
FN:110,_RNCNCNvNtNtNtCs86yVScfUyun_18timekeeper_backend8handlers5admin10attendance17upsert_attendance0s2_0Bb_
FN:119,_RNCNCNvNtNtNtCs86yVScfUyun_18timekeeper_backend8handlers5admin10attendance17upsert_attendance0s3_0Bb_
FN:144,_RNCNCNvNtNtNtCs86yVScfUyun_18timekeeper_backend8handlers5admin10attendance17upsert_attendance0s4_0Bb_
FN:150,_RNCNCNvNtNtNtCs86yVScfUyun_18timekeeper_backend8handlers5admin10attendance17upsert_attendance0s5_0Bb_
FN:151,_RNCNCNvNtNtNtCs86yVScfUyun_18timekeeper_backend8handlers5admin10attendance17upsert_attendance0s6_0Bb_
FN:104,_RNCNCNvNtNtNtCs86yVScfUyun_18timekeeper_backend8handlers5admin10attendance17upsert_attendance0s_0Bb_
FN:200,_RNCNvNtNtNtCs86yVScfUyun_18timekeeper_backend8handlers5admin10attendance15force_end_break0B9_
FN:86,_RNCNvNtNtNtCs86yVScfUyun_18timekeeper_backend8handlers5admin10attendance17upsert_attendance0B9_
FN:29,_RNCNvNtNtNtCs86yVScfUyun_18timekeeper_backend8handlers5admin10attendance18get_all_attendance0B9_
FNDA:0,_RNCNCNCNvNtNtNtCs2oPl7zguF9n_18timekeeper_backend8handlers5admin10attendance17upsert_attendance0s6_00Bd_
FNDA:0,_RNCNCNvNtNtNtCs2oPl7zguF9n_18timekeeper_backend8handlers5admin10attendance15force_end_break00Bb_
FNDA:1,_RNCNCNvNtNtNtCs2oPl7zguF9n_18timekeeper_backend8handlers5admin10attendance17upsert_attendance00Bb_
FNDA:0,_RNCNCNvNtNtNtCs2oPl7zguF9n_18timekeeper_backend8handlers5admin10attendance17upsert_attendance0s0_0Bb_
FNDA:0,_RNCNCNvNtNtNtCs2oPl7zguF9n_18timekeeper_backend8handlers5admin10attendance17upsert_attendance0s1_0Bb_
FNDA:0,_RNCNCNvNtNtNtCs2oPl7zguF9n_18timekeeper_backend8handlers5admin10attendance17upsert_attendance0s2_0Bb_
FNDA:0,_RNCNCNvNtNtNtCs2oPl7zguF9n_18timekeeper_backend8handlers5admin10attendance17upsert_attendance0s3_0Bb_
FNDA:0,_RNCNCNvNtNtNtCs2oPl7zguF9n_18timekeeper_backend8handlers5admin10attendance17upsert_attendance0s4_0Bb_
FNDA:0,_RNCNCNvNtNtNtCs2oPl7zguF9n_18timekeeper_backend8handlers5admin10attendance17upsert_attendance0s5_0Bb_
FNDA:1,_RNCNCNvNtNtNtCs2oPl7zguF9n_18timekeeper_backend8handlers5admin10attendance17upsert_attendance0s6_0Bb_
FNDA:0,_RNCNCNvNtNtNtCs2oPl7zguF9n_18timekeeper_backend8handlers5admin10attendance17upsert_attendance0s_0Bb_
FNDA:0,_RNCNvNtNtNtCs2oPl7zguF9n_18timekeeper_backend8handlers5admin10attendance15force_end_break0B9_
FNDA:3,_RNCNvNtNtNtCs2oPl7zguF9n_18timekeeper_backend8handlers5admin10attendance17upsert_attendance0B9_
FNDA:3,_RNCNvNtNtNtCs2oPl7zguF9n_18timekeeper_backend8handlers5admin10attendance18get_all_attendance0B9_
FNDA:0,_RNvNtNtNtCs2oPl7zguF9n_18timekeeper_backend8handlers5admin10attendance15force_end_break
FNDA:3,_RNvNtNtNtCs2oPl7zguF9n_18timekeeper_backend8handlers5admin10attendance17upsert_attendance
FNDA:3,_RNvNtNtNtCs2oPl7zguF9n_18timekeeper_backend8handlers5admin10attendance18get_all_attendance
FNDA:0,_RNvNtNtNtCsjEFxG0ag9NF_18timekeeper_backend8handlers5admin10attendance15force_end_break
FNDA:0,_RNvNtNtNtCsjEFxG0ag9NF_18timekeeper_backend8handlers5admin10attendance17upsert_attendance
FNDA:0,_RNvNtNtNtCsjEFxG0ag9NF_18timekeeper_backend8handlers5admin10attendance18get_all_attendance
FNDA:0,_RNCNCNCNvNtNtNtCsjEFxG0ag9NF_18timekeeper_backend8handlers5admin10attendance17upsert_attendance0s6_00Bd_
FNDA:0,_RNCNCNvNtNtNtCsjEFxG0ag9NF_18timekeeper_backend8handlers5admin10attendance15force_end_break00Bb_
FNDA:0,_RNCNCNvNtNtNtCsjEFxG0ag9NF_18timekeeper_backend8handlers5admin10attendance17upsert_attendance00Bb_
FNDA:0,_RNCNCNvNtNtNtCsjEFxG0ag9NF_18timekeeper_backend8handlers5admin10attendance17upsert_attendance0s0_0Bb_
FNDA:0,_RNCNCNvNtNtNtCsjEFxG0ag9NF_18timekeeper_backend8handlers5admin10attendance17upsert_attendance0s1_0Bb_
FNDA:0,_RNCNCNvNtNtNtCsjEFxG0ag9NF_18timekeeper_backend8handlers5admin10attendance17upsert_attendance0s2_0Bb_
FNDA:0,_RNCNCNvNtNtNtCsjEFxG0ag9NF_18timekeeper_backend8handlers5admin10attendance17upsert_attendance0s3_0Bb_
FNDA:0,_RNCNCNvNtNtNtCsjEFxG0ag9NF_18timekeeper_backend8handlers5admin10attendance17upsert_attendance0s4_0Bb_
FNDA:0,_RNCNCNvNtNtNtCsjEFxG0ag9NF_18timekeeper_backend8handlers5admin10attendance17upsert_attendance0s5_0Bb_
FNDA:0,_RNCNCNvNtNtNtCsjEFxG0ag9NF_18timekeeper_backend8handlers5admin10attendance17upsert_attendance0s6_0Bb_
FNDA:0,_RNCNCNvNtNtNtCsjEFxG0ag9NF_18timekeeper_backend8handlers5admin10attendance17upsert_attendance0s_0Bb_
FNDA:0,_RNCNvNtNtNtCsjEFxG0ag9NF_18timekeeper_backend8handlers5admin10attendance15force_end_break0B9_
FNDA:0,_RNCNvNtNtNtCsjEFxG0ag9NF_18timekeeper_backend8handlers5admin10attendance17upsert_attendance0B9_
FNDA:0,_RNCNvNtNtNtCsjEFxG0ag9NF_18timekeeper_backend8handlers5admin10attendance18get_all_attendance0B9_
FNDA:0,_RNvNtNtNtCsiqn6J3Zmf7c_18timekeeper_backend8handlers5admin10attendance15force_end_break
FNDA:0,_RNvNtNtNtCsiqn6J3Zmf7c_18timekeeper_backend8handlers5admin10attendance17upsert_attendance
FNDA:0,_RNvNtNtNtCsiqn6J3Zmf7c_18timekeeper_backend8handlers5admin10attendance18get_all_attendance
FNDA:0,_RNCNCNCNvNtNtNtCsiqn6J3Zmf7c_18timekeeper_backend8handlers5admin10attendance17upsert_attendance0s6_00Bd_
FNDA:0,_RNCNCNvNtNtNtCsiqn6J3Zmf7c_18timekeeper_backend8handlers5admin10attendance15force_end_break00Bb_
FNDA:0,_RNCNCNvNtNtNtCsiqn6J3Zmf7c_18timekeeper_backend8handlers5admin10attendance17upsert_attendance00Bb_
FNDA:0,_RNCNCNvNtNtNtCsiqn6J3Zmf7c_18timekeeper_backend8handlers5admin10attendance17upsert_attendance0s0_0Bb_
FNDA:0,_RNCNCNvNtNtNtCsiqn6J3Zmf7c_18timekeeper_backend8handlers5admin10attendance17upsert_attendance0s1_0Bb_
FNDA:0,_RNCNCNvNtNtNtCsiqn6J3Zmf7c_18timekeeper_backend8handlers5admin10attendance17upsert_attendance0s2_0Bb_
FNDA:0,_RNCNCNvNtNtNtCsiqn6J3Zmf7c_18timekeeper_backend8handlers5admin10attendance17upsert_attendance0s3_0Bb_
FNDA:0,_RNCNCNvNtNtNtCsiqn6J3Zmf7c_18timekeeper_backend8handlers5admin10attendance17upsert_attendance0s4_0Bb_
FNDA:0,_RNCNCNvNtNtNtCsiqn6J3Zmf7c_18timekeeper_backend8handlers5admin10attendance17upsert_attendance0s5_0Bb_
FNDA:0,_RNCNCNvNtNtNtCsiqn6J3Zmf7c_18timekeeper_backend8handlers5admin10attendance17upsert_attendance0s6_0Bb_
FNDA:0,_RNCNCNvNtNtNtCsiqn6J3Zmf7c_18timekeeper_backend8handlers5admin10attendance17upsert_attendance0s_0Bb_
FNDA:0,_RNCNvNtNtNtCsiqn6J3Zmf7c_18timekeeper_backend8handlers5admin10attendance15force_end_break0B9_
FNDA:0,_RNCNvNtNtNtCsiqn6J3Zmf7c_18timekeeper_backend8handlers5admin10attendance17upsert_attendance0B9_
FNDA:0,_RNCNvNtNtNtCsiqn6J3Zmf7c_18timekeeper_backend8handlers5admin10attendance18get_all_attendance0B9_
FNDA:0,_RNvNtNtNtCs86yVScfUyun_18timekeeper_backend8handlers5admin10attendance15force_end_break
FNDA:0,_RNvNtNtNtCs86yVScfUyun_18timekeeper_backend8handlers5admin10attendance17upsert_attendance
FNDA:0,_RNvNtNtNtCs86yVScfUyun_18timekeeper_backend8handlers5admin10attendance18get_all_attendance
FNDA:0,_RNCNCNCNvNtNtNtCs86yVScfUyun_18timekeeper_backend8handlers5admin10attendance17upsert_attendance0s6_00Bd_
FNDA:0,_RNCNCNvNtNtNtCs86yVScfUyun_18timekeeper_backend8handlers5admin10attendance15force_end_break00Bb_
FNDA:0,_RNCNCNvNtNtNtCs86yVScfUyun_18timekeeper_backend8handlers5admin10attendance17upsert_attendance00Bb_
FNDA:0,_RNCNCNvNtNtNtCs86yVScfUyun_18timekeeper_backend8handlers5admin10attendance17upsert_attendance0s0_0Bb_
FNDA:0,_RNCNCNvNtNtNtCs86yVScfUyun_18timekeeper_backend8handlers5admin10attendance17upsert_attendance0s1_0Bb_
FNDA:0,_RNCNCNvNtNtNtCs86yVScfUyun_18timekeeper_backend8handlers5admin10attendance17upsert_attendance0s2_0Bb_
FNDA:0,_RNCNCNvNtNtNtCs86yVScfUyun_18timekeeper_backend8handlers5admin10attendance17upsert_attendance0s3_0Bb_
FNDA:0,_RNCNCNvNtNtNtCs86yVScfUyun_18timekeeper_backend8handlers5admin10attendance17upsert_attendance0s4_0Bb_
FNDA:0,_RNCNCNvNtNtNtCs86yVScfUyun_18timekeeper_backend8handlers5admin10attendance17upsert_attendance0s5_0Bb_
FNDA:0,_RNCNCNvNtNtNtCs86yVScfUyun_18timekeeper_backend8handlers5admin10attendance17upsert_attendance0s6_0Bb_
FNDA:0,_RNCNCNvNtNtNtCs86yVScfUyun_18timekeeper_backend8handlers5admin10attendance17upsert_attendance0s_0Bb_
FNDA:0,_RNCNvNtNtNtCs86yVScfUyun_18timekeeper_backend8handlers5admin10attendance15force_end_break0B9_
FNDA:0,_RNCNvNtNtNtCs86yVScfUyun_18timekeeper_backend8handlers5admin10attendance17upsert_attendance0B9_
FNDA:0,_RNCNvNtNtNtCs86yVScfUyun_18timekeeper_backend8handlers5admin10attendance18get_all_attendance0B9_
FNF:17
FNH:6
DA:25,3
DA:26,3
DA:27,3
DA:28,3
DA:29,3
DA:30,3
DA:31,2
DA:32,1
DA:34,1
DA:35,1
DA:37,1
DA:38,1
DA:40,1
DA:41,1
DA:42,1
DA:44,1
DA:45,1
DA:47,1
DA:48,1
DA:49,0
DA:50,0
DA:51,0
DA:52,0
DA:53,0
DA:54,0
DA:55,0
DA:56,0
DA:57,0
DA:58,0
DA:59,0
DA:60,0
DA:61,0
DA:63,1
DA:64,3
DA:82,3
DA:83,3
DA:84,3
DA:85,3
DA:86,3
DA:87,3
DA:88,1
DA:89,2
DA:94,2
DA:95,2
DA:96,2
DA:97,2
DA:98,2
DA:99,2
DA:101,2
DA:102,2
DA:103,1
DA:104,1
DA:105,1
DA:106,1
DA:107,1
DA:108,1
DA:109,1
DA:110,1
DA:112,0
DA:115,1
DA:118,1
DA:119,1
DA:121,1
DA:122,1
DA:125,1
DA:126,1
DA:127,1
DA:129,1
DA:130,1
DA:131,1
DA:132,1
DA:134,1
DA:135,1
DA:137,1
DA:138,1
DA:140,1
DA:141,1
DA:142,1
DA:143,1
DA:144,1
DA:145,0
DA:146,0
DA:147,0
DA:149,0
DA:150,1
DA:151,1
DA:152,1
DA:153,1
DA:154,1
DA:155,1
DA:156,1
DA:157,1
DA:158,1
DA:159,1
DA:160,1
DA:161,1
DA:162,1
DA:163,1
DA:164,1
DA:165,1
DA:166,1
DA:168,0
DA:170,1
DA:172,1
DA:175,1
DA:176,1
DA:179,1
DA:181,1
DA:182,1
DA:183,1
DA:184,1
DA:185,1
DA:186,1
DA:187,1
DA:188,1
DA:189,1
DA:190,1
DA:191,1
DA:192,3
DA:196,0
DA:197,0
DA:198,0
DA:199,0
DA:200,0
DA:201,0
DA:202,0
DA:203,0
DA:204,0
DA:205,0
DA:206,0
DA:207,0
DA:208,0
DA:209,0
DA:210,0
DA:211,0
DA:212,0
DA:214,0
DA:215,0
DA:216,0
DA:217,0
DA:218,0
DA:219,0
DA:220,0
DA:222,0
DA:224,0
DA:225,0
DA:226,0
DA:227,0
DA:229,0
DA:230,0
DA:231,0
DA:232,0
DA:234,0
DA:235,0
DA:236,0
DA:237,0
BRF:0
BRH:0
LF:170
LH:104
end_of_record
SF:/home/marra/projects/timekeeper/backend/src/handlers/admin/audit_logs.rs
FN:117,_RNCNCNvNtNtNtCs2oPl7zguF9n_18timekeeper_backend8handlers5admin10audit_logs15list_audit_logs00Bb_
FN:158,_RNCNCNvNtNtNtCs2oPl7zguF9n_18timekeeper_backend8handlers5admin10audit_logs17export_audit_logs00Bb_
FN:174,_RNCNCNvNtNtNtCs2oPl7zguF9n_18timekeeper_backend8handlers5admin10audit_logs17export_audit_logs0s0_0Bb_
FN:161,_RNCNCNvNtNtNtCs2oPl7zguF9n_18timekeeper_backend8handlers5admin10audit_logs17export_audit_logs0s_0Bb_
FN:138,_RNCNCNvNtNtNtCs2oPl7zguF9n_18timekeeper_backend8handlers5admin10audit_logs20get_audit_log_detail00Bb_
FN:143,_RNCNCNvNtNtNtCs2oPl7zguF9n_18timekeeper_backend8handlers5admin10audit_logs20get_audit_log_detail0s0_0Bb_
FN:142,_RNCNCNvNtNtNtCs2oPl7zguF9n_18timekeeper_backend8handlers5admin10audit_logs20get_audit_log_detail0s_0Bb_
FN:187,_RNCNCNvNtNtNtCs2oPl7zguF9n_18timekeeper_backend8handlers5admin10audit_logs23ensure_audit_log_access00Bb_
FN:283,_RNCNvNtNtNtCs2oPl7zguF9n_18timekeeper_backend8handlers5admin10audit_logs13build_filters0B9_
FN:294,_RNCNvNtNtNtCs2oPl7zguF9n_18timekeeper_backend8handlers5admin10audit_logs13build_filterss0_0B9_
FN:305,_RNCNvNtNtNtCs2oPl7zguF9n_18timekeeper_backend8handlers5admin10audit_logs13build_filterss1_0B9_
FN:306,_RNCNvNtNtNtCs2oPl7zguF9n_18timekeeper_backend8handlers5admin10audit_logs13build_filterss2_0B9_
FN:308,_RNCNvNtNtNtCs2oPl7zguF9n_18timekeeper_backend8handlers5admin10audit_logs13build_filterss3_0B9_
FN:314,_RNCNvNtNtNtCs2oPl7zguF9n_18timekeeper_backend8handlers5admin10audit_logs13build_filterss4_0B9_
FN:315,_RNCNvNtNtNtCs2oPl7zguF9n_18timekeeper_backend8handlers5admin10audit_logs13build_filterss5_0B9_
FN:316,_RNCNvNtNtNtCs2oPl7zguF9n_18timekeeper_backend8handlers5admin10audit_logs13build_filterss6_0B9_
FN:284,_RNCNvNtNtNtCs2oPl7zguF9n_18timekeeper_backend8handlers5admin10audit_logs13build_filterss_0B9_
FN:109,_RNCNvNtNtNtCs2oPl7zguF9n_18timekeeper_backend8handlers5admin10audit_logs15list_audit_logs0B9_
FN:324,_RNCNvNtNtNtCs2oPl7zguF9n_18timekeeper_backend8handlers5admin10audit_logs16normalize_filter0B9_
FN:325,_RNCNvNtNtNtCs2oPl7zguF9n_18timekeeper_backend8handlers5admin10audit_logs16normalize_filters_0B9_
FN:152,_RNCNvNtNtNtCs2oPl7zguF9n_18timekeeper_backend8handlers5admin10audit_logs17export_audit_logs0B9_
FN:134,_RNCNvNtNtNtCs2oPl7zguF9n_18timekeeper_backend8handlers5admin10audit_logs20get_audit_log_detail0B9_
FN:221,_RNCNvNtNtNtCs2oPl7zguF9n_18timekeeper_backend8handlers5admin10audit_logs21validate_export_query0B9_
FN:242,_RNCNvNtNtNtCs2oPl7zguF9n_18timekeeper_backend8handlers5admin10audit_logs21validate_export_querys0_0B9_
FN:253,_RNCNvNtNtNtCs2oPl7zguF9n_18timekeeper_backend8handlers5admin10audit_logs21validate_export_querys1_0B9_
FN:254,_RNCNvNtNtNtCs2oPl7zguF9n_18timekeeper_backend8handlers5admin10audit_logs21validate_export_querys2_0B9_
FN:256,_RNCNvNtNtNtCs2oPl7zguF9n_18timekeeper_backend8handlers5admin10audit_logs21validate_export_querys3_0B9_
FN:262,_RNCNvNtNtNtCs2oPl7zguF9n_18timekeeper_backend8handlers5admin10audit_logs21validate_export_querys4_0B9_
FN:263,_RNCNvNtNtNtCs2oPl7zguF9n_18timekeeper_backend8handlers5admin10audit_logs21validate_export_querys5_0B9_
FN:264,_RNCNvNtNtNtCs2oPl7zguF9n_18timekeeper_backend8handlers5admin10audit_logs21validate_export_querys6_0B9_
FN:224,_RNCNvNtNtNtCs2oPl7zguF9n_18timekeeper_backend8handlers5admin10audit_logs21validate_export_querys_0B9_
FN:179,_RNCNvNtNtNtCs2oPl7zguF9n_18timekeeper_backend8handlers5admin10audit_logs23ensure_audit_log_access0B9_
FN:82,_RNCNvXNtNtNtCs2oPl7zguF9n_18timekeeper_backend8handlers5admin10audit_logsNtB4_16AuditLogResponseINtNtCslH02haMvknO_4core7convert4FromNtNtNtBa_6models9audit_log8AuditLogE4from0Ba_
FN:281,_RNvNtNtNtCs2oPl7zguF9n_18timekeeper_backend8handlers5admin10audit_logs13build_filters
FN:105,_RNvNtNtNtCs2oPl7zguF9n_18timekeeper_backend8handlers5admin10audit_logs15list_audit_logs
FN:322,_RNvNtNtNtCs2oPl7zguF9n_18timekeeper_backend8handlers5admin10audit_logs16normalize_filter
FN:148,_RNvNtNtNtCs2oPl7zguF9n_18timekeeper_backend8handlers5admin10audit_logs17export_audit_logs
FN:337,_RNvNtNtNtCs2oPl7zguF9n_18timekeeper_backend8handlers5admin10audit_logs17parse_to_datetime
FN:328,_RNvNtNtNtCs2oPl7zguF9n_18timekeeper_backend8handlers5admin10audit_logs19parse_from_datetime
FN:199,_RNvNtNtNtCs2oPl7zguF9n_18timekeeper_backend8handlers5admin10audit_logs19validate_list_query
FN:130,_RNvNtNtNtCs2oPl7zguF9n_18timekeeper_backend8handlers5admin10audit_logs20get_audit_log_detail
FN:346,_RNvNtNtNtCs2oPl7zguF9n_18timekeeper_backend8handlers5admin10audit_logs20parse_datetime_value
FN:220,_RNvNtNtNtCs2oPl7zguF9n_18timekeeper_backend8handlers5admin10audit_logs21validate_export_query
FN:179,_RNvNtNtNtCs2oPl7zguF9n_18timekeeper_backend8handlers5admin10audit_logs23ensure_audit_log_access
FN:78,_RNvXNtNtNtCs2oPl7zguF9n_18timekeeper_backend8handlers5admin10audit_logsNtB2_16AuditLogResponseINtNtCslH02haMvknO_4core7convert4FromNtNtNtB8_6models9audit_log8AuditLogE4from
FN:105,_RNvNtNtNtCsjEFxG0ag9NF_18timekeeper_backend8handlers5admin10audit_logs15list_audit_logs
FN:148,_RNvNtNtNtCsjEFxG0ag9NF_18timekeeper_backend8handlers5admin10audit_logs17export_audit_logs
FN:130,_RNvNtNtNtCsjEFxG0ag9NF_18timekeeper_backend8handlers5admin10audit_logs20get_audit_log_detail
FN:117,_RNCNCNvNtNtNtCsjEFxG0ag9NF_18timekeeper_backend8handlers5admin10audit_logs15list_audit_logs00Bb_
FN:158,_RNCNCNvNtNtNtCsjEFxG0ag9NF_18timekeeper_backend8handlers5admin10audit_logs17export_audit_logs00Bb_
FN:174,_RNCNCNvNtNtNtCsjEFxG0ag9NF_18timekeeper_backend8handlers5admin10audit_logs17export_audit_logs0s0_0Bb_
FN:161,_RNCNCNvNtNtNtCsjEFxG0ag9NF_18timekeeper_backend8handlers5admin10audit_logs17export_audit_logs0s_0Bb_
FN:138,_RNCNCNvNtNtNtCsjEFxG0ag9NF_18timekeeper_backend8handlers5admin10audit_logs20get_audit_log_detail00Bb_
FN:143,_RNCNCNvNtNtNtCsjEFxG0ag9NF_18timekeeper_backend8handlers5admin10audit_logs20get_audit_log_detail0s0_0Bb_
FN:142,_RNCNCNvNtNtNtCsjEFxG0ag9NF_18timekeeper_backend8handlers5admin10audit_logs20get_audit_log_detail0s_0Bb_
FN:187,_RNCNCNvNtNtNtCsjEFxG0ag9NF_18timekeeper_backend8handlers5admin10audit_logs23ensure_audit_log_access00Bb_
FN:283,_RNCNvNtNtNtCsjEFxG0ag9NF_18timekeeper_backend8handlers5admin10audit_logs13build_filters0B9_
FN:294,_RNCNvNtNtNtCsjEFxG0ag9NF_18timekeeper_backend8handlers5admin10audit_logs13build_filterss0_0B9_
FN:305,_RNCNvNtNtNtCsjEFxG0ag9NF_18timekeeper_backend8handlers5admin10audit_logs13build_filterss1_0B9_
FN:306,_RNCNvNtNtNtCsjEFxG0ag9NF_18timekeeper_backend8handlers5admin10audit_logs13build_filterss2_0B9_
FN:308,_RNCNvNtNtNtCsjEFxG0ag9NF_18timekeeper_backend8handlers5admin10audit_logs13build_filterss3_0B9_
FN:314,_RNCNvNtNtNtCsjEFxG0ag9NF_18timekeeper_backend8handlers5admin10audit_logs13build_filterss4_0B9_
FN:315,_RNCNvNtNtNtCsjEFxG0ag9NF_18timekeeper_backend8handlers5admin10audit_logs13build_filterss5_0B9_
FN:316,_RNCNvNtNtNtCsjEFxG0ag9NF_18timekeeper_backend8handlers5admin10audit_logs13build_filterss6_0B9_
FN:284,_RNCNvNtNtNtCsjEFxG0ag9NF_18timekeeper_backend8handlers5admin10audit_logs13build_filterss_0B9_
FN:109,_RNCNvNtNtNtCsjEFxG0ag9NF_18timekeeper_backend8handlers5admin10audit_logs15list_audit_logs0B9_
FN:324,_RNCNvNtNtNtCsjEFxG0ag9NF_18timekeeper_backend8handlers5admin10audit_logs16normalize_filter0B9_
FN:325,_RNCNvNtNtNtCsjEFxG0ag9NF_18timekeeper_backend8handlers5admin10audit_logs16normalize_filters_0B9_
FN:152,_RNCNvNtNtNtCsjEFxG0ag9NF_18timekeeper_backend8handlers5admin10audit_logs17export_audit_logs0B9_
FN:134,_RNCNvNtNtNtCsjEFxG0ag9NF_18timekeeper_backend8handlers5admin10audit_logs20get_audit_log_detail0B9_
FN:221,_RNCNvNtNtNtCsjEFxG0ag9NF_18timekeeper_backend8handlers5admin10audit_logs21validate_export_query0B9_
FN:242,_RNCNvNtNtNtCsjEFxG0ag9NF_18timekeeper_backend8handlers5admin10audit_logs21validate_export_querys0_0B9_
FN:253,_RNCNvNtNtNtCsjEFxG0ag9NF_18timekeeper_backend8handlers5admin10audit_logs21validate_export_querys1_0B9_
FN:254,_RNCNvNtNtNtCsjEFxG0ag9NF_18timekeeper_backend8handlers5admin10audit_logs21validate_export_querys2_0B9_
FN:256,_RNCNvNtNtNtCsjEFxG0ag9NF_18timekeeper_backend8handlers5admin10audit_logs21validate_export_querys3_0B9_
FN:262,_RNCNvNtNtNtCsjEFxG0ag9NF_18timekeeper_backend8handlers5admin10audit_logs21validate_export_querys4_0B9_
FN:263,_RNCNvNtNtNtCsjEFxG0ag9NF_18timekeeper_backend8handlers5admin10audit_logs21validate_export_querys5_0B9_
FN:264,_RNCNvNtNtNtCsjEFxG0ag9NF_18timekeeper_backend8handlers5admin10audit_logs21validate_export_querys6_0B9_
FN:224,_RNCNvNtNtNtCsjEFxG0ag9NF_18timekeeper_backend8handlers5admin10audit_logs21validate_export_querys_0B9_
FN:179,_RNCNvNtNtNtCsjEFxG0ag9NF_18timekeeper_backend8handlers5admin10audit_logs23ensure_audit_log_access0B9_
FN:82,_RNCNvXNtNtNtCsjEFxG0ag9NF_18timekeeper_backend8handlers5admin10audit_logsNtB4_16AuditLogResponseINtNtCslH02haMvknO_4core7convert4FromNtNtNtBa_6models9audit_log8AuditLogE4from0Ba_
FN:281,_RNvNtNtNtCsjEFxG0ag9NF_18timekeeper_backend8handlers5admin10audit_logs13build_filters
FN:322,_RNvNtNtNtCsjEFxG0ag9NF_18timekeeper_backend8handlers5admin10audit_logs16normalize_filter
FN:337,_RNvNtNtNtCsjEFxG0ag9NF_18timekeeper_backend8handlers5admin10audit_logs17parse_to_datetime
FN:328,_RNvNtNtNtCsjEFxG0ag9NF_18timekeeper_backend8handlers5admin10audit_logs19parse_from_datetime
FN:199,_RNvNtNtNtCsjEFxG0ag9NF_18timekeeper_backend8handlers5admin10audit_logs19validate_list_query
FN:346,_RNvNtNtNtCsjEFxG0ag9NF_18timekeeper_backend8handlers5admin10audit_logs20parse_datetime_value
FN:220,_RNvNtNtNtCsjEFxG0ag9NF_18timekeeper_backend8handlers5admin10audit_logs21validate_export_query
FN:179,_RNvNtNtNtCsjEFxG0ag9NF_18timekeeper_backend8handlers5admin10audit_logs23ensure_audit_log_access
FN:78,_RNvXNtNtNtCsjEFxG0ag9NF_18timekeeper_backend8handlers5admin10audit_logsNtB2_16AuditLogResponseINtNtCslH02haMvknO_4core7convert4FromNtNtNtB8_6models9audit_log8AuditLogE4from
FN:281,_RNvNtNtNtCsiqn6J3Zmf7c_18timekeeper_backend8handlers5admin10audit_logs13build_filters
FN:105,_RNvNtNtNtCsiqn6J3Zmf7c_18timekeeper_backend8handlers5admin10audit_logs15list_audit_logs
FN:322,_RNvNtNtNtCsiqn6J3Zmf7c_18timekeeper_backend8handlers5admin10audit_logs16normalize_filter
FN:148,_RNvNtNtNtCsiqn6J3Zmf7c_18timekeeper_backend8handlers5admin10audit_logs17export_audit_logs
FN:337,_RNvNtNtNtCsiqn6J3Zmf7c_18timekeeper_backend8handlers5admin10audit_logs17parse_to_datetime
FN:328,_RNvNtNtNtCsiqn6J3Zmf7c_18timekeeper_backend8handlers5admin10audit_logs19parse_from_datetime
FN:199,_RNvNtNtNtCsiqn6J3Zmf7c_18timekeeper_backend8handlers5admin10audit_logs19validate_list_query
FN:130,_RNvNtNtNtCsiqn6J3Zmf7c_18timekeeper_backend8handlers5admin10audit_logs20get_audit_log_detail
FN:346,_RNvNtNtNtCsiqn6J3Zmf7c_18timekeeper_backend8handlers5admin10audit_logs20parse_datetime_value
FN:220,_RNvNtNtNtCsiqn6J3Zmf7c_18timekeeper_backend8handlers5admin10audit_logs21validate_export_query
FN:179,_RNvNtNtNtCsiqn6J3Zmf7c_18timekeeper_backend8handlers5admin10audit_logs23ensure_audit_log_access
FN:78,_RNvXNtNtNtCsiqn6J3Zmf7c_18timekeeper_backend8handlers5admin10audit_logsNtB2_16AuditLogResponseINtNtCslH02haMvknO_4core7convert4FromNtNtNtB8_6models9audit_log8AuditLogE4from
FN:117,_RNCNCNvNtNtNtCsiqn6J3Zmf7c_18timekeeper_backend8handlers5admin10audit_logs15list_audit_logs00Bb_
FN:158,_RNCNCNvNtNtNtCsiqn6J3Zmf7c_18timekeeper_backend8handlers5admin10audit_logs17export_audit_logs00Bb_
FN:174,_RNCNCNvNtNtNtCsiqn6J3Zmf7c_18timekeeper_backend8handlers5admin10audit_logs17export_audit_logs0s0_0Bb_
FN:161,_RNCNCNvNtNtNtCsiqn6J3Zmf7c_18timekeeper_backend8handlers5admin10audit_logs17export_audit_logs0s_0Bb_
FN:138,_RNCNCNvNtNtNtCsiqn6J3Zmf7c_18timekeeper_backend8handlers5admin10audit_logs20get_audit_log_detail00Bb_
FN:143,_RNCNCNvNtNtNtCsiqn6J3Zmf7c_18timekeeper_backend8handlers5admin10audit_logs20get_audit_log_detail0s0_0Bb_
FN:142,_RNCNCNvNtNtNtCsiqn6J3Zmf7c_18timekeeper_backend8handlers5admin10audit_logs20get_audit_log_detail0s_0Bb_
FN:187,_RNCNCNvNtNtNtCsiqn6J3Zmf7c_18timekeeper_backend8handlers5admin10audit_logs23ensure_audit_log_access00Bb_
FN:283,_RNCNvNtNtNtCsiqn6J3Zmf7c_18timekeeper_backend8handlers5admin10audit_logs13build_filters0B9_
FN:294,_RNCNvNtNtNtCsiqn6J3Zmf7c_18timekeeper_backend8handlers5admin10audit_logs13build_filterss0_0B9_
FN:305,_RNCNvNtNtNtCsiqn6J3Zmf7c_18timekeeper_backend8handlers5admin10audit_logs13build_filterss1_0B9_
FN:306,_RNCNvNtNtNtCsiqn6J3Zmf7c_18timekeeper_backend8handlers5admin10audit_logs13build_filterss2_0B9_
FN:308,_RNCNvNtNtNtCsiqn6J3Zmf7c_18timekeeper_backend8handlers5admin10audit_logs13build_filterss3_0B9_
FN:314,_RNCNvNtNtNtCsiqn6J3Zmf7c_18timekeeper_backend8handlers5admin10audit_logs13build_filterss4_0B9_
FN:315,_RNCNvNtNtNtCsiqn6J3Zmf7c_18timekeeper_backend8handlers5admin10audit_logs13build_filterss5_0B9_
FN:316,_RNCNvNtNtNtCsiqn6J3Zmf7c_18timekeeper_backend8handlers5admin10audit_logs13build_filterss6_0B9_
FN:284,_RNCNvNtNtNtCsiqn6J3Zmf7c_18timekeeper_backend8handlers5admin10audit_logs13build_filterss_0B9_
FN:109,_RNCNvNtNtNtCsiqn6J3Zmf7c_18timekeeper_backend8handlers5admin10audit_logs15list_audit_logs0B9_
FN:324,_RNCNvNtNtNtCsiqn6J3Zmf7c_18timekeeper_backend8handlers5admin10audit_logs16normalize_filter0B9_
FN:325,_RNCNvNtNtNtCsiqn6J3Zmf7c_18timekeeper_backend8handlers5admin10audit_logs16normalize_filters_0B9_
FN:152,_RNCNvNtNtNtCsiqn6J3Zmf7c_18timekeeper_backend8handlers5admin10audit_logs17export_audit_logs0B9_
FN:134,_RNCNvNtNtNtCsiqn6J3Zmf7c_18timekeeper_backend8handlers5admin10audit_logs20get_audit_log_detail0B9_
FN:221,_RNCNvNtNtNtCsiqn6J3Zmf7c_18timekeeper_backend8handlers5admin10audit_logs21validate_export_query0B9_
FN:242,_RNCNvNtNtNtCsiqn6J3Zmf7c_18timekeeper_backend8handlers5admin10audit_logs21validate_export_querys0_0B9_
FN:253,_RNCNvNtNtNtCsiqn6J3Zmf7c_18timekeeper_backend8handlers5admin10audit_logs21validate_export_querys1_0B9_
FN:254,_RNCNvNtNtNtCsiqn6J3Zmf7c_18timekeeper_backend8handlers5admin10audit_logs21validate_export_querys2_0B9_
FN:256,_RNCNvNtNtNtCsiqn6J3Zmf7c_18timekeeper_backend8handlers5admin10audit_logs21validate_export_querys3_0B9_
FN:262,_RNCNvNtNtNtCsiqn6J3Zmf7c_18timekeeper_backend8handlers5admin10audit_logs21validate_export_querys4_0B9_
FN:263,_RNCNvNtNtNtCsiqn6J3Zmf7c_18timekeeper_backend8handlers5admin10audit_logs21validate_export_querys5_0B9_
FN:264,_RNCNvNtNtNtCsiqn6J3Zmf7c_18timekeeper_backend8handlers5admin10audit_logs21validate_export_querys6_0B9_
FN:224,_RNCNvNtNtNtCsiqn6J3Zmf7c_18timekeeper_backend8handlers5admin10audit_logs21validate_export_querys_0B9_
FN:179,_RNCNvNtNtNtCsiqn6J3Zmf7c_18timekeeper_backend8handlers5admin10audit_logs23ensure_audit_log_access0B9_
FN:82,_RNCNvXNtNtNtCsiqn6J3Zmf7c_18timekeeper_backend8handlers5admin10audit_logsNtB4_16AuditLogResponseINtNtCslH02haMvknO_4core7convert4FromNtNtNtBa_6models9audit_log8AuditLogE4from0Ba_
FN:105,_RNvNtNtNtCs86yVScfUyun_18timekeeper_backend8handlers5admin10audit_logs15list_audit_logs
FN:148,_RNvNtNtNtCs86yVScfUyun_18timekeeper_backend8handlers5admin10audit_logs17export_audit_logs
FN:130,_RNvNtNtNtCs86yVScfUyun_18timekeeper_backend8handlers5admin10audit_logs20get_audit_log_detail
FN:117,_RNCNCNvNtNtNtCs86yVScfUyun_18timekeeper_backend8handlers5admin10audit_logs15list_audit_logs00Bb_
FN:158,_RNCNCNvNtNtNtCs86yVScfUyun_18timekeeper_backend8handlers5admin10audit_logs17export_audit_logs00Bb_
FN:174,_RNCNCNvNtNtNtCs86yVScfUyun_18timekeeper_backend8handlers5admin10audit_logs17export_audit_logs0s0_0Bb_
FN:161,_RNCNCNvNtNtNtCs86yVScfUyun_18timekeeper_backend8handlers5admin10audit_logs17export_audit_logs0s_0Bb_
FN:138,_RNCNCNvNtNtNtCs86yVScfUyun_18timekeeper_backend8handlers5admin10audit_logs20get_audit_log_detail00Bb_
FN:143,_RNCNCNvNtNtNtCs86yVScfUyun_18timekeeper_backend8handlers5admin10audit_logs20get_audit_log_detail0s0_0Bb_
FN:142,_RNCNCNvNtNtNtCs86yVScfUyun_18timekeeper_backend8handlers5admin10audit_logs20get_audit_log_detail0s_0Bb_
FN:187,_RNCNCNvNtNtNtCs86yVScfUyun_18timekeeper_backend8handlers5admin10audit_logs23ensure_audit_log_access00Bb_
FN:283,_RNCNvNtNtNtCs86yVScfUyun_18timekeeper_backend8handlers5admin10audit_logs13build_filters0B9_
FN:294,_RNCNvNtNtNtCs86yVScfUyun_18timekeeper_backend8handlers5admin10audit_logs13build_filterss0_0B9_
FN:305,_RNCNvNtNtNtCs86yVScfUyun_18timekeeper_backend8handlers5admin10audit_logs13build_filterss1_0B9_
FN:306,_RNCNvNtNtNtCs86yVScfUyun_18timekeeper_backend8handlers5admin10audit_logs13build_filterss2_0B9_
FN:308,_RNCNvNtNtNtCs86yVScfUyun_18timekeeper_backend8handlers5admin10audit_logs13build_filterss3_0B9_
FN:314,_RNCNvNtNtNtCs86yVScfUyun_18timekeeper_backend8handlers5admin10audit_logs13build_filterss4_0B9_
FN:315,_RNCNvNtNtNtCs86yVScfUyun_18timekeeper_backend8handlers5admin10audit_logs13build_filterss5_0B9_
FN:316,_RNCNvNtNtNtCs86yVScfUyun_18timekeeper_backend8handlers5admin10audit_logs13build_filterss6_0B9_
FN:284,_RNCNvNtNtNtCs86yVScfUyun_18timekeeper_backend8handlers5admin10audit_logs13build_filterss_0B9_
FN:109,_RNCNvNtNtNtCs86yVScfUyun_18timekeeper_backend8handlers5admin10audit_logs15list_audit_logs0B9_
FN:324,_RNCNvNtNtNtCs86yVScfUyun_18timekeeper_backend8handlers5admin10audit_logs16normalize_filter0B9_
FN:325,_RNCNvNtNtNtCs86yVScfUyun_18timekeeper_backend8handlers5admin10audit_logs16normalize_filters_0B9_
FN:152,_RNCNvNtNtNtCs86yVScfUyun_18timekeeper_backend8handlers5admin10audit_logs17export_audit_logs0B9_
FN:134,_RNCNvNtNtNtCs86yVScfUyun_18timekeeper_backend8handlers5admin10audit_logs20get_audit_log_detail0B9_
FN:221,_RNCNvNtNtNtCs86yVScfUyun_18timekeeper_backend8handlers5admin10audit_logs21validate_export_query0B9_
FN:242,_RNCNvNtNtNtCs86yVScfUyun_18timekeeper_backend8handlers5admin10audit_logs21validate_export_querys0_0B9_
FN:253,_RNCNvNtNtNtCs86yVScfUyun_18timekeeper_backend8handlers5admin10audit_logs21validate_export_querys1_0B9_
FN:254,_RNCNvNtNtNtCs86yVScfUyun_18timekeeper_backend8handlers5admin10audit_logs21validate_export_querys2_0B9_
FN:256,_RNCNvNtNtNtCs86yVScfUyun_18timekeeper_backend8handlers5admin10audit_logs21validate_export_querys3_0B9_
FN:262,_RNCNvNtNtNtCs86yVScfUyun_18timekeeper_backend8handlers5admin10audit_logs21validate_export_querys4_0B9_
FN:263,_RNCNvNtNtNtCs86yVScfUyun_18timekeeper_backend8handlers5admin10audit_logs21validate_export_querys5_0B9_
FN:264,_RNCNvNtNtNtCs86yVScfUyun_18timekeeper_backend8handlers5admin10audit_logs21validate_export_querys6_0B9_
FN:224,_RNCNvNtNtNtCs86yVScfUyun_18timekeeper_backend8handlers5admin10audit_logs21validate_export_querys_0B9_
FN:179,_RNCNvNtNtNtCs86yVScfUyun_18timekeeper_backend8handlers5admin10audit_logs23ensure_audit_log_access0B9_
FN:82,_RNCNvXNtNtNtCs86yVScfUyun_18timekeeper_backend8handlers5admin10audit_logsNtB4_16AuditLogResponseINtNtCslH02haMvknO_4core7convert4FromNtNtNtBa_6models9audit_log8AuditLogE4from0Ba_
FN:281,_RNvNtNtNtCs86yVScfUyun_18timekeeper_backend8handlers5admin10audit_logs13build_filters
FN:322,_RNvNtNtNtCs86yVScfUyun_18timekeeper_backend8handlers5admin10audit_logs16normalize_filter
FN:337,_RNvNtNtNtCs86yVScfUyun_18timekeeper_backend8handlers5admin10audit_logs17parse_to_datetime
FN:328,_RNvNtNtNtCs86yVScfUyun_18timekeeper_backend8handlers5admin10audit_logs19parse_from_datetime
FN:199,_RNvNtNtNtCs86yVScfUyun_18timekeeper_backend8handlers5admin10audit_logs19validate_list_query
FN:346,_RNvNtNtNtCs86yVScfUyun_18timekeeper_backend8handlers5admin10audit_logs20parse_datetime_value
FN:220,_RNvNtNtNtCs86yVScfUyun_18timekeeper_backend8handlers5admin10audit_logs21validate_export_query
FN:179,_RNvNtNtNtCs86yVScfUyun_18timekeeper_backend8handlers5admin10audit_logs23ensure_audit_log_access
FN:78,_RNvXNtNtNtCs86yVScfUyun_18timekeeper_backend8handlers5admin10audit_logsNtB2_16AuditLogResponseINtNtCslH02haMvknO_4core7convert4FromNtNtNtB8_6models9audit_log8AuditLogE4from
FNDA:0,_RNCNCNvNtNtNtCs2oPl7zguF9n_18timekeeper_backend8handlers5admin10audit_logs15list_audit_logs00Bb_
FNDA:0,_RNCNCNvNtNtNtCs2oPl7zguF9n_18timekeeper_backend8handlers5admin10audit_logs17export_audit_logs00Bb_
FNDA:0,_RNCNCNvNtNtNtCs2oPl7zguF9n_18timekeeper_backend8handlers5admin10audit_logs17export_audit_logs0s0_0Bb_
FNDA:0,_RNCNCNvNtNtNtCs2oPl7zguF9n_18timekeeper_backend8handlers5admin10audit_logs17export_audit_logs0s_0Bb_
FNDA:0,_RNCNCNvNtNtNtCs2oPl7zguF9n_18timekeeper_backend8handlers5admin10audit_logs20get_audit_log_detail00Bb_
FNDA:1,_RNCNCNvNtNtNtCs2oPl7zguF9n_18timekeeper_backend8handlers5admin10audit_logs20get_audit_log_detail0s0_0Bb_
FNDA:0,_RNCNCNvNtNtNtCs2oPl7zguF9n_18timekeeper_backend8handlers5admin10audit_logs20get_audit_log_detail0s_0Bb_
FNDA:0,_RNCNCNvNtNtNtCs2oPl7zguF9n_18timekeeper_backend8handlers5admin10audit_logs23ensure_audit_log_access00Bb_
FNDA:1,_RNCNvNtNtNtCs2oPl7zguF9n_18timekeeper_backend8handlers5admin10audit_logs13build_filters0B9_
FNDA:4,_RNCNvNtNtNtCs2oPl7zguF9n_18timekeeper_backend8handlers5admin10audit_logs13build_filterss0_0B9_
FNDA:2,_RNCNvNtNtNtCs2oPl7zguF9n_18timekeeper_backend8handlers5admin10audit_logs13build_filterss1_0B9_
FNDA:2,_RNCNvNtNtNtCs2oPl7zguF9n_18timekeeper_backend8handlers5admin10audit_logs13build_filterss2_0B9_
FNDA:0,_RNCNvNtNtNtCs2oPl7zguF9n_18timekeeper_backend8handlers5admin10audit_logs13build_filterss3_0B9_
FNDA:0,_RNCNvNtNtNtCs2oPl7zguF9n_18timekeeper_backend8handlers5admin10audit_logs13build_filterss4_0B9_
FNDA:1,_RNCNvNtNtNtCs2oPl7zguF9n_18timekeeper_backend8handlers5admin10audit_logs13build_filterss5_0B9_
FNDA:0,_RNCNvNtNtNtCs2oPl7zguF9n_18timekeeper_backend8handlers5admin10audit_logs13build_filterss6_0B9_
FNDA:0,_RNCNvNtNtNtCs2oPl7zguF9n_18timekeeper_backend8handlers5admin10audit_logs13build_filterss_0B9_
FNDA:14,_RNCNvNtNtNtCs2oPl7zguF9n_18timekeeper_backend8handlers5admin10audit_logs15list_audit_logs0B9_
FNDA:7,_RNCNvNtNtNtCs2oPl7zguF9n_18timekeeper_backend8handlers5admin10audit_logs16normalize_filter0B9_
FNDA:7,_RNCNvNtNtNtCs2oPl7zguF9n_18timekeeper_backend8handlers5admin10audit_logs16normalize_filters_0B9_
FNDA:5,_RNCNvNtNtNtCs2oPl7zguF9n_18timekeeper_backend8handlers5admin10audit_logs17export_audit_logs0B9_
FNDA:3,_RNCNvNtNtNtCs2oPl7zguF9n_18timekeeper_backend8handlers5admin10audit_logs20get_audit_log_detail0B9_
FNDA:0,_RNCNvNtNtNtCs2oPl7zguF9n_18timekeeper_backend8handlers5admin10audit_logs21validate_export_query0B9_
FNDA:0,_RNCNvNtNtNtCs2oPl7zguF9n_18timekeeper_backend8handlers5admin10audit_logs21validate_export_querys0_0B9_
FNDA:0,_RNCNvNtNtNtCs2oPl7zguF9n_18timekeeper_backend8handlers5admin10audit_logs21validate_export_querys1_0B9_
FNDA:0,_RNCNvNtNtNtCs2oPl7zguF9n_18timekeeper_backend8handlers5admin10audit_logs21validate_export_querys2_0B9_
FNDA:0,_RNCNvNtNtNtCs2oPl7zguF9n_18timekeeper_backend8handlers5admin10audit_logs21validate_export_querys3_0B9_
FNDA:0,_RNCNvNtNtNtCs2oPl7zguF9n_18timekeeper_backend8handlers5admin10audit_logs21validate_export_querys4_0B9_
FNDA:1,_RNCNvNtNtNtCs2oPl7zguF9n_18timekeeper_backend8handlers5admin10audit_logs21validate_export_querys5_0B9_
FNDA:0,_RNCNvNtNtNtCs2oPl7zguF9n_18timekeeper_backend8handlers5admin10audit_logs21validate_export_querys6_0B9_
FNDA:0,_RNCNvNtNtNtCs2oPl7zguF9n_18timekeeper_backend8handlers5admin10audit_logs21validate_export_querys_0B9_
FNDA:22,_RNCNvNtNtNtCs2oPl7zguF9n_18timekeeper_backend8handlers5admin10audit_logs23ensure_audit_log_access0B9_
FNDA:17,_RNCNvXNtNtNtCs2oPl7zguF9n_18timekeeper_backend8handlers5admin10audit_logsNtB4_16AuditLogResponseINtNtCslH02haMvknO_4core7convert4FromNtNtNtBa_6models9audit_log8AuditLogE4from0Ba_
FNDA:11,_RNvNtNtNtCs2oPl7zguF9n_18timekeeper_backend8handlers5admin10audit_logs13build_filters
FNDA:14,_RNvNtNtNtCs2oPl7zguF9n_18timekeeper_backend8handlers5admin10audit_logs15list_audit_logs
FNDA:52,_RNvNtNtNtCs2oPl7zguF9n_18timekeeper_backend8handlers5admin10audit_logs16normalize_filter
FNDA:5,_RNvNtNtNtCs2oPl7zguF9n_18timekeeper_backend8handlers5admin10audit_logs17export_audit_logs
FNDA:10,_RNvNtNtNtCs2oPl7zguF9n_18timekeeper_backend8handlers5admin10audit_logs17parse_to_datetime
FNDA:11,_RNvNtNtNtCs2oPl7zguF9n_18timekeeper_backend8handlers5admin10audit_logs19parse_from_datetime
FNDA:11,_RNvNtNtNtCs2oPl7zguF9n_18timekeeper_backend8handlers5admin10audit_logs19validate_list_query
FNDA:3,_RNvNtNtNtCs2oPl7zguF9n_18timekeeper_backend8handlers5admin10audit_logs20get_audit_log_detail
FNDA:13,_RNvNtNtNtCs2oPl7zguF9n_18timekeeper_backend8handlers5admin10audit_logs20parse_datetime_value
FNDA:5,_RNvNtNtNtCs2oPl7zguF9n_18timekeeper_backend8handlers5admin10audit_logs21validate_export_query
FNDA:22,_RNvNtNtNtCs2oPl7zguF9n_18timekeeper_backend8handlers5admin10audit_logs23ensure_audit_log_access
FNDA:17,_RNvXNtNtNtCs2oPl7zguF9n_18timekeeper_backend8handlers5admin10audit_logsNtB2_16AuditLogResponseINtNtCslH02haMvknO_4core7convert4FromNtNtNtB8_6models9audit_log8AuditLogE4from
FNDA:0,_RNvNtNtNtCsjEFxG0ag9NF_18timekeeper_backend8handlers5admin10audit_logs15list_audit_logs
FNDA:0,_RNvNtNtNtCsjEFxG0ag9NF_18timekeeper_backend8handlers5admin10audit_logs17export_audit_logs
FNDA:0,_RNvNtNtNtCsjEFxG0ag9NF_18timekeeper_backend8handlers5admin10audit_logs20get_audit_log_detail
FNDA:0,_RNCNCNvNtNtNtCsjEFxG0ag9NF_18timekeeper_backend8handlers5admin10audit_logs15list_audit_logs00Bb_
FNDA:0,_RNCNCNvNtNtNtCsjEFxG0ag9NF_18timekeeper_backend8handlers5admin10audit_logs17export_audit_logs00Bb_
FNDA:0,_RNCNCNvNtNtNtCsjEFxG0ag9NF_18timekeeper_backend8handlers5admin10audit_logs17export_audit_logs0s0_0Bb_
FNDA:0,_RNCNCNvNtNtNtCsjEFxG0ag9NF_18timekeeper_backend8handlers5admin10audit_logs17export_audit_logs0s_0Bb_
FNDA:0,_RNCNCNvNtNtNtCsjEFxG0ag9NF_18timekeeper_backend8handlers5admin10audit_logs20get_audit_log_detail00Bb_
FNDA:0,_RNCNCNvNtNtNtCsjEFxG0ag9NF_18timekeeper_backend8handlers5admin10audit_logs20get_audit_log_detail0s0_0Bb_
FNDA:0,_RNCNCNvNtNtNtCsjEFxG0ag9NF_18timekeeper_backend8handlers5admin10audit_logs20get_audit_log_detail0s_0Bb_
FNDA:0,_RNCNCNvNtNtNtCsjEFxG0ag9NF_18timekeeper_backend8handlers5admin10audit_logs23ensure_audit_log_access00Bb_
FNDA:0,_RNCNvNtNtNtCsjEFxG0ag9NF_18timekeeper_backend8handlers5admin10audit_logs13build_filters0B9_
FNDA:0,_RNCNvNtNtNtCsjEFxG0ag9NF_18timekeeper_backend8handlers5admin10audit_logs13build_filterss0_0B9_
FNDA:0,_RNCNvNtNtNtCsjEFxG0ag9NF_18timekeeper_backend8handlers5admin10audit_logs13build_filterss1_0B9_
FNDA:0,_RNCNvNtNtNtCsjEFxG0ag9NF_18timekeeper_backend8handlers5admin10audit_logs13build_filterss2_0B9_
FNDA:0,_RNCNvNtNtNtCsjEFxG0ag9NF_18timekeeper_backend8handlers5admin10audit_logs13build_filterss3_0B9_
FNDA:0,_RNCNvNtNtNtCsjEFxG0ag9NF_18timekeeper_backend8handlers5admin10audit_logs13build_filterss4_0B9_
FNDA:0,_RNCNvNtNtNtCsjEFxG0ag9NF_18timekeeper_backend8handlers5admin10audit_logs13build_filterss5_0B9_
FNDA:0,_RNCNvNtNtNtCsjEFxG0ag9NF_18timekeeper_backend8handlers5admin10audit_logs13build_filterss6_0B9_
FNDA:0,_RNCNvNtNtNtCsjEFxG0ag9NF_18timekeeper_backend8handlers5admin10audit_logs13build_filterss_0B9_
FNDA:0,_RNCNvNtNtNtCsjEFxG0ag9NF_18timekeeper_backend8handlers5admin10audit_logs15list_audit_logs0B9_
FNDA:0,_RNCNvNtNtNtCsjEFxG0ag9NF_18timekeeper_backend8handlers5admin10audit_logs16normalize_filter0B9_
FNDA:0,_RNCNvNtNtNtCsjEFxG0ag9NF_18timekeeper_backend8handlers5admin10audit_logs16normalize_filters_0B9_
FNDA:0,_RNCNvNtNtNtCsjEFxG0ag9NF_18timekeeper_backend8handlers5admin10audit_logs17export_audit_logs0B9_
FNDA:0,_RNCNvNtNtNtCsjEFxG0ag9NF_18timekeeper_backend8handlers5admin10audit_logs20get_audit_log_detail0B9_
FNDA:0,_RNCNvNtNtNtCsjEFxG0ag9NF_18timekeeper_backend8handlers5admin10audit_logs21validate_export_query0B9_
FNDA:0,_RNCNvNtNtNtCsjEFxG0ag9NF_18timekeeper_backend8handlers5admin10audit_logs21validate_export_querys0_0B9_
FNDA:0,_RNCNvNtNtNtCsjEFxG0ag9NF_18timekeeper_backend8handlers5admin10audit_logs21validate_export_querys1_0B9_
FNDA:0,_RNCNvNtNtNtCsjEFxG0ag9NF_18timekeeper_backend8handlers5admin10audit_logs21validate_export_querys2_0B9_
FNDA:0,_RNCNvNtNtNtCsjEFxG0ag9NF_18timekeeper_backend8handlers5admin10audit_logs21validate_export_querys3_0B9_
FNDA:0,_RNCNvNtNtNtCsjEFxG0ag9NF_18timekeeper_backend8handlers5admin10audit_logs21validate_export_querys4_0B9_
FNDA:0,_RNCNvNtNtNtCsjEFxG0ag9NF_18timekeeper_backend8handlers5admin10audit_logs21validate_export_querys5_0B9_
FNDA:0,_RNCNvNtNtNtCsjEFxG0ag9NF_18timekeeper_backend8handlers5admin10audit_logs21validate_export_querys6_0B9_
FNDA:0,_RNCNvNtNtNtCsjEFxG0ag9NF_18timekeeper_backend8handlers5admin10audit_logs21validate_export_querys_0B9_
FNDA:0,_RNCNvNtNtNtCsjEFxG0ag9NF_18timekeeper_backend8handlers5admin10audit_logs23ensure_audit_log_access0B9_
FNDA:0,_RNCNvXNtNtNtCsjEFxG0ag9NF_18timekeeper_backend8handlers5admin10audit_logsNtB4_16AuditLogResponseINtNtCslH02haMvknO_4core7convert4FromNtNtNtBa_6models9audit_log8AuditLogE4from0Ba_
FNDA:0,_RNvNtNtNtCsjEFxG0ag9NF_18timekeeper_backend8handlers5admin10audit_logs13build_filters
FNDA:0,_RNvNtNtNtCsjEFxG0ag9NF_18timekeeper_backend8handlers5admin10audit_logs16normalize_filter
FNDA:0,_RNvNtNtNtCsjEFxG0ag9NF_18timekeeper_backend8handlers5admin10audit_logs17parse_to_datetime
FNDA:0,_RNvNtNtNtCsjEFxG0ag9NF_18timekeeper_backend8handlers5admin10audit_logs19parse_from_datetime
FNDA:0,_RNvNtNtNtCsjEFxG0ag9NF_18timekeeper_backend8handlers5admin10audit_logs19validate_list_query
FNDA:0,_RNvNtNtNtCsjEFxG0ag9NF_18timekeeper_backend8handlers5admin10audit_logs20parse_datetime_value
FNDA:0,_RNvNtNtNtCsjEFxG0ag9NF_18timekeeper_backend8handlers5admin10audit_logs21validate_export_query
FNDA:0,_RNvNtNtNtCsjEFxG0ag9NF_18timekeeper_backend8handlers5admin10audit_logs23ensure_audit_log_access
FNDA:0,_RNvXNtNtNtCsjEFxG0ag9NF_18timekeeper_backend8handlers5admin10audit_logsNtB2_16AuditLogResponseINtNtCslH02haMvknO_4core7convert4FromNtNtNtB8_6models9audit_log8AuditLogE4from
FNDA:0,_RNvNtNtNtCsiqn6J3Zmf7c_18timekeeper_backend8handlers5admin10audit_logs13build_filters
FNDA:0,_RNvNtNtNtCsiqn6J3Zmf7c_18timekeeper_backend8handlers5admin10audit_logs15list_audit_logs
FNDA:0,_RNvNtNtNtCsiqn6J3Zmf7c_18timekeeper_backend8handlers5admin10audit_logs16normalize_filter
FNDA:0,_RNvNtNtNtCsiqn6J3Zmf7c_18timekeeper_backend8handlers5admin10audit_logs17export_audit_logs
FNDA:0,_RNvNtNtNtCsiqn6J3Zmf7c_18timekeeper_backend8handlers5admin10audit_logs17parse_to_datetime
FNDA:0,_RNvNtNtNtCsiqn6J3Zmf7c_18timekeeper_backend8handlers5admin10audit_logs19parse_from_datetime
FNDA:0,_RNvNtNtNtCsiqn6J3Zmf7c_18timekeeper_backend8handlers5admin10audit_logs19validate_list_query
FNDA:0,_RNvNtNtNtCsiqn6J3Zmf7c_18timekeeper_backend8handlers5admin10audit_logs20get_audit_log_detail
FNDA:0,_RNvNtNtNtCsiqn6J3Zmf7c_18timekeeper_backend8handlers5admin10audit_logs20parse_datetime_value
FNDA:0,_RNvNtNtNtCsiqn6J3Zmf7c_18timekeeper_backend8handlers5admin10audit_logs21validate_export_query
FNDA:0,_RNvNtNtNtCsiqn6J3Zmf7c_18timekeeper_backend8handlers5admin10audit_logs23ensure_audit_log_access
FNDA:0,_RNvXNtNtNtCsiqn6J3Zmf7c_18timekeeper_backend8handlers5admin10audit_logsNtB2_16AuditLogResponseINtNtCslH02haMvknO_4core7convert4FromNtNtNtB8_6models9audit_log8AuditLogE4from
FNDA:0,_RNCNCNvNtNtNtCsiqn6J3Zmf7c_18timekeeper_backend8handlers5admin10audit_logs15list_audit_logs00Bb_
FNDA:0,_RNCNCNvNtNtNtCsiqn6J3Zmf7c_18timekeeper_backend8handlers5admin10audit_logs17export_audit_logs00Bb_
FNDA:0,_RNCNCNvNtNtNtCsiqn6J3Zmf7c_18timekeeper_backend8handlers5admin10audit_logs17export_audit_logs0s0_0Bb_
FNDA:0,_RNCNCNvNtNtNtCsiqn6J3Zmf7c_18timekeeper_backend8handlers5admin10audit_logs17export_audit_logs0s_0Bb_
FNDA:0,_RNCNCNvNtNtNtCsiqn6J3Zmf7c_18timekeeper_backend8handlers5admin10audit_logs20get_audit_log_detail00Bb_
FNDA:0,_RNCNCNvNtNtNtCsiqn6J3Zmf7c_18timekeeper_backend8handlers5admin10audit_logs20get_audit_log_detail0s0_0Bb_
FNDA:0,_RNCNCNvNtNtNtCsiqn6J3Zmf7c_18timekeeper_backend8handlers5admin10audit_logs20get_audit_log_detail0s_0Bb_
FNDA:0,_RNCNCNvNtNtNtCsiqn6J3Zmf7c_18timekeeper_backend8handlers5admin10audit_logs23ensure_audit_log_access00Bb_
FNDA:0,_RNCNvNtNtNtCsiqn6J3Zmf7c_18timekeeper_backend8handlers5admin10audit_logs13build_filters0B9_
FNDA:0,_RNCNvNtNtNtCsiqn6J3Zmf7c_18timekeeper_backend8handlers5admin10audit_logs13build_filterss0_0B9_
FNDA:0,_RNCNvNtNtNtCsiqn6J3Zmf7c_18timekeeper_backend8handlers5admin10audit_logs13build_filterss1_0B9_
FNDA:0,_RNCNvNtNtNtCsiqn6J3Zmf7c_18timekeeper_backend8handlers5admin10audit_logs13build_filterss2_0B9_
FNDA:0,_RNCNvNtNtNtCsiqn6J3Zmf7c_18timekeeper_backend8handlers5admin10audit_logs13build_filterss3_0B9_
FNDA:0,_RNCNvNtNtNtCsiqn6J3Zmf7c_18timekeeper_backend8handlers5admin10audit_logs13build_filterss4_0B9_
FNDA:0,_RNCNvNtNtNtCsiqn6J3Zmf7c_18timekeeper_backend8handlers5admin10audit_logs13build_filterss5_0B9_
FNDA:0,_RNCNvNtNtNtCsiqn6J3Zmf7c_18timekeeper_backend8handlers5admin10audit_logs13build_filterss6_0B9_
FNDA:0,_RNCNvNtNtNtCsiqn6J3Zmf7c_18timekeeper_backend8handlers5admin10audit_logs13build_filterss_0B9_
FNDA:0,_RNCNvNtNtNtCsiqn6J3Zmf7c_18timekeeper_backend8handlers5admin10audit_logs15list_audit_logs0B9_
FNDA:0,_RNCNvNtNtNtCsiqn6J3Zmf7c_18timekeeper_backend8handlers5admin10audit_logs16normalize_filter0B9_
FNDA:0,_RNCNvNtNtNtCsiqn6J3Zmf7c_18timekeeper_backend8handlers5admin10audit_logs16normalize_filters_0B9_
FNDA:0,_RNCNvNtNtNtCsiqn6J3Zmf7c_18timekeeper_backend8handlers5admin10audit_logs17export_audit_logs0B9_
FNDA:0,_RNCNvNtNtNtCsiqn6J3Zmf7c_18timekeeper_backend8handlers5admin10audit_logs20get_audit_log_detail0B9_
FNDA:0,_RNCNvNtNtNtCsiqn6J3Zmf7c_18timekeeper_backend8handlers5admin10audit_logs21validate_export_query0B9_
FNDA:0,_RNCNvNtNtNtCsiqn6J3Zmf7c_18timekeeper_backend8handlers5admin10audit_logs21validate_export_querys0_0B9_
FNDA:0,_RNCNvNtNtNtCsiqn6J3Zmf7c_18timekeeper_backend8handlers5admin10audit_logs21validate_export_querys1_0B9_
FNDA:0,_RNCNvNtNtNtCsiqn6J3Zmf7c_18timekeeper_backend8handlers5admin10audit_logs21validate_export_querys2_0B9_
FNDA:0,_RNCNvNtNtNtCsiqn6J3Zmf7c_18timekeeper_backend8handlers5admin10audit_logs21validate_export_querys3_0B9_
FNDA:0,_RNCNvNtNtNtCsiqn6J3Zmf7c_18timekeeper_backend8handlers5admin10audit_logs21validate_export_querys4_0B9_
FNDA:0,_RNCNvNtNtNtCsiqn6J3Zmf7c_18timekeeper_backend8handlers5admin10audit_logs21validate_export_querys5_0B9_
FNDA:0,_RNCNvNtNtNtCsiqn6J3Zmf7c_18timekeeper_backend8handlers5admin10audit_logs21validate_export_querys6_0B9_
FNDA:0,_RNCNvNtNtNtCsiqn6J3Zmf7c_18timekeeper_backend8handlers5admin10audit_logs21validate_export_querys_0B9_
FNDA:0,_RNCNvNtNtNtCsiqn6J3Zmf7c_18timekeeper_backend8handlers5admin10audit_logs23ensure_audit_log_access0B9_
FNDA:0,_RNCNvXNtNtNtCsiqn6J3Zmf7c_18timekeeper_backend8handlers5admin10audit_logsNtB4_16AuditLogResponseINtNtCslH02haMvknO_4core7convert4FromNtNtNtBa_6models9audit_log8AuditLogE4from0Ba_
FNDA:0,_RNvNtNtNtCs86yVScfUyun_18timekeeper_backend8handlers5admin10audit_logs15list_audit_logs
FNDA:0,_RNvNtNtNtCs86yVScfUyun_18timekeeper_backend8handlers5admin10audit_logs17export_audit_logs
FNDA:0,_RNvNtNtNtCs86yVScfUyun_18timekeeper_backend8handlers5admin10audit_logs20get_audit_log_detail
FNDA:0,_RNCNCNvNtNtNtCs86yVScfUyun_18timekeeper_backend8handlers5admin10audit_logs15list_audit_logs00Bb_
FNDA:0,_RNCNCNvNtNtNtCs86yVScfUyun_18timekeeper_backend8handlers5admin10audit_logs17export_audit_logs00Bb_
FNDA:0,_RNCNCNvNtNtNtCs86yVScfUyun_18timekeeper_backend8handlers5admin10audit_logs17export_audit_logs0s0_0Bb_
FNDA:0,_RNCNCNvNtNtNtCs86yVScfUyun_18timekeeper_backend8handlers5admin10audit_logs17export_audit_logs0s_0Bb_
FNDA:0,_RNCNCNvNtNtNtCs86yVScfUyun_18timekeeper_backend8handlers5admin10audit_logs20get_audit_log_detail00Bb_
FNDA:0,_RNCNCNvNtNtNtCs86yVScfUyun_18timekeeper_backend8handlers5admin10audit_logs20get_audit_log_detail0s0_0Bb_
FNDA:0,_RNCNCNvNtNtNtCs86yVScfUyun_18timekeeper_backend8handlers5admin10audit_logs20get_audit_log_detail0s_0Bb_
FNDA:0,_RNCNCNvNtNtNtCs86yVScfUyun_18timekeeper_backend8handlers5admin10audit_logs23ensure_audit_log_access00Bb_
FNDA:0,_RNCNvNtNtNtCs86yVScfUyun_18timekeeper_backend8handlers5admin10audit_logs13build_filters0B9_
FNDA:0,_RNCNvNtNtNtCs86yVScfUyun_18timekeeper_backend8handlers5admin10audit_logs13build_filterss0_0B9_
FNDA:0,_RNCNvNtNtNtCs86yVScfUyun_18timekeeper_backend8handlers5admin10audit_logs13build_filterss1_0B9_
FNDA:0,_RNCNvNtNtNtCs86yVScfUyun_18timekeeper_backend8handlers5admin10audit_logs13build_filterss2_0B9_
FNDA:0,_RNCNvNtNtNtCs86yVScfUyun_18timekeeper_backend8handlers5admin10audit_logs13build_filterss3_0B9_
FNDA:0,_RNCNvNtNtNtCs86yVScfUyun_18timekeeper_backend8handlers5admin10audit_logs13build_filterss4_0B9_
FNDA:0,_RNCNvNtNtNtCs86yVScfUyun_18timekeeper_backend8handlers5admin10audit_logs13build_filterss5_0B9_
FNDA:0,_RNCNvNtNtNtCs86yVScfUyun_18timekeeper_backend8handlers5admin10audit_logs13build_filterss6_0B9_
FNDA:0,_RNCNvNtNtNtCs86yVScfUyun_18timekeeper_backend8handlers5admin10audit_logs13build_filterss_0B9_
FNDA:0,_RNCNvNtNtNtCs86yVScfUyun_18timekeeper_backend8handlers5admin10audit_logs15list_audit_logs0B9_
FNDA:0,_RNCNvNtNtNtCs86yVScfUyun_18timekeeper_backend8handlers5admin10audit_logs16normalize_filter0B9_
FNDA:0,_RNCNvNtNtNtCs86yVScfUyun_18timekeeper_backend8handlers5admin10audit_logs16normalize_filters_0B9_
FNDA:0,_RNCNvNtNtNtCs86yVScfUyun_18timekeeper_backend8handlers5admin10audit_logs17export_audit_logs0B9_
FNDA:0,_RNCNvNtNtNtCs86yVScfUyun_18timekeeper_backend8handlers5admin10audit_logs20get_audit_log_detail0B9_
FNDA:0,_RNCNvNtNtNtCs86yVScfUyun_18timekeeper_backend8handlers5admin10audit_logs21validate_export_query0B9_
FNDA:0,_RNCNvNtNtNtCs86yVScfUyun_18timekeeper_backend8handlers5admin10audit_logs21validate_export_querys0_0B9_
FNDA:0,_RNCNvNtNtNtCs86yVScfUyun_18timekeeper_backend8handlers5admin10audit_logs21validate_export_querys1_0B9_
FNDA:0,_RNCNvNtNtNtCs86yVScfUyun_18timekeeper_backend8handlers5admin10audit_logs21validate_export_querys2_0B9_
FNDA:0,_RNCNvNtNtNtCs86yVScfUyun_18timekeeper_backend8handlers5admin10audit_logs21validate_export_querys3_0B9_
FNDA:0,_RNCNvNtNtNtCs86yVScfUyun_18timekeeper_backend8handlers5admin10audit_logs21validate_export_querys4_0B9_
FNDA:0,_RNCNvNtNtNtCs86yVScfUyun_18timekeeper_backend8handlers5admin10audit_logs21validate_export_querys5_0B9_
FNDA:0,_RNCNvNtNtNtCs86yVScfUyun_18timekeeper_backend8handlers5admin10audit_logs21validate_export_querys6_0B9_
FNDA:0,_RNCNvNtNtNtCs86yVScfUyun_18timekeeper_backend8handlers5admin10audit_logs21validate_export_querys_0B9_
FNDA:0,_RNCNvNtNtNtCs86yVScfUyun_18timekeeper_backend8handlers5admin10audit_logs23ensure_audit_log_access0B9_
FNDA:0,_RNCNvXNtNtNtCs86yVScfUyun_18timekeeper_backend8handlers5admin10audit_logsNtB4_16AuditLogResponseINtNtCslH02haMvknO_4core7convert4FromNtNtNtBa_6models9audit_log8AuditLogE4from0Ba_
FNDA:0,_RNvNtNtNtCs86yVScfUyun_18timekeeper_backend8handlers5admin10audit_logs13build_filters
FNDA:0,_RNvNtNtNtCs86yVScfUyun_18timekeeper_backend8handlers5admin10audit_logs16normalize_filter
FNDA:0,_RNvNtNtNtCs86yVScfUyun_18timekeeper_backend8handlers5admin10audit_logs17parse_to_datetime
FNDA:0,_RNvNtNtNtCs86yVScfUyun_18timekeeper_backend8handlers5admin10audit_logs19parse_from_datetime
FNDA:0,_RNvNtNtNtCs86yVScfUyun_18timekeeper_backend8handlers5admin10audit_logs19validate_list_query
FNDA:0,_RNvNtNtNtCs86yVScfUyun_18timekeeper_backend8handlers5admin10audit_logs20parse_datetime_value
FNDA:0,_RNvNtNtNtCs86yVScfUyun_18timekeeper_backend8handlers5admin10audit_logs21validate_export_query
FNDA:0,_RNvNtNtNtCs86yVScfUyun_18timekeeper_backend8handlers5admin10audit_logs23ensure_audit_log_access
FNDA:0,_RNvXNtNtNtCs86yVScfUyun_18timekeeper_backend8handlers5admin10audit_logsNtB2_16AuditLogResponseINtNtCslH02haMvknO_4core7convert4FromNtNtNtB8_6models9audit_log8AuditLogE4from
FNF:45
FNH:26
DA:78,17
DA:80,17
DA:81,17
DA:82,17
DA:83,17
DA:84,17
DA:85,17
DA:86,17
DA:87,17
DA:88,17
DA:89,17
DA:90,17
DA:91,17
DA:92,17
DA:94,17
DA:105,14
DA:106,14
DA:107,14
DA:108,14
DA:109,14
DA:110,14
DA:112,11
DA:113,7
DA:114,7
DA:115,7
DA:116,7
DA:117,7
DA:119,7
DA:120,7
DA:121,7
DA:122,7
DA:123,7
DA:124,7
DA:125,7
DA:126,7
DA:127,7
DA:128,14
DA:130,3
DA:131,3
DA:132,3
DA:133,3
DA:134,3
DA:135,3
DA:137,3
DA:138,3
DA:140,3
DA:141,3
DA:142,3
DA:143,3
DA:145,2
DA:146,3
DA:148,5
DA:149,5
DA:150,5
DA:151,5
DA:152,5
DA:153,5
DA:155,5
DA:156,3
DA:157,3
DA:158,3
DA:160,3
DA:161,3
DA:163,3
DA:165,3
DA:167,3
DA:168,3
DA:169,3
DA:170,3
DA:171,3
DA:172,3
DA:173,3
DA:174,3
DA:176,3
DA:177,5
DA:179,22
DA:180,22
DA:181,13
DA:182,9
DA:184,9
DA:185,9
DA:186,9
DA:187,9
DA:188,0
DA:189,0
DA:190,0
DA:192,9
DA:193,6
DA:195,3
DA:197,22
DA:199,11
DA:200,11
DA:201,11
DA:202,11
DA:203,11
DA:204,11
DA:205,11
DA:206,11
DA:207,11
DA:208,11
DA:209,11
DA:210,11
DA:211,11
DA:212,11
DA:213,11
DA:214,11
DA:215,7
DA:216,11
DA:220,5
DA:221,5
DA:222,0
DA:223,0
DA:224,5
DA:225,0
DA:226,0
DA:228,5
DA:229,0
DA:230,0
DA:231,0
DA:232,5
DA:234,5
DA:235,5
DA:236,2
DA:237,2
DA:238,2
DA:239,2
DA:240,3
DA:242,3
DA:243,3
DA:244,0
DA:245,0
DA:246,0
DA:247,0
DA:248,0
DA:249,3
DA:251,3
DA:252,3
DA:253,3
DA:254,3
DA:255,3
DA:256,3
DA:259,3
DA:260,3
DA:261,3
DA:262,3
DA:263,3
DA:264,3
DA:265,3
DA:266,3
DA:268,5
DA:281,11
DA:282,10
DA:283,11
DA:284,10
DA:286,10
DA:287,1
DA:288,1
DA:289,1
DA:290,1
DA:291,0
DA:292,9
DA:294,9
DA:295,9
DA:296,4
DA:297,2
DA:298,2
DA:299,2
DA:300,2
DA:301,5
DA:303,7
DA:304,7
DA:305,7
DA:306,7
DA:307,7
DA:308,7
DA:311,7
DA:312,7
DA:313,7
DA:314,7
DA:315,7
DA:316,7
DA:317,7
DA:318,7
DA:320,11
DA:322,52
DA:323,52
DA:324,52
DA:325,52
DA:326,52
DA:328,11
DA:329,11
DA:330,2
DA:331,2
DA:332,2
DA:333,9
DA:335,11
DA:337,10
DA:338,10
DA:339,1
DA:340,1
DA:341,1
DA:342,9
DA:344,10
DA:346,13
DA:347,13
DA:348,0
DA:349,13
DA:350,13
DA:351,0
DA:352,13
DA:353,13
DA:354,0
DA:355,13
DA:356,13
DA:357,12
DA:358,6
DA:360,6
DA:361,0
DA:362,12
DA:363,12
DA:364,12
DA:365,12
DA:366,1
DA:367,1
DA:368,13
BRF:0
BRH:0
LF:261
LH:219
end_of_record
SF:/home/marra/projects/timekeeper/backend/src/handlers/admin/common.rs
FN:23,_RNvNtNtNtCs2oPl7zguF9n_18timekeeper_backend8handlers5admin6common11push_clause
FN:4,_RNvNtNtNtCs2oPl7zguF9n_18timekeeper_backend8handlers5admin6common16parse_date_value
FN:14,_RNvNtNtNtCs2oPl7zguF9n_18timekeeper_backend8handlers5admin6common19parse_optional_date
FN:23,_RNvNtNtNtCsjEFxG0ag9NF_18timekeeper_backend8handlers5admin6common11push_clause
FN:4,_RNvNtNtNtCsjEFxG0ag9NF_18timekeeper_backend8handlers5admin6common16parse_date_value
FN:14,_RNvNtNtNtCsjEFxG0ag9NF_18timekeeper_backend8handlers5admin6common19parse_optional_date
FN:23,_RNvNtNtNtCsiqn6J3Zmf7c_18timekeeper_backend8handlers5admin6common11push_clause
FN:4,_RNvNtNtNtCsiqn6J3Zmf7c_18timekeeper_backend8handlers5admin6common16parse_date_value
FN:14,_RNvNtNtNtCsiqn6J3Zmf7c_18timekeeper_backend8handlers5admin6common19parse_optional_date
FN:23,_RNvNtNtNtCs86yVScfUyun_18timekeeper_backend8handlers5admin6common11push_clause
FN:4,_RNvNtNtNtCs86yVScfUyun_18timekeeper_backend8handlers5admin6common16parse_date_value
FN:14,_RNvNtNtNtCs86yVScfUyun_18timekeeper_backend8handlers5admin6common19parse_optional_date
FNDA:0,_RNvNtNtNtCs2oPl7zguF9n_18timekeeper_backend8handlers5admin6common11push_clause
FNDA:3,_RNvNtNtNtCs2oPl7zguF9n_18timekeeper_backend8handlers5admin6common16parse_date_value
FNDA:5,_RNvNtNtNtCs2oPl7zguF9n_18timekeeper_backend8handlers5admin6common19parse_optional_date
FNDA:0,_RNvNtNtNtCsjEFxG0ag9NF_18timekeeper_backend8handlers5admin6common11push_clause
FNDA:8,_RNvNtNtNtCsjEFxG0ag9NF_18timekeeper_backend8handlers5admin6common16parse_date_value
FNDA:14,_RNvNtNtNtCsjEFxG0ag9NF_18timekeeper_backend8handlers5admin6common19parse_optional_date
FNDA:0,_RNvNtNtNtCsiqn6J3Zmf7c_18timekeeper_backend8handlers5admin6common11push_clause
FNDA:0,_RNvNtNtNtCsiqn6J3Zmf7c_18timekeeper_backend8handlers5admin6common16parse_date_value
FNDA:0,_RNvNtNtNtCsiqn6J3Zmf7c_18timekeeper_backend8handlers5admin6common19parse_optional_date
FNDA:0,_RNvNtNtNtCs86yVScfUyun_18timekeeper_backend8handlers5admin6common11push_clause
FNDA:8,_RNvNtNtNtCs86yVScfUyun_18timekeeper_backend8handlers5admin6common16parse_date_value
FNDA:14,_RNvNtNtNtCs86yVScfUyun_18timekeeper_backend8handlers5admin6common19parse_optional_date
FNF:3
FNH:2
DA:4,19
DA:5,19
DA:6,0
DA:7,19
DA:8,19
DA:9,0
DA:10,19
DA:11,19
DA:12,19
DA:14,33
DA:15,33
DA:16,19
DA:17,19
DA:18,19
DA:19,14
DA:21,33
DA:23,0
DA:24,0
DA:25,0
DA:26,0
DA:27,0
DA:28,0
DA:29,0
DA:30,0
BRF:0
BRH:0
LF:24
LH:14
end_of_record
SF:/home/marra/projects/timekeeper/backend/src/handlers/admin/export.rs
FN:36,_RNvNtNtNtCs2oPl7zguF9n_18timekeeper_backend8handlers5admin6export11export_data
FN:98,_RNCNCNCNvNtNtNtCs2oPl7zguF9n_18timekeeper_backend8handlers5admin6export11export_data0s_00Bd_
FN:110,_RNCNCNCNvNtNtNtCs2oPl7zguF9n_18timekeeper_backend8handlers5admin6export11export_data0s_0s0_0Bd_
FN:114,_RNCNCNCNvNtNtNtCs2oPl7zguF9n_18timekeeper_backend8handlers5admin6export11export_data0s_0s1_0Bd_
FN:115,_RNCNCNCNvNtNtNtCs2oPl7zguF9n_18timekeeper_backend8handlers5admin6export11export_data0s_0s2_0Bd_
FN:104,_RNCNCNCNvNtNtNtCs2oPl7zguF9n_18timekeeper_backend8handlers5admin6export11export_data0s_0s_0Bd_
FN:87,_RNCNCNvNtNtNtCs2oPl7zguF9n_18timekeeper_backend8handlers5admin6export11export_data00Bb_
FN:130,_RNCNCNvNtNtNtCs2oPl7zguF9n_18timekeeper_backend8handlers5admin6export11export_data0s0_0Bb_
FN:162,_RNCNCNvNtNtNtCs2oPl7zguF9n_18timekeeper_backend8handlers5admin6export11export_data0s1_0Bb_
FN:91,_RNCNCNvNtNtNtCs2oPl7zguF9n_18timekeeper_backend8handlers5admin6export11export_data0s_0Bb_
FN:40,_RNCNvNtNtNtCs2oPl7zguF9n_18timekeeper_backend8handlers5admin6export11export_data0B9_
FN:36,_RNvNtNtNtCsjEFxG0ag9NF_18timekeeper_backend8handlers5admin6export11export_data
FN:98,_RNCNCNCNvNtNtNtCsjEFxG0ag9NF_18timekeeper_backend8handlers5admin6export11export_data0s_00Bd_
FN:110,_RNCNCNCNvNtNtNtCsjEFxG0ag9NF_18timekeeper_backend8handlers5admin6export11export_data0s_0s0_0Bd_
FN:114,_RNCNCNCNvNtNtNtCsjEFxG0ag9NF_18timekeeper_backend8handlers5admin6export11export_data0s_0s1_0Bd_
FN:115,_RNCNCNCNvNtNtNtCsjEFxG0ag9NF_18timekeeper_backend8handlers5admin6export11export_data0s_0s2_0Bd_
FN:104,_RNCNCNCNvNtNtNtCsjEFxG0ag9NF_18timekeeper_backend8handlers5admin6export11export_data0s_0s_0Bd_
FN:87,_RNCNCNvNtNtNtCsjEFxG0ag9NF_18timekeeper_backend8handlers5admin6export11export_data00Bb_
FN:130,_RNCNCNvNtNtNtCsjEFxG0ag9NF_18timekeeper_backend8handlers5admin6export11export_data0s0_0Bb_
FN:162,_RNCNCNvNtNtNtCsjEFxG0ag9NF_18timekeeper_backend8handlers5admin6export11export_data0s1_0Bb_
FN:91,_RNCNCNvNtNtNtCsjEFxG0ag9NF_18timekeeper_backend8handlers5admin6export11export_data0s_0Bb_
FN:40,_RNCNvNtNtNtCsjEFxG0ag9NF_18timekeeper_backend8handlers5admin6export11export_data0B9_
FN:98,_RNCNCNCNvNtNtNtCsiqn6J3Zmf7c_18timekeeper_backend8handlers5admin6export11export_data0s_00Bd_
FN:110,_RNCNCNCNvNtNtNtCsiqn6J3Zmf7c_18timekeeper_backend8handlers5admin6export11export_data0s_0s0_0Bd_
FN:114,_RNCNCNCNvNtNtNtCsiqn6J3Zmf7c_18timekeeper_backend8handlers5admin6export11export_data0s_0s1_0Bd_
FN:115,_RNCNCNCNvNtNtNtCsiqn6J3Zmf7c_18timekeeper_backend8handlers5admin6export11export_data0s_0s2_0Bd_
FN:104,_RNCNCNCNvNtNtNtCsiqn6J3Zmf7c_18timekeeper_backend8handlers5admin6export11export_data0s_0s_0Bd_
FN:87,_RNCNCNvNtNtNtCsiqn6J3Zmf7c_18timekeeper_backend8handlers5admin6export11export_data00Bb_
FN:130,_RNCNCNvNtNtNtCsiqn6J3Zmf7c_18timekeeper_backend8handlers5admin6export11export_data0s0_0Bb_
FN:162,_RNCNCNvNtNtNtCsiqn6J3Zmf7c_18timekeeper_backend8handlers5admin6export11export_data0s1_0Bb_
FN:91,_RNCNCNvNtNtNtCsiqn6J3Zmf7c_18timekeeper_backend8handlers5admin6export11export_data0s_0Bb_
FN:40,_RNCNvNtNtNtCsiqn6J3Zmf7c_18timekeeper_backend8handlers5admin6export11export_data0B9_
FN:36,_RNvNtNtNtCsiqn6J3Zmf7c_18timekeeper_backend8handlers5admin6export11export_data
FN:36,_RNvNtNtNtCs86yVScfUyun_18timekeeper_backend8handlers5admin6export11export_data
FN:98,_RNCNCNCNvNtNtNtCs86yVScfUyun_18timekeeper_backend8handlers5admin6export11export_data0s_00Bd_
FN:110,_RNCNCNCNvNtNtNtCs86yVScfUyun_18timekeeper_backend8handlers5admin6export11export_data0s_0s0_0Bd_
FN:114,_RNCNCNCNvNtNtNtCs86yVScfUyun_18timekeeper_backend8handlers5admin6export11export_data0s_0s1_0Bd_
FN:115,_RNCNCNCNvNtNtNtCs86yVScfUyun_18timekeeper_backend8handlers5admin6export11export_data0s_0s2_0Bd_
FN:104,_RNCNCNCNvNtNtNtCs86yVScfUyun_18timekeeper_backend8handlers5admin6export11export_data0s_0s_0Bd_
FN:87,_RNCNCNvNtNtNtCs86yVScfUyun_18timekeeper_backend8handlers5admin6export11export_data00Bb_
FN:130,_RNCNCNvNtNtNtCs86yVScfUyun_18timekeeper_backend8handlers5admin6export11export_data0s0_0Bb_
FN:162,_RNCNCNvNtNtNtCs86yVScfUyun_18timekeeper_backend8handlers5admin6export11export_data0s1_0Bb_
FN:91,_RNCNCNvNtNtNtCs86yVScfUyun_18timekeeper_backend8handlers5admin6export11export_data0s_0Bb_
FN:40,_RNCNvNtNtNtCs86yVScfUyun_18timekeeper_backend8handlers5admin6export11export_data0B9_
FNDA:1,_RNvNtNtNtCs2oPl7zguF9n_18timekeeper_backend8handlers5admin6export11export_data
FNDA:1,_RNCNCNCNvNtNtNtCs2oPl7zguF9n_18timekeeper_backend8handlers5admin6export11export_data0s_00Bd_
FNDA:0,_RNCNCNCNvNtNtNtCs2oPl7zguF9n_18timekeeper_backend8handlers5admin6export11export_data0s_0s0_0Bd_
FNDA:0,_RNCNCNCNvNtNtNtCs2oPl7zguF9n_18timekeeper_backend8handlers5admin6export11export_data0s_0s1_0Bd_
FNDA:1,_RNCNCNCNvNtNtNtCs2oPl7zguF9n_18timekeeper_backend8handlers5admin6export11export_data0s_0s2_0Bd_
FNDA:0,_RNCNCNCNvNtNtNtCs2oPl7zguF9n_18timekeeper_backend8handlers5admin6export11export_data0s_0s_0Bd_
FNDA:0,_RNCNCNvNtNtNtCs2oPl7zguF9n_18timekeeper_backend8handlers5admin6export11export_data00Bb_
FNDA:1,_RNCNCNvNtNtNtCs2oPl7zguF9n_18timekeeper_backend8handlers5admin6export11export_data0s0_0Bb_
FNDA:0,_RNCNCNvNtNtNtCs2oPl7zguF9n_18timekeeper_backend8handlers5admin6export11export_data0s1_0Bb_
FNDA:1,_RNCNCNvNtNtNtCs2oPl7zguF9n_18timekeeper_backend8handlers5admin6export11export_data0s_0Bb_
FNDA:1,_RNCNvNtNtNtCs2oPl7zguF9n_18timekeeper_backend8handlers5admin6export11export_data0B9_
FNDA:0,_RNvNtNtNtCsjEFxG0ag9NF_18timekeeper_backend8handlers5admin6export11export_data
FNDA:0,_RNCNCNCNvNtNtNtCsjEFxG0ag9NF_18timekeeper_backend8handlers5admin6export11export_data0s_00Bd_
FNDA:0,_RNCNCNCNvNtNtNtCsjEFxG0ag9NF_18timekeeper_backend8handlers5admin6export11export_data0s_0s0_0Bd_
FNDA:0,_RNCNCNCNvNtNtNtCsjEFxG0ag9NF_18timekeeper_backend8handlers5admin6export11export_data0s_0s1_0Bd_
FNDA:0,_RNCNCNCNvNtNtNtCsjEFxG0ag9NF_18timekeeper_backend8handlers5admin6export11export_data0s_0s2_0Bd_
FNDA:0,_RNCNCNCNvNtNtNtCsjEFxG0ag9NF_18timekeeper_backend8handlers5admin6export11export_data0s_0s_0Bd_
FNDA:0,_RNCNCNvNtNtNtCsjEFxG0ag9NF_18timekeeper_backend8handlers5admin6export11export_data00Bb_
FNDA:0,_RNCNCNvNtNtNtCsjEFxG0ag9NF_18timekeeper_backend8handlers5admin6export11export_data0s0_0Bb_
FNDA:0,_RNCNCNvNtNtNtCsjEFxG0ag9NF_18timekeeper_backend8handlers5admin6export11export_data0s1_0Bb_
FNDA:0,_RNCNCNvNtNtNtCsjEFxG0ag9NF_18timekeeper_backend8handlers5admin6export11export_data0s_0Bb_
FNDA:0,_RNCNvNtNtNtCsjEFxG0ag9NF_18timekeeper_backend8handlers5admin6export11export_data0B9_
FNDA:0,_RNCNCNCNvNtNtNtCsiqn6J3Zmf7c_18timekeeper_backend8handlers5admin6export11export_data0s_00Bd_
FNDA:0,_RNCNCNCNvNtNtNtCsiqn6J3Zmf7c_18timekeeper_backend8handlers5admin6export11export_data0s_0s0_0Bd_
FNDA:0,_RNCNCNCNvNtNtNtCsiqn6J3Zmf7c_18timekeeper_backend8handlers5admin6export11export_data0s_0s1_0Bd_
FNDA:0,_RNCNCNCNvNtNtNtCsiqn6J3Zmf7c_18timekeeper_backend8handlers5admin6export11export_data0s_0s2_0Bd_
FNDA:0,_RNCNCNCNvNtNtNtCsiqn6J3Zmf7c_18timekeeper_backend8handlers5admin6export11export_data0s_0s_0Bd_
FNDA:0,_RNCNCNvNtNtNtCsiqn6J3Zmf7c_18timekeeper_backend8handlers5admin6export11export_data00Bb_
FNDA:0,_RNCNCNvNtNtNtCsiqn6J3Zmf7c_18timekeeper_backend8handlers5admin6export11export_data0s0_0Bb_
FNDA:0,_RNCNCNvNtNtNtCsiqn6J3Zmf7c_18timekeeper_backend8handlers5admin6export11export_data0s1_0Bb_
FNDA:0,_RNCNCNvNtNtNtCsiqn6J3Zmf7c_18timekeeper_backend8handlers5admin6export11export_data0s_0Bb_
FNDA:0,_RNCNvNtNtNtCsiqn6J3Zmf7c_18timekeeper_backend8handlers5admin6export11export_data0B9_
FNDA:0,_RNvNtNtNtCsiqn6J3Zmf7c_18timekeeper_backend8handlers5admin6export11export_data
FNDA:0,_RNvNtNtNtCs86yVScfUyun_18timekeeper_backend8handlers5admin6export11export_data
FNDA:0,_RNCNCNCNvNtNtNtCs86yVScfUyun_18timekeeper_backend8handlers5admin6export11export_data0s_00Bd_
FNDA:0,_RNCNCNCNvNtNtNtCs86yVScfUyun_18timekeeper_backend8handlers5admin6export11export_data0s_0s0_0Bd_
FNDA:0,_RNCNCNCNvNtNtNtCs86yVScfUyun_18timekeeper_backend8handlers5admin6export11export_data0s_0s1_0Bd_
FNDA:0,_RNCNCNCNvNtNtNtCs86yVScfUyun_18timekeeper_backend8handlers5admin6export11export_data0s_0s2_0Bd_
FNDA:0,_RNCNCNCNvNtNtNtCs86yVScfUyun_18timekeeper_backend8handlers5admin6export11export_data0s_0s_0Bd_
FNDA:0,_RNCNCNvNtNtNtCs86yVScfUyun_18timekeeper_backend8handlers5admin6export11export_data00Bb_
FNDA:0,_RNCNCNvNtNtNtCs86yVScfUyun_18timekeeper_backend8handlers5admin6export11export_data0s0_0Bb_
FNDA:0,_RNCNCNvNtNtNtCs86yVScfUyun_18timekeeper_backend8handlers5admin6export11export_data0s1_0Bb_
FNDA:0,_RNCNCNvNtNtNtCs86yVScfUyun_18timekeeper_backend8handlers5admin6export11export_data0s_0Bb_
FNDA:0,_RNCNvNtNtNtCs86yVScfUyun_18timekeeper_backend8handlers5admin6export11export_data0B9_
FNF:11
FNH:6
DA:36,1
DA:37,1
DA:38,1
DA:39,1
DA:40,1
DA:41,1
DA:42,0
DA:43,1
DA:45,1
DA:46,0
DA:47,0
DA:48,0
DA:49,1
DA:51,1
DA:52,0
DA:53,0
DA:54,0
DA:55,1
DA:57,1
DA:58,0
DA:59,0
DA:60,0
DA:61,0
DA:62,0
DA:63,1
DA:65,1
DA:69,1
DA:70,1
DA:71,0
DA:72,0
DA:73,1
DA:74,1
DA:75,0
DA:76,0
DA:77,1
DA:78,1
DA:79,0
DA:80,0
DA:81,1
DA:82,1
DA:83,1
DA:84,1
DA:85,1
DA:86,1
DA:87,1
DA:89,1
DA:90,1
DA:91,1
DA:92,1
DA:93,1
DA:94,1
DA:95,1
DA:96,1
DA:97,1
DA:98,1
DA:99,1
DA:100,1
DA:101,1
DA:102,1
DA:103,1
DA:104,1
DA:105,1
DA:106,1
DA:107,1
DA:108,1
DA:109,1
DA:110,1
DA:111,1
DA:112,1
DA:113,1
DA:114,1
DA:115,1
DA:116,1
DA:118,1
DA:119,1
DA:120,1
DA:121,1
DA:122,1
DA:123,1
DA:124,1
DA:125,1
DA:126,1
DA:127,1
DA:128,1
DA:130,1
DA:131,1
DA:132,1
DA:133,1
DA:134,1
DA:135,1
DA:136,1
DA:137,1
DA:138,1
DA:139,1
DA:140,1
DA:141,1
DA:142,1
DA:145,1
DA:146,1
DA:147,1
DA:148,1
DA:149,1
DA:150,1
DA:151,1
DA:152,1
DA:153,1
DA:154,1
DA:155,1
DA:156,1
DA:157,1
DA:158,1
DA:159,1
DA:160,1
DA:161,1
DA:162,1
DA:164,1
DA:165,1
DA:166,1
DA:167,1
DA:168,1
DA:169,1
DA:170,1
DA:171,1
BRF:0
BRH:0
LF:133
LH:110
end_of_record
SF:/home/marra/projects/timekeeper/backend/src/handlers/admin/holidays.rs
FN:86,_RNCNCNvNtNtNtCs2oPl7zguF9n_18timekeeper_backend8handlers5admin8holidays14create_holiday00Bb_
FN:115,_RNCNCNvNtNtNtCs2oPl7zguF9n_18timekeeper_backend8handlers5admin8holidays14delete_holiday00Bb_
FN:191,_RNCNCNvNtNtNtCs2oPl7zguF9n_18timekeeper_backend8handlers5admin8holidays21delete_weekly_holiday00Bb_
FN:39,_RNCNvNtNtNtCs2oPl7zguF9n_18timekeeper_backend8handlers5admin8holidays13list_holidays0B9_
FN:70,_RNCNvNtNtNtCs2oPl7zguF9n_18timekeeper_backend8handlers5admin8holidays14create_holiday0B9_
FN:109,_RNCNvNtNtNtCs2oPl7zguF9n_18timekeeper_backend8handlers5admin8holidays14delete_holiday0B9_
FN:126,_RNCNvNtNtNtCs2oPl7zguF9n_18timekeeper_backend8handlers5admin8holidays20list_weekly_holidays0B9_
FN:146,_RNCNvNtNtNtCs2oPl7zguF9n_18timekeeper_backend8handlers5admin8holidays21create_weekly_holiday0B9_
FN:185,_RNCNvNtNtNtCs2oPl7zguF9n_18timekeeper_backend8handlers5admin8holidays21delete_weekly_holiday0B9_
FN:240,_RNCNvNtNtNtCs2oPl7zguF9n_18timekeeper_backend8handlers5admin8holidays28validate_admin_holiday_query0B9_
FN:243,_RNCNvNtNtNtCs2oPl7zguF9n_18timekeeper_backend8handlers5admin8holidays28validate_admin_holiday_querys0_0B9_
FN:242,_RNCNvNtNtNtCs2oPl7zguF9n_18timekeeper_backend8handlers5admin8holidays28validate_admin_holiday_querys_0B9_
FN:35,_RNvNtNtNtCs2oPl7zguF9n_18timekeeper_backend8handlers5admin8holidays13list_holidays
FN:66,_RNvNtNtNtCs2oPl7zguF9n_18timekeeper_backend8handlers5admin8holidays14create_holiday
FN:105,_RNvNtNtNtCs2oPl7zguF9n_18timekeeper_backend8handlers5admin8holidays14delete_holiday
FN:262,_RNvNtNtNtCs2oPl7zguF9n_18timekeeper_backend8handlers5admin8holidays17parse_type_filter
FN:123,_RNvNtNtNtCs2oPl7zguF9n_18timekeeper_backend8handlers5admin8holidays20list_weekly_holidays
FN:142,_RNvNtNtNtCs2oPl7zguF9n_18timekeeper_backend8handlers5admin8holidays21create_weekly_holiday
FN:181,_RNvNtNtNtCs2oPl7zguF9n_18timekeeper_backend8handlers5admin8holidays21delete_weekly_holiday
FN:230,_RNvNtNtNtCs2oPl7zguF9n_18timekeeper_backend8handlers5admin8holidays28validate_admin_holiday_query
FN:35,_RNvNtNtNtCsjEFxG0ag9NF_18timekeeper_backend8handlers5admin8holidays13list_holidays
FN:66,_RNvNtNtNtCsjEFxG0ag9NF_18timekeeper_backend8handlers5admin8holidays14create_holiday
FN:105,_RNvNtNtNtCsjEFxG0ag9NF_18timekeeper_backend8handlers5admin8holidays14delete_holiday
FN:123,_RNvNtNtNtCsjEFxG0ag9NF_18timekeeper_backend8handlers5admin8holidays20list_weekly_holidays
FN:142,_RNvNtNtNtCsjEFxG0ag9NF_18timekeeper_backend8handlers5admin8holidays21create_weekly_holiday
FN:181,_RNvNtNtNtCsjEFxG0ag9NF_18timekeeper_backend8handlers5admin8holidays21delete_weekly_holiday
FN:444,_RNvNtNtNtNtCsjEFxG0ag9NF_18timekeeper_backend8handlers5admin8holidays5testss_31test_parse_type_filter_with_all
FN:451,_RNvNtNtNtNtCsjEFxG0ag9NF_18timekeeper_backend8handlers5admin8holidays5testss_32test_parse_type_filter_with_none
FN:423,_RNvNtNtNtNtCsjEFxG0ag9NF_18timekeeper_backend8handlers5admin8holidays5testss_34test_parse_type_filter_with_public
FN:430,_RNvNtNtNtNtCsjEFxG0ag9NF_18timekeeper_backend8handlers5admin8holidays5testss_34test_parse_type_filter_with_weekly
FN:437,_RNvNtNtNtNtCsjEFxG0ag9NF_18timekeeper_backend8handlers5admin8holidays5testss_37test_parse_type_filter_with_exception
FN:465,_RNvNtNtNtNtCsjEFxG0ag9NF_18timekeeper_backend8handlers5admin8holidays5testss_39test_parse_type_filter_case_insensitive
FN:294,_RNvNtNtNtNtCsjEFxG0ag9NF_18timekeeper_backend8handlers5admin8holidays5testss_41test_admin_holiday_list_query_with_values
FN:347,_RNvNtNtNtNtCsjEFxG0ag9NF_18timekeeper_backend8handlers5admin8holidays5testss_41test_admin_holiday_query_params_structure
FN:310,_RNvNtNtNtNtCsjEFxG0ag9NF_18timekeeper_backend8handlers5admin8holidays5testss_42test_admin_holiday_list_response_structure
FN:458,_RNvNtNtNtNtCsjEFxG0ag9NF_18timekeeper_backend8handlers5admin8holidays5testss_43test_parse_type_filter_rejects_invalid_type
FN:278,_RNvNtNtNtNtCsjEFxG0ag9NF_18timekeeper_backend8handlers5admin8holidays5testss_44test_admin_holiday_list_query_default_values
FN:472,_RNvNtNtNtNtCsjEFxG0ag9NF_18timekeeper_backend8handlers5admin8holidays5testss_45test_validate_admin_holiday_query_clamps_page
FN:366,_RNvNtNtNtNtCsjEFxG0ag9NF_18timekeeper_backend8handlers5admin8holidays5testss_47test_validate_admin_holiday_query_with_defaults
FN:487,_RNvNtNtNtNtCsjEFxG0ag9NF_18timekeeper_backend8handlers5admin8holidays5testss_49test_validate_admin_holiday_query_clamps_per_page
FN:387,_RNvNtNtNtNtCsjEFxG0ag9NF_18timekeeper_backend8handlers5admin8holidays5testss_51test_validate_admin_holiday_query_with_valid_values
FN:408,_RNvNtNtNtNtCsjEFxG0ag9NF_18timekeeper_backend8handlers5admin8holidays5testss_60test_validate_admin_holiday_query_rejects_invalid_date_range
FN:86,_RNCNCNvNtNtNtCsjEFxG0ag9NF_18timekeeper_backend8handlers5admin8holidays14create_holiday00Bb_
FN:115,_RNCNCNvNtNtNtCsjEFxG0ag9NF_18timekeeper_backend8handlers5admin8holidays14delete_holiday00Bb_
FN:191,_RNCNCNvNtNtNtCsjEFxG0ag9NF_18timekeeper_backend8handlers5admin8holidays21delete_weekly_holiday00Bb_
FN:39,_RNCNvNtNtNtCsjEFxG0ag9NF_18timekeeper_backend8handlers5admin8holidays13list_holidays0B9_
FN:70,_RNCNvNtNtNtCsjEFxG0ag9NF_18timekeeper_backend8handlers5admin8holidays14create_holiday0B9_
FN:109,_RNCNvNtNtNtCsjEFxG0ag9NF_18timekeeper_backend8handlers5admin8holidays14delete_holiday0B9_
FN:126,_RNCNvNtNtNtCsjEFxG0ag9NF_18timekeeper_backend8handlers5admin8holidays20list_weekly_holidays0B9_
FN:146,_RNCNvNtNtNtCsjEFxG0ag9NF_18timekeeper_backend8handlers5admin8holidays21create_weekly_holiday0B9_
FN:185,_RNCNvNtNtNtCsjEFxG0ag9NF_18timekeeper_backend8handlers5admin8holidays21delete_weekly_holiday0B9_
FN:240,_RNCNvNtNtNtCsjEFxG0ag9NF_18timekeeper_backend8handlers5admin8holidays28validate_admin_holiday_query0B9_
FN:243,_RNCNvNtNtNtCsjEFxG0ag9NF_18timekeeper_backend8handlers5admin8holidays28validate_admin_holiday_querys0_0B9_
FN:242,_RNCNvNtNtNtCsjEFxG0ag9NF_18timekeeper_backend8handlers5admin8holidays28validate_admin_holiday_querys_0B9_
FN:262,_RNvNtNtNtCsjEFxG0ag9NF_18timekeeper_backend8handlers5admin8holidays17parse_type_filter
FN:230,_RNvNtNtNtCsjEFxG0ag9NF_18timekeeper_backend8handlers5admin8holidays28validate_admin_holiday_query
FN:35,_RNvNtNtNtCsiqn6J3Zmf7c_18timekeeper_backend8handlers5admin8holidays13list_holidays
FN:66,_RNvNtNtNtCsiqn6J3Zmf7c_18timekeeper_backend8handlers5admin8holidays14create_holiday
FN:105,_RNvNtNtNtCsiqn6J3Zmf7c_18timekeeper_backend8handlers5admin8holidays14delete_holiday
FN:262,_RNvNtNtNtCsiqn6J3Zmf7c_18timekeeper_backend8handlers5admin8holidays17parse_type_filter
FN:123,_RNvNtNtNtCsiqn6J3Zmf7c_18timekeeper_backend8handlers5admin8holidays20list_weekly_holidays
FN:142,_RNvNtNtNtCsiqn6J3Zmf7c_18timekeeper_backend8handlers5admin8holidays21create_weekly_holiday
FN:181,_RNvNtNtNtCsiqn6J3Zmf7c_18timekeeper_backend8handlers5admin8holidays21delete_weekly_holiday
FN:230,_RNvNtNtNtCsiqn6J3Zmf7c_18timekeeper_backend8handlers5admin8holidays28validate_admin_holiday_query
FN:86,_RNCNCNvNtNtNtCsiqn6J3Zmf7c_18timekeeper_backend8handlers5admin8holidays14create_holiday00Bb_
FN:115,_RNCNCNvNtNtNtCsiqn6J3Zmf7c_18timekeeper_backend8handlers5admin8holidays14delete_holiday00Bb_
FN:191,_RNCNCNvNtNtNtCsiqn6J3Zmf7c_18timekeeper_backend8handlers5admin8holidays21delete_weekly_holiday00Bb_
FN:39,_RNCNvNtNtNtCsiqn6J3Zmf7c_18timekeeper_backend8handlers5admin8holidays13list_holidays0B9_
FN:70,_RNCNvNtNtNtCsiqn6J3Zmf7c_18timekeeper_backend8handlers5admin8holidays14create_holiday0B9_
FN:109,_RNCNvNtNtNtCsiqn6J3Zmf7c_18timekeeper_backend8handlers5admin8holidays14delete_holiday0B9_
FN:126,_RNCNvNtNtNtCsiqn6J3Zmf7c_18timekeeper_backend8handlers5admin8holidays20list_weekly_holidays0B9_
FN:146,_RNCNvNtNtNtCsiqn6J3Zmf7c_18timekeeper_backend8handlers5admin8holidays21create_weekly_holiday0B9_
FN:185,_RNCNvNtNtNtCsiqn6J3Zmf7c_18timekeeper_backend8handlers5admin8holidays21delete_weekly_holiday0B9_
FN:240,_RNCNvNtNtNtCsiqn6J3Zmf7c_18timekeeper_backend8handlers5admin8holidays28validate_admin_holiday_query0B9_
FN:243,_RNCNvNtNtNtCsiqn6J3Zmf7c_18timekeeper_backend8handlers5admin8holidays28validate_admin_holiday_querys0_0B9_
FN:242,_RNCNvNtNtNtCsiqn6J3Zmf7c_18timekeeper_backend8handlers5admin8holidays28validate_admin_holiday_querys_0B9_
FN:262,_RNvNtNtNtCs86yVScfUyun_18timekeeper_backend8handlers5admin8holidays17parse_type_filter
FN:230,_RNvNtNtNtCs86yVScfUyun_18timekeeper_backend8handlers5admin8holidays28validate_admin_holiday_query
FN:35,_RNvNtNtNtCs86yVScfUyun_18timekeeper_backend8handlers5admin8holidays13list_holidays
FN:66,_RNvNtNtNtCs86yVScfUyun_18timekeeper_backend8handlers5admin8holidays14create_holiday
FN:105,_RNvNtNtNtCs86yVScfUyun_18timekeeper_backend8handlers5admin8holidays14delete_holiday
FN:123,_RNvNtNtNtCs86yVScfUyun_18timekeeper_backend8handlers5admin8holidays20list_weekly_holidays
FN:142,_RNvNtNtNtCs86yVScfUyun_18timekeeper_backend8handlers5admin8holidays21create_weekly_holiday
FN:181,_RNvNtNtNtCs86yVScfUyun_18timekeeper_backend8handlers5admin8holidays21delete_weekly_holiday
FN:444,_RNvNtNtNtNtCs86yVScfUyun_18timekeeper_backend8handlers5admin8holidays5testss_31test_parse_type_filter_with_all
FN:451,_RNvNtNtNtNtCs86yVScfUyun_18timekeeper_backend8handlers5admin8holidays5testss_32test_parse_type_filter_with_none
FN:423,_RNvNtNtNtNtCs86yVScfUyun_18timekeeper_backend8handlers5admin8holidays5testss_34test_parse_type_filter_with_public
FN:430,_RNvNtNtNtNtCs86yVScfUyun_18timekeeper_backend8handlers5admin8holidays5testss_34test_parse_type_filter_with_weekly
FN:437,_RNvNtNtNtNtCs86yVScfUyun_18timekeeper_backend8handlers5admin8holidays5testss_37test_parse_type_filter_with_exception
FN:465,_RNvNtNtNtNtCs86yVScfUyun_18timekeeper_backend8handlers5admin8holidays5testss_39test_parse_type_filter_case_insensitive
FN:294,_RNvNtNtNtNtCs86yVScfUyun_18timekeeper_backend8handlers5admin8holidays5testss_41test_admin_holiday_list_query_with_values
FN:347,_RNvNtNtNtNtCs86yVScfUyun_18timekeeper_backend8handlers5admin8holidays5testss_41test_admin_holiday_query_params_structure
FN:310,_RNvNtNtNtNtCs86yVScfUyun_18timekeeper_backend8handlers5admin8holidays5testss_42test_admin_holiday_list_response_structure
FN:458,_RNvNtNtNtNtCs86yVScfUyun_18timekeeper_backend8handlers5admin8holidays5testss_43test_parse_type_filter_rejects_invalid_type
FN:278,_RNvNtNtNtNtCs86yVScfUyun_18timekeeper_backend8handlers5admin8holidays5testss_44test_admin_holiday_list_query_default_values
FN:472,_RNvNtNtNtNtCs86yVScfUyun_18timekeeper_backend8handlers5admin8holidays5testss_45test_validate_admin_holiday_query_clamps_page
FN:366,_RNvNtNtNtNtCs86yVScfUyun_18timekeeper_backend8handlers5admin8holidays5testss_47test_validate_admin_holiday_query_with_defaults
FN:487,_RNvNtNtNtNtCs86yVScfUyun_18timekeeper_backend8handlers5admin8holidays5testss_49test_validate_admin_holiday_query_clamps_per_page
FN:387,_RNvNtNtNtNtCs86yVScfUyun_18timekeeper_backend8handlers5admin8holidays5testss_51test_validate_admin_holiday_query_with_valid_values
FN:408,_RNvNtNtNtNtCs86yVScfUyun_18timekeeper_backend8handlers5admin8holidays5testss_60test_validate_admin_holiday_query_rejects_invalid_date_range
FN:86,_RNCNCNvNtNtNtCs86yVScfUyun_18timekeeper_backend8handlers5admin8holidays14create_holiday00Bb_
FN:115,_RNCNCNvNtNtNtCs86yVScfUyun_18timekeeper_backend8handlers5admin8holidays14delete_holiday00Bb_
FN:191,_RNCNCNvNtNtNtCs86yVScfUyun_18timekeeper_backend8handlers5admin8holidays21delete_weekly_holiday00Bb_
FN:39,_RNCNvNtNtNtCs86yVScfUyun_18timekeeper_backend8handlers5admin8holidays13list_holidays0B9_
FN:70,_RNCNvNtNtNtCs86yVScfUyun_18timekeeper_backend8handlers5admin8holidays14create_holiday0B9_
FN:109,_RNCNvNtNtNtCs86yVScfUyun_18timekeeper_backend8handlers5admin8holidays14delete_holiday0B9_
FN:126,_RNCNvNtNtNtCs86yVScfUyun_18timekeeper_backend8handlers5admin8holidays20list_weekly_holidays0B9_
FN:146,_RNCNvNtNtNtCs86yVScfUyun_18timekeeper_backend8handlers5admin8holidays21create_weekly_holiday0B9_
FN:185,_RNCNvNtNtNtCs86yVScfUyun_18timekeeper_backend8handlers5admin8holidays21delete_weekly_holiday0B9_
FN:240,_RNCNvNtNtNtCs86yVScfUyun_18timekeeper_backend8handlers5admin8holidays28validate_admin_holiday_query0B9_
FN:243,_RNCNvNtNtNtCs86yVScfUyun_18timekeeper_backend8handlers5admin8holidays28validate_admin_holiday_querys0_0B9_
FN:242,_RNCNvNtNtNtCs86yVScfUyun_18timekeeper_backend8handlers5admin8holidays28validate_admin_holiday_querys_0B9_
FNDA:1,_RNCNCNvNtNtNtCs2oPl7zguF9n_18timekeeper_backend8handlers5admin8holidays14create_holiday00Bb_
FNDA:0,_RNCNCNvNtNtNtCs2oPl7zguF9n_18timekeeper_backend8handlers5admin8holidays14delete_holiday00Bb_
FNDA:0,_RNCNCNvNtNtNtCs2oPl7zguF9n_18timekeeper_backend8handlers5admin8holidays21delete_weekly_holiday00Bb_
FNDA:5,_RNCNvNtNtNtCs2oPl7zguF9n_18timekeeper_backend8handlers5admin8holidays13list_holidays0B9_
FNDA:3,_RNCNvNtNtNtCs2oPl7zguF9n_18timekeeper_backend8handlers5admin8holidays14create_holiday0B9_
FNDA:1,_RNCNvNtNtNtCs2oPl7zguF9n_18timekeeper_backend8handlers5admin8holidays14delete_holiday0B9_
FNDA:0,_RNCNvNtNtNtCs2oPl7zguF9n_18timekeeper_backend8handlers5admin8holidays20list_weekly_holidays0B9_
FNDA:2,_RNCNvNtNtNtCs2oPl7zguF9n_18timekeeper_backend8handlers5admin8holidays21create_weekly_holiday0B9_
FNDA:0,_RNCNvNtNtNtCs2oPl7zguF9n_18timekeeper_backend8handlers5admin8holidays21delete_weekly_holiday0B9_
FNDA:1,_RNCNvNtNtNtCs2oPl7zguF9n_18timekeeper_backend8handlers5admin8holidays28validate_admin_holiday_query0B9_
FNDA:0,_RNCNvNtNtNtCs2oPl7zguF9n_18timekeeper_backend8handlers5admin8holidays28validate_admin_holiday_querys0_0B9_
FNDA:1,_RNCNvNtNtNtCs2oPl7zguF9n_18timekeeper_backend8handlers5admin8holidays28validate_admin_holiday_querys_0B9_
FNDA:5,_RNvNtNtNtCs2oPl7zguF9n_18timekeeper_backend8handlers5admin8holidays13list_holidays
FNDA:3,_RNvNtNtNtCs2oPl7zguF9n_18timekeeper_backend8handlers5admin8holidays14create_holiday
FNDA:1,_RNvNtNtNtCs2oPl7zguF9n_18timekeeper_backend8handlers5admin8holidays14delete_holiday
FNDA:4,_RNvNtNtNtCs2oPl7zguF9n_18timekeeper_backend8handlers5admin8holidays17parse_type_filter
FNDA:0,_RNvNtNtNtCs2oPl7zguF9n_18timekeeper_backend8handlers5admin8holidays20list_weekly_holidays
FNDA:2,_RNvNtNtNtCs2oPl7zguF9n_18timekeeper_backend8handlers5admin8holidays21create_weekly_holiday
FNDA:0,_RNvNtNtNtCs2oPl7zguF9n_18timekeeper_backend8handlers5admin8holidays21delete_weekly_holiday
FNDA:4,_RNvNtNtNtCs2oPl7zguF9n_18timekeeper_backend8handlers5admin8holidays28validate_admin_holiday_query
FNDA:0,_RNvNtNtNtCsjEFxG0ag9NF_18timekeeper_backend8handlers5admin8holidays13list_holidays
FNDA:0,_RNvNtNtNtCsjEFxG0ag9NF_18timekeeper_backend8handlers5admin8holidays14create_holiday
FNDA:0,_RNvNtNtNtCsjEFxG0ag9NF_18timekeeper_backend8handlers5admin8holidays14delete_holiday
FNDA:0,_RNvNtNtNtCsjEFxG0ag9NF_18timekeeper_backend8handlers5admin8holidays20list_weekly_holidays
FNDA:0,_RNvNtNtNtCsjEFxG0ag9NF_18timekeeper_backend8handlers5admin8holidays21create_weekly_holiday
FNDA:0,_RNvNtNtNtCsjEFxG0ag9NF_18timekeeper_backend8handlers5admin8holidays21delete_weekly_holiday
FNDA:1,_RNvNtNtNtNtCsjEFxG0ag9NF_18timekeeper_backend8handlers5admin8holidays5testss_31test_parse_type_filter_with_all
FNDA:1,_RNvNtNtNtNtCsjEFxG0ag9NF_18timekeeper_backend8handlers5admin8holidays5testss_32test_parse_type_filter_with_none
FNDA:1,_RNvNtNtNtNtCsjEFxG0ag9NF_18timekeeper_backend8handlers5admin8holidays5testss_34test_parse_type_filter_with_public
FNDA:1,_RNvNtNtNtNtCsjEFxG0ag9NF_18timekeeper_backend8handlers5admin8holidays5testss_34test_parse_type_filter_with_weekly
FNDA:1,_RNvNtNtNtNtCsjEFxG0ag9NF_18timekeeper_backend8handlers5admin8holidays5testss_37test_parse_type_filter_with_exception
FNDA:1,_RNvNtNtNtNtCsjEFxG0ag9NF_18timekeeper_backend8handlers5admin8holidays5testss_39test_parse_type_filter_case_insensitive
FNDA:1,_RNvNtNtNtNtCsjEFxG0ag9NF_18timekeeper_backend8handlers5admin8holidays5testss_41test_admin_holiday_list_query_with_values
FNDA:1,_RNvNtNtNtNtCsjEFxG0ag9NF_18timekeeper_backend8handlers5admin8holidays5testss_41test_admin_holiday_query_params_structure
FNDA:1,_RNvNtNtNtNtCsjEFxG0ag9NF_18timekeeper_backend8handlers5admin8holidays5testss_42test_admin_holiday_list_response_structure
FNDA:1,_RNvNtNtNtNtCsjEFxG0ag9NF_18timekeeper_backend8handlers5admin8holidays5testss_43test_parse_type_filter_rejects_invalid_type
FNDA:1,_RNvNtNtNtNtCsjEFxG0ag9NF_18timekeeper_backend8handlers5admin8holidays5testss_44test_admin_holiday_list_query_default_values
FNDA:1,_RNvNtNtNtNtCsjEFxG0ag9NF_18timekeeper_backend8handlers5admin8holidays5testss_45test_validate_admin_holiday_query_clamps_page
FNDA:1,_RNvNtNtNtNtCsjEFxG0ag9NF_18timekeeper_backend8handlers5admin8holidays5testss_47test_validate_admin_holiday_query_with_defaults
FNDA:1,_RNvNtNtNtNtCsjEFxG0ag9NF_18timekeeper_backend8handlers5admin8holidays5testss_49test_validate_admin_holiday_query_clamps_per_page
FNDA:1,_RNvNtNtNtNtCsjEFxG0ag9NF_18timekeeper_backend8handlers5admin8holidays5testss_51test_validate_admin_holiday_query_with_valid_values
FNDA:1,_RNvNtNtNtNtCsjEFxG0ag9NF_18timekeeper_backend8handlers5admin8holidays5testss_60test_validate_admin_holiday_query_rejects_invalid_date_range
FNDA:0,_RNCNCNvNtNtNtCsjEFxG0ag9NF_18timekeeper_backend8handlers5admin8holidays14create_holiday00Bb_
FNDA:0,_RNCNCNvNtNtNtCsjEFxG0ag9NF_18timekeeper_backend8handlers5admin8holidays14delete_holiday00Bb_
FNDA:0,_RNCNCNvNtNtNtCsjEFxG0ag9NF_18timekeeper_backend8handlers5admin8holidays21delete_weekly_holiday00Bb_
FNDA:0,_RNCNvNtNtNtCsjEFxG0ag9NF_18timekeeper_backend8handlers5admin8holidays13list_holidays0B9_
FNDA:0,_RNCNvNtNtNtCsjEFxG0ag9NF_18timekeeper_backend8handlers5admin8holidays14create_holiday0B9_
FNDA:0,_RNCNvNtNtNtCsjEFxG0ag9NF_18timekeeper_backend8handlers5admin8holidays14delete_holiday0B9_
FNDA:0,_RNCNvNtNtNtCsjEFxG0ag9NF_18timekeeper_backend8handlers5admin8holidays20list_weekly_holidays0B9_
FNDA:0,_RNCNvNtNtNtCsjEFxG0ag9NF_18timekeeper_backend8handlers5admin8holidays21create_weekly_holiday0B9_
FNDA:0,_RNCNvNtNtNtCsjEFxG0ag9NF_18timekeeper_backend8handlers5admin8holidays21delete_weekly_holiday0B9_
FNDA:0,_RNCNvNtNtNtCsjEFxG0ag9NF_18timekeeper_backend8handlers5admin8holidays28validate_admin_holiday_query0B9_
FNDA:0,_RNCNvNtNtNtCsjEFxG0ag9NF_18timekeeper_backend8handlers5admin8holidays28validate_admin_holiday_querys0_0B9_
FNDA:0,_RNCNvNtNtNtCsjEFxG0ag9NF_18timekeeper_backend8handlers5admin8holidays28validate_admin_holiday_querys_0B9_
FNDA:12,_RNvNtNtNtCsjEFxG0ag9NF_18timekeeper_backend8handlers5admin8holidays17parse_type_filter
FNDA:5,_RNvNtNtNtCsjEFxG0ag9NF_18timekeeper_backend8handlers5admin8holidays28validate_admin_holiday_query
FNDA:0,_RNvNtNtNtCsiqn6J3Zmf7c_18timekeeper_backend8handlers5admin8holidays13list_holidays
FNDA:0,_RNvNtNtNtCsiqn6J3Zmf7c_18timekeeper_backend8handlers5admin8holidays14create_holiday
FNDA:0,_RNvNtNtNtCsiqn6J3Zmf7c_18timekeeper_backend8handlers5admin8holidays14delete_holiday
FNDA:0,_RNvNtNtNtCsiqn6J3Zmf7c_18timekeeper_backend8handlers5admin8holidays17parse_type_filter
FNDA:0,_RNvNtNtNtCsiqn6J3Zmf7c_18timekeeper_backend8handlers5admin8holidays20list_weekly_holidays
FNDA:0,_RNvNtNtNtCsiqn6J3Zmf7c_18timekeeper_backend8handlers5admin8holidays21create_weekly_holiday
FNDA:0,_RNvNtNtNtCsiqn6J3Zmf7c_18timekeeper_backend8handlers5admin8holidays21delete_weekly_holiday
FNDA:0,_RNvNtNtNtCsiqn6J3Zmf7c_18timekeeper_backend8handlers5admin8holidays28validate_admin_holiday_query
FNDA:0,_RNCNCNvNtNtNtCsiqn6J3Zmf7c_18timekeeper_backend8handlers5admin8holidays14create_holiday00Bb_
FNDA:0,_RNCNCNvNtNtNtCsiqn6J3Zmf7c_18timekeeper_backend8handlers5admin8holidays14delete_holiday00Bb_
FNDA:0,_RNCNCNvNtNtNtCsiqn6J3Zmf7c_18timekeeper_backend8handlers5admin8holidays21delete_weekly_holiday00Bb_
FNDA:0,_RNCNvNtNtNtCsiqn6J3Zmf7c_18timekeeper_backend8handlers5admin8holidays13list_holidays0B9_
FNDA:0,_RNCNvNtNtNtCsiqn6J3Zmf7c_18timekeeper_backend8handlers5admin8holidays14create_holiday0B9_
FNDA:0,_RNCNvNtNtNtCsiqn6J3Zmf7c_18timekeeper_backend8handlers5admin8holidays14delete_holiday0B9_
FNDA:0,_RNCNvNtNtNtCsiqn6J3Zmf7c_18timekeeper_backend8handlers5admin8holidays20list_weekly_holidays0B9_
FNDA:0,_RNCNvNtNtNtCsiqn6J3Zmf7c_18timekeeper_backend8handlers5admin8holidays21create_weekly_holiday0B9_
FNDA:0,_RNCNvNtNtNtCsiqn6J3Zmf7c_18timekeeper_backend8handlers5admin8holidays21delete_weekly_holiday0B9_
FNDA:0,_RNCNvNtNtNtCsiqn6J3Zmf7c_18timekeeper_backend8handlers5admin8holidays28validate_admin_holiday_query0B9_
FNDA:0,_RNCNvNtNtNtCsiqn6J3Zmf7c_18timekeeper_backend8handlers5admin8holidays28validate_admin_holiday_querys0_0B9_
FNDA:0,_RNCNvNtNtNtCsiqn6J3Zmf7c_18timekeeper_backend8handlers5admin8holidays28validate_admin_holiday_querys_0B9_
FNDA:12,_RNvNtNtNtCs86yVScfUyun_18timekeeper_backend8handlers5admin8holidays17parse_type_filter
FNDA:5,_RNvNtNtNtCs86yVScfUyun_18timekeeper_backend8handlers5admin8holidays28validate_admin_holiday_query
FNDA:0,_RNvNtNtNtCs86yVScfUyun_18timekeeper_backend8handlers5admin8holidays13list_holidays
FNDA:0,_RNvNtNtNtCs86yVScfUyun_18timekeeper_backend8handlers5admin8holidays14create_holiday
FNDA:0,_RNvNtNtNtCs86yVScfUyun_18timekeeper_backend8handlers5admin8holidays14delete_holiday
FNDA:0,_RNvNtNtNtCs86yVScfUyun_18timekeeper_backend8handlers5admin8holidays20list_weekly_holidays
FNDA:0,_RNvNtNtNtCs86yVScfUyun_18timekeeper_backend8handlers5admin8holidays21create_weekly_holiday
FNDA:0,_RNvNtNtNtCs86yVScfUyun_18timekeeper_backend8handlers5admin8holidays21delete_weekly_holiday
FNDA:1,_RNvNtNtNtNtCs86yVScfUyun_18timekeeper_backend8handlers5admin8holidays5testss_31test_parse_type_filter_with_all
FNDA:1,_RNvNtNtNtNtCs86yVScfUyun_18timekeeper_backend8handlers5admin8holidays5testss_32test_parse_type_filter_with_none
FNDA:1,_RNvNtNtNtNtCs86yVScfUyun_18timekeeper_backend8handlers5admin8holidays5testss_34test_parse_type_filter_with_public
FNDA:1,_RNvNtNtNtNtCs86yVScfUyun_18timekeeper_backend8handlers5admin8holidays5testss_34test_parse_type_filter_with_weekly
FNDA:1,_RNvNtNtNtNtCs86yVScfUyun_18timekeeper_backend8handlers5admin8holidays5testss_37test_parse_type_filter_with_exception
FNDA:1,_RNvNtNtNtNtCs86yVScfUyun_18timekeeper_backend8handlers5admin8holidays5testss_39test_parse_type_filter_case_insensitive
FNDA:1,_RNvNtNtNtNtCs86yVScfUyun_18timekeeper_backend8handlers5admin8holidays5testss_41test_admin_holiday_list_query_with_values
FNDA:1,_RNvNtNtNtNtCs86yVScfUyun_18timekeeper_backend8handlers5admin8holidays5testss_41test_admin_holiday_query_params_structure
FNDA:1,_RNvNtNtNtNtCs86yVScfUyun_18timekeeper_backend8handlers5admin8holidays5testss_42test_admin_holiday_list_response_structure
FNDA:1,_RNvNtNtNtNtCs86yVScfUyun_18timekeeper_backend8handlers5admin8holidays5testss_43test_parse_type_filter_rejects_invalid_type
FNDA:1,_RNvNtNtNtNtCs86yVScfUyun_18timekeeper_backend8handlers5admin8holidays5testss_44test_admin_holiday_list_query_default_values
FNDA:1,_RNvNtNtNtNtCs86yVScfUyun_18timekeeper_backend8handlers5admin8holidays5testss_45test_validate_admin_holiday_query_clamps_page
FNDA:1,_RNvNtNtNtNtCs86yVScfUyun_18timekeeper_backend8handlers5admin8holidays5testss_47test_validate_admin_holiday_query_with_defaults
FNDA:1,_RNvNtNtNtNtCs86yVScfUyun_18timekeeper_backend8handlers5admin8holidays5testss_49test_validate_admin_holiday_query_clamps_per_page
FNDA:1,_RNvNtNtNtNtCs86yVScfUyun_18timekeeper_backend8handlers5admin8holidays5testss_51test_validate_admin_holiday_query_with_valid_values
FNDA:1,_RNvNtNtNtNtCs86yVScfUyun_18timekeeper_backend8handlers5admin8holidays5testss_60test_validate_admin_holiday_query_rejects_invalid_date_range
FNDA:0,_RNCNCNvNtNtNtCs86yVScfUyun_18timekeeper_backend8handlers5admin8holidays14create_holiday00Bb_
FNDA:0,_RNCNCNvNtNtNtCs86yVScfUyun_18timekeeper_backend8handlers5admin8holidays14delete_holiday00Bb_
FNDA:0,_RNCNCNvNtNtNtCs86yVScfUyun_18timekeeper_backend8handlers5admin8holidays21delete_weekly_holiday00Bb_
FNDA:0,_RNCNvNtNtNtCs86yVScfUyun_18timekeeper_backend8handlers5admin8holidays13list_holidays0B9_
FNDA:0,_RNCNvNtNtNtCs86yVScfUyun_18timekeeper_backend8handlers5admin8holidays14create_holiday0B9_
FNDA:0,_RNCNvNtNtNtCs86yVScfUyun_18timekeeper_backend8handlers5admin8holidays14delete_holiday0B9_
FNDA:0,_RNCNvNtNtNtCs86yVScfUyun_18timekeeper_backend8handlers5admin8holidays20list_weekly_holidays0B9_
FNDA:0,_RNCNvNtNtNtCs86yVScfUyun_18timekeeper_backend8handlers5admin8holidays21create_weekly_holiday0B9_
FNDA:0,_RNCNvNtNtNtCs86yVScfUyun_18timekeeper_backend8handlers5admin8holidays21delete_weekly_holiday0B9_
FNDA:0,_RNCNvNtNtNtCs86yVScfUyun_18timekeeper_backend8handlers5admin8holidays28validate_admin_holiday_query0B9_
FNDA:0,_RNCNvNtNtNtCs86yVScfUyun_18timekeeper_backend8handlers5admin8holidays28validate_admin_holiday_querys0_0B9_
FNDA:0,_RNCNvNtNtNtCs86yVScfUyun_18timekeeper_backend8handlers5admin8holidays28validate_admin_holiday_querys_0B9_
FNF:36
FNH:29
DA:35,5
DA:36,5
DA:37,5
DA:38,5
DA:39,5
DA:40,5
DA:41,1
DA:42,4
DA:45,1
DA:46,1
DA:47,1
DA:48,1
DA:49,1
DA:50,4
DA:51,1
DA:53,1
DA:54,1
DA:55,1
DA:56,1
DA:58,1
DA:59,1
DA:60,1
DA:61,1
DA:62,1
DA:63,1
DA:64,5
DA:66,3
DA:67,3
DA:68,3
DA:69,3
DA:70,3
DA:71,3
DA:72,0
DA:73,3
DA:76,3
DA:77,3
DA:78,3
DA:79,3
DA:81,3
DA:82,3
DA:83,1
DA:84,2
DA:86,2
DA:87,1
DA:88,0
DA:90,1
DA:92,1
DA:94,2
DA:95,2
DA:96,2
DA:97,2
DA:100,2
DA:101,2
DA:102,1
DA:103,3
DA:105,1
DA:106,1
DA:107,1
DA:108,1
DA:109,1
DA:110,1
DA:111,0
DA:112,1
DA:114,1
DA:115,1
DA:117,1
DA:118,1
DA:120,1
DA:121,1
DA:123,0
DA:124,0
DA:125,0
DA:126,0
DA:127,0
DA:128,0
DA:129,0
DA:131,0
DA:132,0
DA:134,0
DA:135,0
DA:136,0
DA:137,0
DA:138,0
DA:139,0
DA:140,0
DA:142,2
DA:143,2
DA:144,2
DA:145,2
DA:146,2
DA:147,2
DA:148,0
DA:149,2
DA:151,2
DA:152,1
DA:153,1
DA:154,1
DA:155,1
DA:157,1
DA:158,1
DA:159,1
DA:160,1
DA:161,1
DA:162,0
DA:163,0
DA:165,0
DA:166,0
DA:167,0
DA:168,0
DA:169,0
DA:170,0
DA:171,0
DA:173,0
DA:175,0
DA:176,0
DA:178,0
DA:179,2
DA:181,0
DA:182,0
DA:183,0
DA:184,0
DA:185,0
DA:186,0
DA:187,0
DA:188,0
DA:190,0
DA:191,0
DA:193,0
DA:194,0
DA:196,0
DA:197,0
DA:230,14
DA:231,14
DA:232,14
DA:233,14
DA:234,14
DA:235,14
DA:236,14
DA:237,14
DA:239,13
DA:240,14
DA:241,12
DA:242,13
DA:243,12
DA:245,12
DA:246,5
DA:247,3
DA:248,3
DA:249,3
DA:250,2
DA:251,7
DA:253,9
DA:254,9
DA:255,9
DA:256,9
DA:257,9
DA:258,9
DA:259,9
DA:260,14
DA:262,28
DA:263,17
DA:264,17
DA:265,15
DA:266,15
DA:267,15
DA:268,11
DA:270,28
DA:278,2
DA:279,2
DA:280,2
DA:281,2
DA:282,2
DA:283,2
DA:284,2
DA:285,2
DA:286,2
DA:287,2
DA:288,2
DA:289,2
DA:290,2
DA:291,2
DA:294,2
DA:295,2
DA:296,2
DA:297,2
DA:298,2
DA:299,2
DA:300,2
DA:301,2
DA:302,2
DA:303,2
DA:304,2
DA:305,2
DA:306,2
DA:307,2
DA:310,2
DA:315,2
DA:316,2
DA:317,2
DA:318,2
DA:319,2
DA:320,2
DA:321,2
DA:322,2
DA:323,2
DA:324,2
DA:325,2
DA:326,2
DA:327,2
DA:328,2
DA:329,2
DA:330,2
DA:331,2
DA:333,2
DA:334,2
DA:335,2
DA:336,2
DA:337,2
DA:338,2
DA:340,2
DA:341,2
DA:342,2
DA:343,2
DA:344,2
DA:347,2
DA:350,2
DA:351,2
DA:352,2
DA:353,2
DA:354,2
DA:355,2
DA:356,2
DA:358,2
DA:359,2
DA:360,2
DA:361,2
DA:362,2
DA:363,2
DA:366,2
DA:367,2
DA:368,2
DA:369,2
DA:370,2
DA:371,2
DA:372,2
DA:373,2
DA:375,2
DA:376,2
DA:378,2
DA:379,2
DA:380,2
DA:381,2
DA:382,2
DA:383,2
DA:384,2
DA:387,2
DA:388,2
DA:389,2
DA:390,2
DA:391,2
DA:392,2
DA:393,2
DA:394,2
DA:396,2
DA:397,2
DA:399,2
DA:400,2
DA:401,2
DA:402,2
DA:403,2
DA:404,2
DA:405,2
DA:408,2
DA:409,2
DA:410,2
DA:411,2
DA:412,2
DA:413,2
DA:414,2
DA:415,2
DA:417,2
DA:418,2
DA:419,2
DA:420,2
DA:423,2
DA:424,2
DA:425,2
DA:426,2
DA:427,2
DA:430,2
DA:431,2
DA:432,2
DA:433,2
DA:434,2
DA:437,2
DA:438,2
DA:439,2
DA:440,2
DA:441,2
DA:444,2
DA:445,2
DA:446,2
DA:447,2
DA:448,2
DA:451,2
DA:452,2
DA:453,2
DA:454,2
DA:455,2
DA:458,2
DA:459,2
DA:460,2
DA:461,2
DA:462,2
DA:465,2
DA:466,2
DA:467,2
DA:468,2
DA:469,2
DA:472,2
DA:473,2
DA:474,2
DA:475,2
DA:476,2
DA:477,2
DA:478,2
DA:479,2
DA:481,2
DA:482,2
DA:483,2
DA:484,2
DA:487,2
DA:488,2
DA:489,2
DA:490,2
DA:491,2
DA:492,2
DA:493,2
DA:494,2
DA:496,2
DA:497,2
DA:498,2
DA:499,2
BRF:0
BRH:0
LF:355
LH:303
end_of_record
SF:/home/marra/projects/timekeeper/backend/src/handlers/admin/mod.rs
FN:87,_RNvNtNtNtCsjEFxG0ag9NF_18timekeeper_backend8handlers5admin16query_validation11bad_request
FN:76,_RNvNtNtNtCsjEFxG0ag9NF_18timekeeper_backend8handlers5admin16query_validation17parse_type_filter
FN:48,_RNvNtNtNtCsjEFxG0ag9NF_18timekeeper_backend8handlers5admin16query_validation28validate_admin_holiday_query
FN:111,_RNvNtNtNtCsjEFxG0ag9NF_18timekeeper_backend8handlers5admin5testss_46validate_admin_holiday_query_clamps_and_parses
FN:135,_RNvNtNtNtCsjEFxG0ag9NF_18timekeeper_backend8handlers5admin5testss_49validate_admin_holiday_query_rejects_invalid_type
FN:149,_RNvNtNtNtCsjEFxG0ag9NF_18timekeeper_backend8handlers5admin5testss_51validate_admin_holiday_query_rejects_inverted_range
FN:111,_RNvNtNtNtCs86yVScfUyun_18timekeeper_backend8handlers5admin5testss_46validate_admin_holiday_query_clamps_and_parses
FN:135,_RNvNtNtNtCs86yVScfUyun_18timekeeper_backend8handlers5admin5testss_49validate_admin_holiday_query_rejects_invalid_type
FN:149,_RNvNtNtNtCs86yVScfUyun_18timekeeper_backend8handlers5admin5testss_51validate_admin_holiday_query_rejects_inverted_range
FN:87,_RNvNtNtNtCs86yVScfUyun_18timekeeper_backend8handlers5admin16query_validation11bad_request
FN:76,_RNvNtNtNtCs86yVScfUyun_18timekeeper_backend8handlers5admin16query_validation17parse_type_filter
FN:48,_RNvNtNtNtCs86yVScfUyun_18timekeeper_backend8handlers5admin16query_validation28validate_admin_holiday_query
FNDA:2,_RNvNtNtNtCsjEFxG0ag9NF_18timekeeper_backend8handlers5admin16query_validation11bad_request
FNDA:3,_RNvNtNtNtCsjEFxG0ag9NF_18timekeeper_backend8handlers5admin16query_validation17parse_type_filter
FNDA:3,_RNvNtNtNtCsjEFxG0ag9NF_18timekeeper_backend8handlers5admin16query_validation28validate_admin_holiday_query
FNDA:1,_RNvNtNtNtCsjEFxG0ag9NF_18timekeeper_backend8handlers5admin5testss_46validate_admin_holiday_query_clamps_and_parses
FNDA:1,_RNvNtNtNtCsjEFxG0ag9NF_18timekeeper_backend8handlers5admin5testss_49validate_admin_holiday_query_rejects_invalid_type
FNDA:1,_RNvNtNtNtCsjEFxG0ag9NF_18timekeeper_backend8handlers5admin5testss_51validate_admin_holiday_query_rejects_inverted_range
FNDA:1,_RNvNtNtNtCs86yVScfUyun_18timekeeper_backend8handlers5admin5testss_46validate_admin_holiday_query_clamps_and_parses
FNDA:1,_RNvNtNtNtCs86yVScfUyun_18timekeeper_backend8handlers5admin5testss_49validate_admin_holiday_query_rejects_invalid_type
FNDA:1,_RNvNtNtNtCs86yVScfUyun_18timekeeper_backend8handlers5admin5testss_51validate_admin_holiday_query_rejects_inverted_range
FNDA:2,_RNvNtNtNtCs86yVScfUyun_18timekeeper_backend8handlers5admin16query_validation11bad_request
FNDA:3,_RNvNtNtNtCs86yVScfUyun_18timekeeper_backend8handlers5admin16query_validation17parse_type_filter
FNDA:3,_RNvNtNtNtCs86yVScfUyun_18timekeeper_backend8handlers5admin16query_validation28validate_admin_holiday_query
FNF:6
FNH:6
DA:48,6
DA:49,6
DA:50,6
DA:51,6
DA:52,6
DA:53,6
DA:54,6
DA:55,6
DA:57,6
DA:58,4
DA:59,4
DA:61,4
DA:62,4
DA:63,2
DA:64,2
DA:65,0
DA:67,2
DA:68,2
DA:69,2
DA:70,2
DA:71,2
DA:72,2
DA:73,2
DA:74,6
DA:76,6
DA:77,4
DA:78,4
DA:79,4
DA:80,2
DA:81,2
DA:82,2
DA:83,2
DA:85,6
DA:87,4
DA:88,4
DA:89,4
DA:90,4
DA:91,4
DA:92,4
DA:111,2
DA:112,2
DA:113,2
DA:114,2
DA:115,2
DA:116,2
DA:117,2
DA:118,2
DA:120,2
DA:121,2
DA:122,2
DA:123,2
DA:124,2
DA:126,2
DA:128,2
DA:130,2
DA:132,2
DA:135,2
DA:136,2
DA:137,2
DA:138,2
DA:139,2
DA:140,2
DA:141,2
DA:142,2
DA:144,2
DA:145,2
DA:146,2
DA:149,2
DA:150,2
DA:151,2
DA:152,2
DA:153,2
DA:154,2
DA:155,2
DA:156,2
DA:158,2
DA:159,2
DA:160,2
BRF:0
BRH:0
LF:78
LH:77
end_of_record
SF:/home/marra/projects/timekeeper/backend/src/handlers/admin/requests.rs
FN:142,_RNCNCNvNtNtNtCs2oPl7zguF9n_18timekeeper_backend8handlers5admin8requests13list_requests00Bb_
FN:160,_RNCNCNvNtNtNtCs2oPl7zguF9n_18timekeeper_backend8handlers5admin8requests13list_requests0s0_0Bb_
FN:156,_RNCNCNvNtNtNtCs2oPl7zguF9n_18timekeeper_backend8handlers5admin8requests13list_requests0s_0Bb_
FN:136,_RNCNvNtNtNtCs2oPl7zguF9n_18timekeeper_backend8handlers5admin8requests13list_requests0B9_
FN:77,_RNCNvNtNtNtCs2oPl7zguF9n_18timekeeper_backend8handlers5admin8requests14reject_request0B9_
FN:38,_RNCNvNtNtNtCs2oPl7zguF9n_18timekeeper_backend8handlers5admin8requests15approve_request0B9_
FN:195,_RNCNvNtNtNtCs2oPl7zguF9n_18timekeeper_backend8handlers5admin8requests17paginate_requests0B9_
FN:219,_RNCNvNtNtNtCs2oPl7zguF9n_18timekeeper_backend8handlers5admin8requests18get_request_detail0B9_
FN:132,_RNvNtNtNtCs2oPl7zguF9n_18timekeeper_backend8handlers5admin8requests13list_requests
FN:72,_RNvNtNtNtCs2oPl7zguF9n_18timekeeper_backend8handlers5admin8requests14reject_request
FN:33,_RNvNtNtNtCs2oPl7zguF9n_18timekeeper_backend8handlers5admin8requests15approve_request
FN:190,_RNvNtNtNtCs2oPl7zguF9n_18timekeeper_backend8handlers5admin8requests17paginate_requests
FN:215,_RNvNtNtNtCs2oPl7zguF9n_18timekeeper_backend8handlers5admin8requests18get_request_detail
FN:261,_RNvNtNtNtCs2oPl7zguF9n_18timekeeper_backend8handlers5admin8requests21parse_filter_datetime
FN:200,_RNvNtNtNtCs2oPl7zguF9n_18timekeeper_backend8handlers5admin8requests25validate_decision_comment
FN:132,_RNvNtNtNtCsjEFxG0ag9NF_18timekeeper_backend8handlers5admin8requests13list_requests
FN:72,_RNvNtNtNtCsjEFxG0ag9NF_18timekeeper_backend8handlers5admin8requests14reject_request
FN:33,_RNvNtNtNtCsjEFxG0ag9NF_18timekeeper_backend8handlers5admin8requests15approve_request
FN:215,_RNvNtNtNtCsjEFxG0ag9NF_18timekeeper_backend8handlers5admin8requests18get_request_detail
FN:190,_RNvNtNtNtCsjEFxG0ag9NF_18timekeeper_backend8handlers5admin8requests17paginate_requests
FN:261,_RNvNtNtNtCsjEFxG0ag9NF_18timekeeper_backend8handlers5admin8requests21parse_filter_datetime
FN:200,_RNvNtNtNtCsjEFxG0ag9NF_18timekeeper_backend8handlers5admin8requests25validate_decision_comment
FN:447,_RNvNtNtNtNtCsjEFxG0ag9NF_18timekeeper_backend8handlers5admin8requests5testss_29test_reject_payload_structure
FN:439,_RNvNtNtNtNtCsjEFxG0ag9NF_18timekeeper_backend8handlers5admin8requests5testss_30test_approve_payload_structure
FN:324,_RNvNtNtNtNtCsjEFxG0ag9NF_18timekeeper_backend8handlers5admin8requests5testss_36test_paginate_requests_with_defaults
FN:479,_RNvNtNtNtNtCsjEFxG0ag9NF_18timekeeper_backend8handlers5admin8requests5testss_36test_request_list_response_structure
FN:472,_RNvNtNtNtNtCsjEFxG0ag9NF_18timekeeper_backend8handlers5admin8requests5testss_37test_request_list_page_info_structure
FN:358,_RNvNtNtNtNtCsjEFxG0ag9NF_18timekeeper_backend8handlers5admin8requests5testss_38test_paginate_requests_clamps_per_page
FN:455,_RNvNtNtNtNtCsjEFxG0ag9NF_18timekeeper_backend8handlers5admin8requests5testss_38test_request_list_query_default_values
FN:373,_RNvNtNtNtNtCsjEFxG0ag9NF_18timekeeper_backend8handlers5admin8requests5testss_40test_paginate_requests_rejects_zero_page
FN:341,_RNvNtNtNtNtCsjEFxG0ag9NF_18timekeeper_backend8handlers5admin8requests5testss_41test_paginate_requests_with_custom_values
FN:403,_RNvNtNtNtNtCsjEFxG0ag9NF_18timekeeper_backend8handlers5admin8requests5testss_41test_parse_filter_datetime_parses_rfc3339
FN:421,_RNvNtNtNtNtCsjEFxG0ag9NF_18timekeeper_backend8handlers5admin8requests5testss_47test_parse_filter_datetime_parses_date_only_end
FN:388,_RNvNtNtNtNtCsjEFxG0ag9NF_18timekeeper_backend8handlers5admin8requests5testss_48test_paginate_requests_rejects_negative_per_page
FN:410,_RNvNtNtNtNtCsjEFxG0ag9NF_18timekeeper_backend8handlers5admin8requests5testss_49test_parse_filter_datetime_parses_date_only_start
FN:432,_RNvNtNtNtNtCsjEFxG0ag9NF_18timekeeper_backend8handlers5admin8requests5testss_51test_parse_filter_datetime_returns_none_for_invalid
FN:288,_RNvNtNtNtNtCsjEFxG0ag9NF_18timekeeper_backend8handlers5admin8requests5testss_52test_validate_decision_comment_accepts_valid_comment
FN:294,_RNvNtNtNtNtCsjEFxG0ag9NF_18timekeeper_backend8handlers5admin8requests5testss_52test_validate_decision_comment_rejects_empty_comment
FN:310,_RNvNtNtNtNtCsjEFxG0ag9NF_18timekeeper_backend8handlers5admin8requests5testss_55test_validate_decision_comment_rejects_too_long_comment
FN:318,_RNvNtNtNtNtCsjEFxG0ag9NF_18timekeeper_backend8handlers5admin8requests5testss_57test_validate_decision_comment_accepts_max_length_comment
FN:302,_RNvNtNtNtNtCsjEFxG0ag9NF_18timekeeper_backend8handlers5admin8requests5testss_62test_validate_decision_comment_rejects_whitespace_only_comment
FN:142,_RNCNCNvNtNtNtCsjEFxG0ag9NF_18timekeeper_backend8handlers5admin8requests13list_requests00Bb_
FN:160,_RNCNCNvNtNtNtCsjEFxG0ag9NF_18timekeeper_backend8handlers5admin8requests13list_requests0s0_0Bb_
FN:156,_RNCNCNvNtNtNtCsjEFxG0ag9NF_18timekeeper_backend8handlers5admin8requests13list_requests0s_0Bb_
FN:136,_RNCNvNtNtNtCsjEFxG0ag9NF_18timekeeper_backend8handlers5admin8requests13list_requests0B9_
FN:77,_RNCNvNtNtNtCsjEFxG0ag9NF_18timekeeper_backend8handlers5admin8requests14reject_request0B9_
FN:38,_RNCNvNtNtNtCsjEFxG0ag9NF_18timekeeper_backend8handlers5admin8requests15approve_request0B9_
FN:195,_RNCNvNtNtNtCsjEFxG0ag9NF_18timekeeper_backend8handlers5admin8requests17paginate_requests0B9_
FN:219,_RNCNvNtNtNtCsjEFxG0ag9NF_18timekeeper_backend8handlers5admin8requests18get_request_detail0B9_
FN:132,_RNvNtNtNtCsiqn6J3Zmf7c_18timekeeper_backend8handlers5admin8requests13list_requests
FN:72,_RNvNtNtNtCsiqn6J3Zmf7c_18timekeeper_backend8handlers5admin8requests14reject_request
FN:33,_RNvNtNtNtCsiqn6J3Zmf7c_18timekeeper_backend8handlers5admin8requests15approve_request
FN:190,_RNvNtNtNtCsiqn6J3Zmf7c_18timekeeper_backend8handlers5admin8requests17paginate_requests
FN:215,_RNvNtNtNtCsiqn6J3Zmf7c_18timekeeper_backend8handlers5admin8requests18get_request_detail
FN:261,_RNvNtNtNtCsiqn6J3Zmf7c_18timekeeper_backend8handlers5admin8requests21parse_filter_datetime
FN:200,_RNvNtNtNtCsiqn6J3Zmf7c_18timekeeper_backend8handlers5admin8requests25validate_decision_comment
FN:142,_RNCNCNvNtNtNtCsiqn6J3Zmf7c_18timekeeper_backend8handlers5admin8requests13list_requests00Bb_
FN:160,_RNCNCNvNtNtNtCsiqn6J3Zmf7c_18timekeeper_backend8handlers5admin8requests13list_requests0s0_0Bb_
FN:156,_RNCNCNvNtNtNtCsiqn6J3Zmf7c_18timekeeper_backend8handlers5admin8requests13list_requests0s_0Bb_
FN:136,_RNCNvNtNtNtCsiqn6J3Zmf7c_18timekeeper_backend8handlers5admin8requests13list_requests0B9_
FN:77,_RNCNvNtNtNtCsiqn6J3Zmf7c_18timekeeper_backend8handlers5admin8requests14reject_request0B9_
FN:38,_RNCNvNtNtNtCsiqn6J3Zmf7c_18timekeeper_backend8handlers5admin8requests15approve_request0B9_
FN:195,_RNCNvNtNtNtCsiqn6J3Zmf7c_18timekeeper_backend8handlers5admin8requests17paginate_requests0B9_
FN:219,_RNCNvNtNtNtCsiqn6J3Zmf7c_18timekeeper_backend8handlers5admin8requests18get_request_detail0B9_
FN:132,_RNvNtNtNtCs86yVScfUyun_18timekeeper_backend8handlers5admin8requests13list_requests
FN:72,_RNvNtNtNtCs86yVScfUyun_18timekeeper_backend8handlers5admin8requests14reject_request
FN:33,_RNvNtNtNtCs86yVScfUyun_18timekeeper_backend8handlers5admin8requests15approve_request
FN:215,_RNvNtNtNtCs86yVScfUyun_18timekeeper_backend8handlers5admin8requests18get_request_detail
FN:447,_RNvNtNtNtNtCs86yVScfUyun_18timekeeper_backend8handlers5admin8requests5testss_29test_reject_payload_structure
FN:439,_RNvNtNtNtNtCs86yVScfUyun_18timekeeper_backend8handlers5admin8requests5testss_30test_approve_payload_structure
FN:324,_RNvNtNtNtNtCs86yVScfUyun_18timekeeper_backend8handlers5admin8requests5testss_36test_paginate_requests_with_defaults
FN:479,_RNvNtNtNtNtCs86yVScfUyun_18timekeeper_backend8handlers5admin8requests5testss_36test_request_list_response_structure
FN:472,_RNvNtNtNtNtCs86yVScfUyun_18timekeeper_backend8handlers5admin8requests5testss_37test_request_list_page_info_structure
FN:358,_RNvNtNtNtNtCs86yVScfUyun_18timekeeper_backend8handlers5admin8requests5testss_38test_paginate_requests_clamps_per_page
FN:455,_RNvNtNtNtNtCs86yVScfUyun_18timekeeper_backend8handlers5admin8requests5testss_38test_request_list_query_default_values
FN:373,_RNvNtNtNtNtCs86yVScfUyun_18timekeeper_backend8handlers5admin8requests5testss_40test_paginate_requests_rejects_zero_page
FN:341,_RNvNtNtNtNtCs86yVScfUyun_18timekeeper_backend8handlers5admin8requests5testss_41test_paginate_requests_with_custom_values
FN:403,_RNvNtNtNtNtCs86yVScfUyun_18timekeeper_backend8handlers5admin8requests5testss_41test_parse_filter_datetime_parses_rfc3339
FN:421,_RNvNtNtNtNtCs86yVScfUyun_18timekeeper_backend8handlers5admin8requests5testss_47test_parse_filter_datetime_parses_date_only_end
FN:388,_RNvNtNtNtNtCs86yVScfUyun_18timekeeper_backend8handlers5admin8requests5testss_48test_paginate_requests_rejects_negative_per_page
FN:410,_RNvNtNtNtNtCs86yVScfUyun_18timekeeper_backend8handlers5admin8requests5testss_49test_parse_filter_datetime_parses_date_only_start
FN:432,_RNvNtNtNtNtCs86yVScfUyun_18timekeeper_backend8handlers5admin8requests5testss_51test_parse_filter_datetime_returns_none_for_invalid
FN:288,_RNvNtNtNtNtCs86yVScfUyun_18timekeeper_backend8handlers5admin8requests5testss_52test_validate_decision_comment_accepts_valid_comment
FN:294,_RNvNtNtNtNtCs86yVScfUyun_18timekeeper_backend8handlers5admin8requests5testss_52test_validate_decision_comment_rejects_empty_comment
FN:310,_RNvNtNtNtNtCs86yVScfUyun_18timekeeper_backend8handlers5admin8requests5testss_55test_validate_decision_comment_rejects_too_long_comment
FN:318,_RNvNtNtNtNtCs86yVScfUyun_18timekeeper_backend8handlers5admin8requests5testss_57test_validate_decision_comment_accepts_max_length_comment
FN:302,_RNvNtNtNtNtCs86yVScfUyun_18timekeeper_backend8handlers5admin8requests5testss_62test_validate_decision_comment_rejects_whitespace_only_comment
FN:142,_RNCNCNvNtNtNtCs86yVScfUyun_18timekeeper_backend8handlers5admin8requests13list_requests00Bb_
FN:160,_RNCNCNvNtNtNtCs86yVScfUyun_18timekeeper_backend8handlers5admin8requests13list_requests0s0_0Bb_
FN:156,_RNCNCNvNtNtNtCs86yVScfUyun_18timekeeper_backend8handlers5admin8requests13list_requests0s_0Bb_
FN:136,_RNCNvNtNtNtCs86yVScfUyun_18timekeeper_backend8handlers5admin8requests13list_requests0B9_
FN:77,_RNCNvNtNtNtCs86yVScfUyun_18timekeeper_backend8handlers5admin8requests14reject_request0B9_
FN:38,_RNCNvNtNtNtCs86yVScfUyun_18timekeeper_backend8handlers5admin8requests15approve_request0B9_
FN:195,_RNCNvNtNtNtCs86yVScfUyun_18timekeeper_backend8handlers5admin8requests17paginate_requests0B9_
FN:219,_RNCNvNtNtNtCs86yVScfUyun_18timekeeper_backend8handlers5admin8requests18get_request_detail0B9_
FN:190,_RNvNtNtNtCs86yVScfUyun_18timekeeper_backend8handlers5admin8requests17paginate_requests
FN:261,_RNvNtNtNtCs86yVScfUyun_18timekeeper_backend8handlers5admin8requests21parse_filter_datetime
FN:200,_RNvNtNtNtCs86yVScfUyun_18timekeeper_backend8handlers5admin8requests25validate_decision_comment
FNDA:0,_RNCNCNvNtNtNtCs2oPl7zguF9n_18timekeeper_backend8handlers5admin8requests13list_requests00Bb_
FNDA:0,_RNCNCNvNtNtNtCs2oPl7zguF9n_18timekeeper_backend8handlers5admin8requests13list_requests0s0_0Bb_
FNDA:0,_RNCNCNvNtNtNtCs2oPl7zguF9n_18timekeeper_backend8handlers5admin8requests13list_requests0s_0Bb_
FNDA:2,_RNCNvNtNtNtCs2oPl7zguF9n_18timekeeper_backend8handlers5admin8requests13list_requests0B9_
FNDA:1,_RNCNvNtNtNtCs2oPl7zguF9n_18timekeeper_backend8handlers5admin8requests14reject_request0B9_
FNDA:4,_RNCNvNtNtNtCs2oPl7zguF9n_18timekeeper_backend8handlers5admin8requests15approve_request0B9_
FNDA:2,_RNCNvNtNtNtCs2oPl7zguF9n_18timekeeper_backend8handlers5admin8requests17paginate_requests0B9_
FNDA:0,_RNCNvNtNtNtCs2oPl7zguF9n_18timekeeper_backend8handlers5admin8requests18get_request_detail0B9_
FNDA:2,_RNvNtNtNtCs2oPl7zguF9n_18timekeeper_backend8handlers5admin8requests13list_requests
FNDA:1,_RNvNtNtNtCs2oPl7zguF9n_18timekeeper_backend8handlers5admin8requests14reject_request
FNDA:4,_RNvNtNtNtCs2oPl7zguF9n_18timekeeper_backend8handlers5admin8requests15approve_request
FNDA:2,_RNvNtNtNtCs2oPl7zguF9n_18timekeeper_backend8handlers5admin8requests17paginate_requests
FNDA:0,_RNvNtNtNtCs2oPl7zguF9n_18timekeeper_backend8handlers5admin8requests18get_request_detail
FNDA:0,_RNvNtNtNtCs2oPl7zguF9n_18timekeeper_backend8handlers5admin8requests21parse_filter_datetime
FNDA:10,_RNvNtNtNtCs2oPl7zguF9n_18timekeeper_backend8handlers5admin8requests25validate_decision_comment
FNDA:0,_RNvNtNtNtCsjEFxG0ag9NF_18timekeeper_backend8handlers5admin8requests13list_requests
FNDA:0,_RNvNtNtNtCsjEFxG0ag9NF_18timekeeper_backend8handlers5admin8requests14reject_request
FNDA:0,_RNvNtNtNtCsjEFxG0ag9NF_18timekeeper_backend8handlers5admin8requests15approve_request
FNDA:0,_RNvNtNtNtCsjEFxG0ag9NF_18timekeeper_backend8handlers5admin8requests18get_request_detail
FNDA:5,_RNvNtNtNtCsjEFxG0ag9NF_18timekeeper_backend8handlers5admin8requests17paginate_requests
FNDA:4,_RNvNtNtNtCsjEFxG0ag9NF_18timekeeper_backend8handlers5admin8requests21parse_filter_datetime
FNDA:5,_RNvNtNtNtCsjEFxG0ag9NF_18timekeeper_backend8handlers5admin8requests25validate_decision_comment
FNDA:1,_RNvNtNtNtNtCsjEFxG0ag9NF_18timekeeper_backend8handlers5admin8requests5testss_29test_reject_payload_structure
FNDA:1,_RNvNtNtNtNtCsjEFxG0ag9NF_18timekeeper_backend8handlers5admin8requests5testss_30test_approve_payload_structure
FNDA:1,_RNvNtNtNtNtCsjEFxG0ag9NF_18timekeeper_backend8handlers5admin8requests5testss_36test_paginate_requests_with_defaults
FNDA:1,_RNvNtNtNtNtCsjEFxG0ag9NF_18timekeeper_backend8handlers5admin8requests5testss_36test_request_list_response_structure
FNDA:1,_RNvNtNtNtNtCsjEFxG0ag9NF_18timekeeper_backend8handlers5admin8requests5testss_37test_request_list_page_info_structure
FNDA:1,_RNvNtNtNtNtCsjEFxG0ag9NF_18timekeeper_backend8handlers5admin8requests5testss_38test_paginate_requests_clamps_per_page
FNDA:1,_RNvNtNtNtNtCsjEFxG0ag9NF_18timekeeper_backend8handlers5admin8requests5testss_38test_request_list_query_default_values
FNDA:1,_RNvNtNtNtNtCsjEFxG0ag9NF_18timekeeper_backend8handlers5admin8requests5testss_40test_paginate_requests_rejects_zero_page
FNDA:1,_RNvNtNtNtNtCsjEFxG0ag9NF_18timekeeper_backend8handlers5admin8requests5testss_41test_paginate_requests_with_custom_values
FNDA:1,_RNvNtNtNtNtCsjEFxG0ag9NF_18timekeeper_backend8handlers5admin8requests5testss_41test_parse_filter_datetime_parses_rfc3339
FNDA:1,_RNvNtNtNtNtCsjEFxG0ag9NF_18timekeeper_backend8handlers5admin8requests5testss_47test_parse_filter_datetime_parses_date_only_end
FNDA:1,_RNvNtNtNtNtCsjEFxG0ag9NF_18timekeeper_backend8handlers5admin8requests5testss_48test_paginate_requests_rejects_negative_per_page
FNDA:1,_RNvNtNtNtNtCsjEFxG0ag9NF_18timekeeper_backend8handlers5admin8requests5testss_49test_parse_filter_datetime_parses_date_only_start
FNDA:1,_RNvNtNtNtNtCsjEFxG0ag9NF_18timekeeper_backend8handlers5admin8requests5testss_51test_parse_filter_datetime_returns_none_for_invalid
FNDA:1,_RNvNtNtNtNtCsjEFxG0ag9NF_18timekeeper_backend8handlers5admin8requests5testss_52test_validate_decision_comment_accepts_valid_comment
FNDA:1,_RNvNtNtNtNtCsjEFxG0ag9NF_18timekeeper_backend8handlers5admin8requests5testss_52test_validate_decision_comment_rejects_empty_comment
FNDA:1,_RNvNtNtNtNtCsjEFxG0ag9NF_18timekeeper_backend8handlers5admin8requests5testss_55test_validate_decision_comment_rejects_too_long_comment
FNDA:1,_RNvNtNtNtNtCsjEFxG0ag9NF_18timekeeper_backend8handlers5admin8requests5testss_57test_validate_decision_comment_accepts_max_length_comment
FNDA:1,_RNvNtNtNtNtCsjEFxG0ag9NF_18timekeeper_backend8handlers5admin8requests5testss_62test_validate_decision_comment_rejects_whitespace_only_comment
FNDA:0,_RNCNCNvNtNtNtCsjEFxG0ag9NF_18timekeeper_backend8handlers5admin8requests13list_requests00Bb_
FNDA:0,_RNCNCNvNtNtNtCsjEFxG0ag9NF_18timekeeper_backend8handlers5admin8requests13list_requests0s0_0Bb_
FNDA:0,_RNCNCNvNtNtNtCsjEFxG0ag9NF_18timekeeper_backend8handlers5admin8requests13list_requests0s_0Bb_
FNDA:0,_RNCNvNtNtNtCsjEFxG0ag9NF_18timekeeper_backend8handlers5admin8requests13list_requests0B9_
FNDA:0,_RNCNvNtNtNtCsjEFxG0ag9NF_18timekeeper_backend8handlers5admin8requests14reject_request0B9_
FNDA:0,_RNCNvNtNtNtCsjEFxG0ag9NF_18timekeeper_backend8handlers5admin8requests15approve_request0B9_
FNDA:5,_RNCNvNtNtNtCsjEFxG0ag9NF_18timekeeper_backend8handlers5admin8requests17paginate_requests0B9_
FNDA:0,_RNCNvNtNtNtCsjEFxG0ag9NF_18timekeeper_backend8handlers5admin8requests18get_request_detail0B9_
FNDA:0,_RNvNtNtNtCsiqn6J3Zmf7c_18timekeeper_backend8handlers5admin8requests13list_requests
FNDA:0,_RNvNtNtNtCsiqn6J3Zmf7c_18timekeeper_backend8handlers5admin8requests14reject_request
FNDA:0,_RNvNtNtNtCsiqn6J3Zmf7c_18timekeeper_backend8handlers5admin8requests15approve_request
FNDA:0,_RNvNtNtNtCsiqn6J3Zmf7c_18timekeeper_backend8handlers5admin8requests17paginate_requests
FNDA:0,_RNvNtNtNtCsiqn6J3Zmf7c_18timekeeper_backend8handlers5admin8requests18get_request_detail
FNDA:0,_RNvNtNtNtCsiqn6J3Zmf7c_18timekeeper_backend8handlers5admin8requests21parse_filter_datetime
FNDA:0,_RNvNtNtNtCsiqn6J3Zmf7c_18timekeeper_backend8handlers5admin8requests25validate_decision_comment
FNDA:0,_RNCNCNvNtNtNtCsiqn6J3Zmf7c_18timekeeper_backend8handlers5admin8requests13list_requests00Bb_
FNDA:0,_RNCNCNvNtNtNtCsiqn6J3Zmf7c_18timekeeper_backend8handlers5admin8requests13list_requests0s0_0Bb_
FNDA:0,_RNCNCNvNtNtNtCsiqn6J3Zmf7c_18timekeeper_backend8handlers5admin8requests13list_requests0s_0Bb_
FNDA:0,_RNCNvNtNtNtCsiqn6J3Zmf7c_18timekeeper_backend8handlers5admin8requests13list_requests0B9_
FNDA:0,_RNCNvNtNtNtCsiqn6J3Zmf7c_18timekeeper_backend8handlers5admin8requests14reject_request0B9_
FNDA:0,_RNCNvNtNtNtCsiqn6J3Zmf7c_18timekeeper_backend8handlers5admin8requests15approve_request0B9_
FNDA:0,_RNCNvNtNtNtCsiqn6J3Zmf7c_18timekeeper_backend8handlers5admin8requests17paginate_requests0B9_
FNDA:0,_RNCNvNtNtNtCsiqn6J3Zmf7c_18timekeeper_backend8handlers5admin8requests18get_request_detail0B9_
FNDA:0,_RNvNtNtNtCs86yVScfUyun_18timekeeper_backend8handlers5admin8requests13list_requests
FNDA:0,_RNvNtNtNtCs86yVScfUyun_18timekeeper_backend8handlers5admin8requests14reject_request
FNDA:0,_RNvNtNtNtCs86yVScfUyun_18timekeeper_backend8handlers5admin8requests15approve_request
FNDA:0,_RNvNtNtNtCs86yVScfUyun_18timekeeper_backend8handlers5admin8requests18get_request_detail
FNDA:1,_RNvNtNtNtNtCs86yVScfUyun_18timekeeper_backend8handlers5admin8requests5testss_29test_reject_payload_structure
FNDA:1,_RNvNtNtNtNtCs86yVScfUyun_18timekeeper_backend8handlers5admin8requests5testss_30test_approve_payload_structure
FNDA:1,_RNvNtNtNtNtCs86yVScfUyun_18timekeeper_backend8handlers5admin8requests5testss_36test_paginate_requests_with_defaults
FNDA:1,_RNvNtNtNtNtCs86yVScfUyun_18timekeeper_backend8handlers5admin8requests5testss_36test_request_list_response_structure
FNDA:1,_RNvNtNtNtNtCs86yVScfUyun_18timekeeper_backend8handlers5admin8requests5testss_37test_request_list_page_info_structure
FNDA:1,_RNvNtNtNtNtCs86yVScfUyun_18timekeeper_backend8handlers5admin8requests5testss_38test_paginate_requests_clamps_per_page
FNDA:1,_RNvNtNtNtNtCs86yVScfUyun_18timekeeper_backend8handlers5admin8requests5testss_38test_request_list_query_default_values
FNDA:1,_RNvNtNtNtNtCs86yVScfUyun_18timekeeper_backend8handlers5admin8requests5testss_40test_paginate_requests_rejects_zero_page
FNDA:1,_RNvNtNtNtNtCs86yVScfUyun_18timekeeper_backend8handlers5admin8requests5testss_41test_paginate_requests_with_custom_values
FNDA:1,_RNvNtNtNtNtCs86yVScfUyun_18timekeeper_backend8handlers5admin8requests5testss_41test_parse_filter_datetime_parses_rfc3339
FNDA:1,_RNvNtNtNtNtCs86yVScfUyun_18timekeeper_backend8handlers5admin8requests5testss_47test_parse_filter_datetime_parses_date_only_end
FNDA:1,_RNvNtNtNtNtCs86yVScfUyun_18timekeeper_backend8handlers5admin8requests5testss_48test_paginate_requests_rejects_negative_per_page
FNDA:1,_RNvNtNtNtNtCs86yVScfUyun_18timekeeper_backend8handlers5admin8requests5testss_49test_parse_filter_datetime_parses_date_only_start
FNDA:1,_RNvNtNtNtNtCs86yVScfUyun_18timekeeper_backend8handlers5admin8requests5testss_51test_parse_filter_datetime_returns_none_for_invalid
FNDA:1,_RNvNtNtNtNtCs86yVScfUyun_18timekeeper_backend8handlers5admin8requests5testss_52test_validate_decision_comment_accepts_valid_comment
FNDA:1,_RNvNtNtNtNtCs86yVScfUyun_18timekeeper_backend8handlers5admin8requests5testss_52test_validate_decision_comment_rejects_empty_comment
FNDA:1,_RNvNtNtNtNtCs86yVScfUyun_18timekeeper_backend8handlers5admin8requests5testss_55test_validate_decision_comment_rejects_too_long_comment
FNDA:1,_RNvNtNtNtNtCs86yVScfUyun_18timekeeper_backend8handlers5admin8requests5testss_57test_validate_decision_comment_accepts_max_length_comment
FNDA:1,_RNvNtNtNtNtCs86yVScfUyun_18timekeeper_backend8handlers5admin8requests5testss_62test_validate_decision_comment_rejects_whitespace_only_comment
FNDA:0,_RNCNCNvNtNtNtCs86yVScfUyun_18timekeeper_backend8handlers5admin8requests13list_requests00Bb_
FNDA:0,_RNCNCNvNtNtNtCs86yVScfUyun_18timekeeper_backend8handlers5admin8requests13list_requests0s0_0Bb_
FNDA:0,_RNCNCNvNtNtNtCs86yVScfUyun_18timekeeper_backend8handlers5admin8requests13list_requests0s_0Bb_
FNDA:0,_RNCNvNtNtNtCs86yVScfUyun_18timekeeper_backend8handlers5admin8requests13list_requests0B9_
FNDA:0,_RNCNvNtNtNtCs86yVScfUyun_18timekeeper_backend8handlers5admin8requests14reject_request0B9_
FNDA:0,_RNCNvNtNtNtCs86yVScfUyun_18timekeeper_backend8handlers5admin8requests15approve_request0B9_
FNDA:5,_RNCNvNtNtNtCs86yVScfUyun_18timekeeper_backend8handlers5admin8requests17paginate_requests0B9_
FNDA:0,_RNCNvNtNtNtCs86yVScfUyun_18timekeeper_backend8handlers5admin8requests18get_request_detail0B9_
FNDA:5,_RNvNtNtNtCs86yVScfUyun_18timekeeper_backend8handlers5admin8requests17paginate_requests
FNDA:4,_RNvNtNtNtCs86yVScfUyun_18timekeeper_backend8handlers5admin8requests21parse_filter_datetime
FNDA:5,_RNvNtNtNtCs86yVScfUyun_18timekeeper_backend8handlers5admin8requests25validate_decision_comment
FNF:34
FNH:29
DA:33,4
DA:34,4
DA:35,4
DA:36,4
DA:37,4
DA:38,4
DA:39,4
DA:40,1
DA:41,3
DA:42,3
DA:43,3
DA:44,3
DA:45,3
DA:46,3
DA:47,3
DA:48,3
DA:49,3
DA:50,3
DA:51,3
DA:52,3
DA:53,3
DA:54,3
DA:55,3
DA:56,3
DA:57,3
DA:59,2
DA:60,1
DA:62,1
DA:63,1
DA:64,1
DA:65,4
DA:72,1
DA:73,1
DA:74,1
DA:75,1
DA:76,1
DA:77,1
DA:78,1
DA:79,0
DA:80,1
DA:81,1
DA:82,1
DA:83,1
DA:84,1
DA:85,1
DA:86,1
DA:87,1
DA:88,1
DA:89,1
DA:90,1
DA:91,1
DA:92,1
DA:93,1
DA:94,1
DA:95,1
DA:96,1
DA:98,1
DA:99,0
DA:101,0
DA:102,0
DA:103,0
DA:104,1
DA:132,2
DA:133,2
DA:134,2
DA:135,2
DA:136,2
DA:137,2
DA:138,1
DA:139,1
DA:140,1
DA:142,1
DA:143,1
DA:144,0
DA:145,0
DA:146,0
DA:147,1
DA:150,1
DA:151,1
DA:152,1
DA:153,1
DA:154,1
DA:155,1
DA:156,1
DA:157,1
DA:158,1
DA:159,1
DA:160,1
DA:163,1
DA:164,1
DA:165,1
DA:166,1
DA:167,1
DA:168,1
DA:169,1
DA:170,1
DA:171,1
DA:172,1
DA:173,1
DA:175,1
DA:176,1
DA:177,1
DA:178,1
DA:179,1
DA:180,1
DA:181,1
DA:182,1
DA:183,1
DA:184,1
DA:185,1
DA:186,1
DA:187,1
DA:188,2
DA:190,12
DA:191,12
DA:192,12
DA:193,12
DA:194,12
DA:195,12
DA:196,12
DA:197,12
DA:198,12
DA:200,20
DA:201,20
DA:202,4
DA:203,16
DA:205,16
DA:206,2
DA:207,2
DA:208,2
DA:209,2
DA:210,14
DA:212,14
DA:213,20
DA:215,0
DA:216,0
DA:217,0
DA:218,0
DA:219,0
DA:220,0
DA:221,0
DA:222,0
DA:225,0
DA:226,0
DA:227,0
DA:228,0
DA:229,0
DA:231,0
DA:232,0
DA:233,0
DA:234,0
DA:236,0
DA:237,0
DA:239,0
DA:242,0
DA:243,0
DA:244,0
DA:245,0
DA:246,0
DA:248,0
DA:249,0
DA:250,0
DA:251,0
DA:253,0
DA:254,0
DA:256,0
DA:258,0
DA:259,0
DA:261,8
DA:262,8
DA:263,2
DA:264,6
DA:265,6
DA:266,0
DA:267,6
DA:268,6
DA:269,0
DA:270,6
DA:271,6
DA:272,4
DA:273,2
DA:275,2
DA:277,4
DA:278,2
DA:279,2
DA:280,8
DA:288,2
DA:289,2
DA:290,2
DA:291,2
DA:294,2
DA:295,2
DA:296,2
DA:297,2
DA:298,2
DA:299,2
DA:302,2
DA:303,2
DA:304,2
DA:305,2
DA:306,2
DA:307,2
DA:310,2
DA:311,2
DA:312,2
DA:313,2
DA:314,2
DA:315,2
DA:318,2
DA:319,2
DA:320,2
DA:321,2
DA:324,2
DA:325,2
DA:326,2
DA:327,2
DA:328,2
DA:329,2
DA:330,2
DA:331,2
DA:332,2
DA:333,2
DA:334,2
DA:335,2
DA:336,2
DA:337,2
DA:338,2
DA:341,2
DA:342,2
DA:343,2
DA:344,2
DA:345,2
DA:346,2
DA:347,2
DA:348,2
DA:349,2
DA:350,2
DA:351,2
DA:352,2
DA:353,2
DA:354,2
DA:355,2
DA:358,2
DA:359,2
DA:360,2
DA:361,2
DA:362,2
DA:363,2
DA:364,2
DA:365,2
DA:366,2
DA:367,2
DA:368,2
DA:369,2
DA:370,2
DA:373,2
DA:374,2
DA:375,2
DA:376,2
DA:377,2
DA:378,2
DA:379,2
DA:380,2
DA:381,2
DA:382,2
DA:383,2
DA:384,2
DA:385,2
DA:388,2
DA:389,2
DA:390,2
DA:391,2
DA:392,2
DA:393,2
DA:394,2
DA:395,2
DA:396,2
DA:397,2
DA:398,2
DA:399,2
DA:400,2
DA:403,2
DA:404,2
DA:405,2
DA:406,2
DA:407,2
DA:410,2
DA:411,2
DA:412,2
DA:413,2
DA:414,2
DA:415,2
DA:416,2
DA:417,2
DA:418,2
DA:421,2
DA:422,2
DA:423,2
DA:424,2
DA:425,2
DA:426,2
DA:427,2
DA:428,2
DA:429,2
DA:432,2
DA:433,2
DA:434,2
DA:435,2
DA:436,2
DA:439,2
DA:440,2
DA:441,2
DA:442,2
DA:443,2
DA:444,2
DA:447,2
DA:448,2
DA:449,2
DA:450,2
DA:451,2
DA:452,2
DA:455,2
DA:456,2
DA:457,2
DA:458,2
DA:459,2
DA:460,2
DA:461,2
DA:462,2
DA:463,2
DA:464,2
DA:465,2
DA:466,2
DA:467,2
DA:468,2
DA:469,2
DA:472,2
DA:473,2
DA:474,2
DA:475,2
DA:476,2
DA:479,2
DA:480,2
DA:481,2
DA:482,2
DA:483,2
DA:484,2
DA:485,2
DA:486,2
DA:487,2
DA:488,2
BRF:0
BRH:0
LF:359
LH:311
end_of_record
SF:/home/marra/projects/timekeeper/backend/src/handlers/admin/sessions.rs
FN:37,_RNvMNtNtNtCs2oPl7zguF9n_18timekeeper_backend8handlers5admin8sessionsNtB2_20AdminSessionResponse12from_session
FN:183,_RNvNtNtNtCs2oPl7zguF9n_18timekeeper_backend8handlers5admin8sessions10extract_ip
FN:78,_RNvNtNtNtCs2oPl7zguF9n_18timekeeper_backend8handlers5admin8sessions14revoke_session
FN:198,_RNvNtNtNtCs2oPl7zguF9n_18timekeeper_backend8handlers5admin8sessions18extract_user_agent
FN:55,_RNvNtNtNtCs2oPl7zguF9n_18timekeeper_backend8handlers5admin8sessions18list_user_sessions
FN:120,_RNvNtNtNtCs2oPl7zguF9n_18timekeeper_backend8handlers5admin8sessions21revoke_session_tokens
FN:145,_RNvNtNtNtCs2oPl7zguF9n_18timekeeper_backend8handlers5admin8sessions26record_session_audit_event
FN:96,_RNCNCNvNtNtNtCs2oPl7zguF9n_18timekeeper_backend8handlers5admin8sessions14revoke_session00Bb_
FN:97,_RNCNCNvNtNtNtCs2oPl7zguF9n_18timekeeper_backend8handlers5admin8sessions14revoke_session0s_0Bb_
FN:66,_RNCNCNvNtNtNtCs2oPl7zguF9n_18timekeeper_backend8handlers5admin8sessions18list_user_sessions00Bb_
FN:73,_RNCNCNvNtNtNtCs2oPl7zguF9n_18timekeeper_backend8handlers5admin8sessions18list_user_sessions0s0_0Bb_
FN:70,_RNCNCNvNtNtNtCs2oPl7zguF9n_18timekeeper_backend8handlers5admin8sessions18list_user_sessions0s_0Bb_
FN:128,_RNCNCNvNtNtNtCs2oPl7zguF9n_18timekeeper_backend8handlers5admin8sessions21revoke_session_tokens00Bb_
FN:140,_RNCNCNvNtNtNtCs2oPl7zguF9n_18timekeeper_backend8handlers5admin8sessions21revoke_session_tokens0s0_0Bb_
FN:136,_RNCNCNvNtNtNtCs2oPl7zguF9n_18timekeeper_backend8handlers5admin8sessions21revoke_session_tokens0s_0Bb_
FN:41,_RNCNvMNtNtNtCs2oPl7zguF9n_18timekeeper_backend8handlers5admin8sessionsNtB4_20AdminSessionResponse12from_session0Ba_
FN:184,_RNCNvNtNtNtCs2oPl7zguF9n_18timekeeper_backend8handlers5admin8sessions10extract_ip0B9_
FN:189,_RNCNvNtNtNtCs2oPl7zguF9n_18timekeeper_backend8handlers5admin8sessions10extract_ips0_0B9_
FN:193,_RNCNvNtNtNtCs2oPl7zguF9n_18timekeeper_backend8handlers5admin8sessions10extract_ips1_0B9_
FN:194,_RNCNvNtNtNtCs2oPl7zguF9n_18timekeeper_backend8handlers5admin8sessions10extract_ips2_0B9_
FN:195,_RNCNvNtNtNtCs2oPl7zguF9n_18timekeeper_backend8handlers5admin8sessions10extract_ips3_0B9_
FN:188,_RNCNvNtNtNtCs2oPl7zguF9n_18timekeeper_backend8handlers5admin8sessions10extract_ips_0B9_
FN:85,_RNCNvNtNtNtCs2oPl7zguF9n_18timekeeper_backend8handlers5admin8sessions14revoke_session0B9_
FN:201,_RNCNvNtNtNtCs2oPl7zguF9n_18timekeeper_backend8handlers5admin8sessions18extract_user_agent0B9_
FN:203,_RNCNvNtNtNtCs2oPl7zguF9n_18timekeeper_backend8handlers5admin8sessions18extract_user_agents0_0B9_
FN:202,_RNCNvNtNtNtCs2oPl7zguF9n_18timekeeper_backend8handlers5admin8sessions18extract_user_agents_0B9_
FN:60,_RNCNvNtNtNtCs2oPl7zguF9n_18timekeeper_backend8handlers5admin8sessions18list_user_sessions0B9_
FN:124,_RNCNvNtNtNtCs2oPl7zguF9n_18timekeeper_backend8handlers5admin8sessions21revoke_session_tokens0B9_
FN:172,_RNCNvNtNtNtCs2oPl7zguF9n_18timekeeper_backend8handlers5admin8sessions26record_session_audit_event0B9_
FN:78,_RNvNtNtNtCsjEFxG0ag9NF_18timekeeper_backend8handlers5admin8sessions14revoke_session
FN:55,_RNvNtNtNtCsjEFxG0ag9NF_18timekeeper_backend8handlers5admin8sessions18list_user_sessions
FN:37,_RNvMNtNtNtCsjEFxG0ag9NF_18timekeeper_backend8handlers5admin8sessionsNtB2_20AdminSessionResponse12from_session
FN:183,_RNvNtNtNtCsjEFxG0ag9NF_18timekeeper_backend8handlers5admin8sessions10extract_ip
FN:198,_RNvNtNtNtCsjEFxG0ag9NF_18timekeeper_backend8handlers5admin8sessions18extract_user_agent
FN:120,_RNvNtNtNtCsjEFxG0ag9NF_18timekeeper_backend8handlers5admin8sessions21revoke_session_tokens
FN:145,_RNvNtNtNtCsjEFxG0ag9NF_18timekeeper_backend8handlers5admin8sessions26record_session_audit_event
FN:96,_RNCNCNvNtNtNtCsjEFxG0ag9NF_18timekeeper_backend8handlers5admin8sessions14revoke_session00Bb_
FN:97,_RNCNCNvNtNtNtCsjEFxG0ag9NF_18timekeeper_backend8handlers5admin8sessions14revoke_session0s_0Bb_
FN:66,_RNCNCNvNtNtNtCsjEFxG0ag9NF_18timekeeper_backend8handlers5admin8sessions18list_user_sessions00Bb_
FN:73,_RNCNCNvNtNtNtCsjEFxG0ag9NF_18timekeeper_backend8handlers5admin8sessions18list_user_sessions0s0_0Bb_
FN:70,_RNCNCNvNtNtNtCsjEFxG0ag9NF_18timekeeper_backend8handlers5admin8sessions18list_user_sessions0s_0Bb_
FN:128,_RNCNCNvNtNtNtCsjEFxG0ag9NF_18timekeeper_backend8handlers5admin8sessions21revoke_session_tokens00Bb_
FN:140,_RNCNCNvNtNtNtCsjEFxG0ag9NF_18timekeeper_backend8handlers5admin8sessions21revoke_session_tokens0s0_0Bb_
FN:136,_RNCNCNvNtNtNtCsjEFxG0ag9NF_18timekeeper_backend8handlers5admin8sessions21revoke_session_tokens0s_0Bb_
FN:41,_RNCNvMNtNtNtCsjEFxG0ag9NF_18timekeeper_backend8handlers5admin8sessionsNtB4_20AdminSessionResponse12from_session0Ba_
FN:184,_RNCNvNtNtNtCsjEFxG0ag9NF_18timekeeper_backend8handlers5admin8sessions10extract_ip0B9_
FN:189,_RNCNvNtNtNtCsjEFxG0ag9NF_18timekeeper_backend8handlers5admin8sessions10extract_ips0_0B9_
FN:193,_RNCNvNtNtNtCsjEFxG0ag9NF_18timekeeper_backend8handlers5admin8sessions10extract_ips1_0B9_
FN:194,_RNCNvNtNtNtCsjEFxG0ag9NF_18timekeeper_backend8handlers5admin8sessions10extract_ips2_0B9_
FN:195,_RNCNvNtNtNtCsjEFxG0ag9NF_18timekeeper_backend8handlers5admin8sessions10extract_ips3_0B9_
FN:188,_RNCNvNtNtNtCsjEFxG0ag9NF_18timekeeper_backend8handlers5admin8sessions10extract_ips_0B9_
FN:85,_RNCNvNtNtNtCsjEFxG0ag9NF_18timekeeper_backend8handlers5admin8sessions14revoke_session0B9_
FN:201,_RNCNvNtNtNtCsjEFxG0ag9NF_18timekeeper_backend8handlers5admin8sessions18extract_user_agent0B9_
FN:203,_RNCNvNtNtNtCsjEFxG0ag9NF_18timekeeper_backend8handlers5admin8sessions18extract_user_agents0_0B9_
FN:202,_RNCNvNtNtNtCsjEFxG0ag9NF_18timekeeper_backend8handlers5admin8sessions18extract_user_agents_0B9_
FN:60,_RNCNvNtNtNtCsjEFxG0ag9NF_18timekeeper_backend8handlers5admin8sessions18list_user_sessions0B9_
FN:124,_RNCNvNtNtNtCsjEFxG0ag9NF_18timekeeper_backend8handlers5admin8sessions21revoke_session_tokens0B9_
FN:172,_RNCNvNtNtNtCsjEFxG0ag9NF_18timekeeper_backend8handlers5admin8sessions26record_session_audit_event0B9_
FN:96,_RNCNCNvNtNtNtCsiqn6J3Zmf7c_18timekeeper_backend8handlers5admin8sessions14revoke_session00Bb_
FN:97,_RNCNCNvNtNtNtCsiqn6J3Zmf7c_18timekeeper_backend8handlers5admin8sessions14revoke_session0s_0Bb_
FN:66,_RNCNCNvNtNtNtCsiqn6J3Zmf7c_18timekeeper_backend8handlers5admin8sessions18list_user_sessions00Bb_
FN:73,_RNCNCNvNtNtNtCsiqn6J3Zmf7c_18timekeeper_backend8handlers5admin8sessions18list_user_sessions0s0_0Bb_
FN:70,_RNCNCNvNtNtNtCsiqn6J3Zmf7c_18timekeeper_backend8handlers5admin8sessions18list_user_sessions0s_0Bb_
FN:128,_RNCNCNvNtNtNtCsiqn6J3Zmf7c_18timekeeper_backend8handlers5admin8sessions21revoke_session_tokens00Bb_
FN:140,_RNCNCNvNtNtNtCsiqn6J3Zmf7c_18timekeeper_backend8handlers5admin8sessions21revoke_session_tokens0s0_0Bb_
FN:136,_RNCNCNvNtNtNtCsiqn6J3Zmf7c_18timekeeper_backend8handlers5admin8sessions21revoke_session_tokens0s_0Bb_
FN:41,_RNCNvMNtNtNtCsiqn6J3Zmf7c_18timekeeper_backend8handlers5admin8sessionsNtB4_20AdminSessionResponse12from_session0Ba_
FN:184,_RNCNvNtNtNtCsiqn6J3Zmf7c_18timekeeper_backend8handlers5admin8sessions10extract_ip0B9_
FN:189,_RNCNvNtNtNtCsiqn6J3Zmf7c_18timekeeper_backend8handlers5admin8sessions10extract_ips0_0B9_
FN:193,_RNCNvNtNtNtCsiqn6J3Zmf7c_18timekeeper_backend8handlers5admin8sessions10extract_ips1_0B9_
FN:194,_RNCNvNtNtNtCsiqn6J3Zmf7c_18timekeeper_backend8handlers5admin8sessions10extract_ips2_0B9_
FN:195,_RNCNvNtNtNtCsiqn6J3Zmf7c_18timekeeper_backend8handlers5admin8sessions10extract_ips3_0B9_
FN:188,_RNCNvNtNtNtCsiqn6J3Zmf7c_18timekeeper_backend8handlers5admin8sessions10extract_ips_0B9_
FN:85,_RNCNvNtNtNtCsiqn6J3Zmf7c_18timekeeper_backend8handlers5admin8sessions14revoke_session0B9_
FN:201,_RNCNvNtNtNtCsiqn6J3Zmf7c_18timekeeper_backend8handlers5admin8sessions18extract_user_agent0B9_
FN:203,_RNCNvNtNtNtCsiqn6J3Zmf7c_18timekeeper_backend8handlers5admin8sessions18extract_user_agents0_0B9_
FN:202,_RNCNvNtNtNtCsiqn6J3Zmf7c_18timekeeper_backend8handlers5admin8sessions18extract_user_agents_0B9_
FN:60,_RNCNvNtNtNtCsiqn6J3Zmf7c_18timekeeper_backend8handlers5admin8sessions18list_user_sessions0B9_
FN:124,_RNCNvNtNtNtCsiqn6J3Zmf7c_18timekeeper_backend8handlers5admin8sessions21revoke_session_tokens0B9_
FN:172,_RNCNvNtNtNtCsiqn6J3Zmf7c_18timekeeper_backend8handlers5admin8sessions26record_session_audit_event0B9_
FN:37,_RNvMNtNtNtCsiqn6J3Zmf7c_18timekeeper_backend8handlers5admin8sessionsNtB2_20AdminSessionResponse12from_session
FN:183,_RNvNtNtNtCsiqn6J3Zmf7c_18timekeeper_backend8handlers5admin8sessions10extract_ip
FN:78,_RNvNtNtNtCsiqn6J3Zmf7c_18timekeeper_backend8handlers5admin8sessions14revoke_session
FN:198,_RNvNtNtNtCsiqn6J3Zmf7c_18timekeeper_backend8handlers5admin8sessions18extract_user_agent
FN:55,_RNvNtNtNtCsiqn6J3Zmf7c_18timekeeper_backend8handlers5admin8sessions18list_user_sessions
FN:120,_RNvNtNtNtCsiqn6J3Zmf7c_18timekeeper_backend8handlers5admin8sessions21revoke_session_tokens
FN:145,_RNvNtNtNtCsiqn6J3Zmf7c_18timekeeper_backend8handlers5admin8sessions26record_session_audit_event
FN:78,_RNvNtNtNtCs86yVScfUyun_18timekeeper_backend8handlers5admin8sessions14revoke_session
FN:55,_RNvNtNtNtCs86yVScfUyun_18timekeeper_backend8handlers5admin8sessions18list_user_sessions
FN:37,_RNvMNtNtNtCs86yVScfUyun_18timekeeper_backend8handlers5admin8sessionsNtB2_20AdminSessionResponse12from_session
FN:183,_RNvNtNtNtCs86yVScfUyun_18timekeeper_backend8handlers5admin8sessions10extract_ip
FN:198,_RNvNtNtNtCs86yVScfUyun_18timekeeper_backend8handlers5admin8sessions18extract_user_agent
FN:120,_RNvNtNtNtCs86yVScfUyun_18timekeeper_backend8handlers5admin8sessions21revoke_session_tokens
FN:145,_RNvNtNtNtCs86yVScfUyun_18timekeeper_backend8handlers5admin8sessions26record_session_audit_event
FN:96,_RNCNCNvNtNtNtCs86yVScfUyun_18timekeeper_backend8handlers5admin8sessions14revoke_session00Bb_
FN:97,_RNCNCNvNtNtNtCs86yVScfUyun_18timekeeper_backend8handlers5admin8sessions14revoke_session0s_0Bb_
FN:66,_RNCNCNvNtNtNtCs86yVScfUyun_18timekeeper_backend8handlers5admin8sessions18list_user_sessions00Bb_
FN:73,_RNCNCNvNtNtNtCs86yVScfUyun_18timekeeper_backend8handlers5admin8sessions18list_user_sessions0s0_0Bb_
FN:70,_RNCNCNvNtNtNtCs86yVScfUyun_18timekeeper_backend8handlers5admin8sessions18list_user_sessions0s_0Bb_
FN:128,_RNCNCNvNtNtNtCs86yVScfUyun_18timekeeper_backend8handlers5admin8sessions21revoke_session_tokens00Bb_
FN:140,_RNCNCNvNtNtNtCs86yVScfUyun_18timekeeper_backend8handlers5admin8sessions21revoke_session_tokens0s0_0Bb_
FN:136,_RNCNCNvNtNtNtCs86yVScfUyun_18timekeeper_backend8handlers5admin8sessions21revoke_session_tokens0s_0Bb_
FN:41,_RNCNvMNtNtNtCs86yVScfUyun_18timekeeper_backend8handlers5admin8sessionsNtB4_20AdminSessionResponse12from_session0Ba_
FN:184,_RNCNvNtNtNtCs86yVScfUyun_18timekeeper_backend8handlers5admin8sessions10extract_ip0B9_
FN:189,_RNCNvNtNtNtCs86yVScfUyun_18timekeeper_backend8handlers5admin8sessions10extract_ips0_0B9_
FN:193,_RNCNvNtNtNtCs86yVScfUyun_18timekeeper_backend8handlers5admin8sessions10extract_ips1_0B9_
FN:194,_RNCNvNtNtNtCs86yVScfUyun_18timekeeper_backend8handlers5admin8sessions10extract_ips2_0B9_
FN:195,_RNCNvNtNtNtCs86yVScfUyun_18timekeeper_backend8handlers5admin8sessions10extract_ips3_0B9_
FN:188,_RNCNvNtNtNtCs86yVScfUyun_18timekeeper_backend8handlers5admin8sessions10extract_ips_0B9_
FN:85,_RNCNvNtNtNtCs86yVScfUyun_18timekeeper_backend8handlers5admin8sessions14revoke_session0B9_
FN:201,_RNCNvNtNtNtCs86yVScfUyun_18timekeeper_backend8handlers5admin8sessions18extract_user_agent0B9_
FN:203,_RNCNvNtNtNtCs86yVScfUyun_18timekeeper_backend8handlers5admin8sessions18extract_user_agents0_0B9_
FN:202,_RNCNvNtNtNtCs86yVScfUyun_18timekeeper_backend8handlers5admin8sessions18extract_user_agents_0B9_
FN:60,_RNCNvNtNtNtCs86yVScfUyun_18timekeeper_backend8handlers5admin8sessions18list_user_sessions0B9_
FN:124,_RNCNvNtNtNtCs86yVScfUyun_18timekeeper_backend8handlers5admin8sessions21revoke_session_tokens0B9_
FN:172,_RNCNvNtNtNtCs86yVScfUyun_18timekeeper_backend8handlers5admin8sessions26record_session_audit_event0B9_
FNDA:1,_RNvMNtNtNtCs2oPl7zguF9n_18timekeeper_backend8handlers5admin8sessionsNtB2_20AdminSessionResponse12from_session
FNDA:1,_RNvNtNtNtCs2oPl7zguF9n_18timekeeper_backend8handlers5admin8sessions10extract_ip
FNDA:1,_RNvNtNtNtCs2oPl7zguF9n_18timekeeper_backend8handlers5admin8sessions14revoke_session
FNDA:1,_RNvNtNtNtCs2oPl7zguF9n_18timekeeper_backend8handlers5admin8sessions18extract_user_agent
FNDA:2,_RNvNtNtNtCs2oPl7zguF9n_18timekeeper_backend8handlers5admin8sessions18list_user_sessions
FNDA:1,_RNvNtNtNtCs2oPl7zguF9n_18timekeeper_backend8handlers5admin8sessions21revoke_session_tokens
FNDA:1,_RNvNtNtNtCs2oPl7zguF9n_18timekeeper_backend8handlers5admin8sessions26record_session_audit_event
FNDA:0,_RNCNCNvNtNtNtCs2oPl7zguF9n_18timekeeper_backend8handlers5admin8sessions14revoke_session00Bb_
FNDA:0,_RNCNCNvNtNtNtCs2oPl7zguF9n_18timekeeper_backend8handlers5admin8sessions14revoke_session0s_0Bb_
FNDA:0,_RNCNCNvNtNtNtCs2oPl7zguF9n_18timekeeper_backend8handlers5admin8sessions18list_user_sessions00Bb_
FNDA:1,_RNCNCNvNtNtNtCs2oPl7zguF9n_18timekeeper_backend8handlers5admin8sessions18list_user_sessions0s0_0Bb_
FNDA:0,_RNCNCNvNtNtNtCs2oPl7zguF9n_18timekeeper_backend8handlers5admin8sessions18list_user_sessions0s_0Bb_
FNDA:0,_RNCNCNvNtNtNtCs2oPl7zguF9n_18timekeeper_backend8handlers5admin8sessions21revoke_session_tokens00Bb_
FNDA:0,_RNCNCNvNtNtNtCs2oPl7zguF9n_18timekeeper_backend8handlers5admin8sessions21revoke_session_tokens0s0_0Bb_
FNDA:0,_RNCNCNvNtNtNtCs2oPl7zguF9n_18timekeeper_backend8handlers5admin8sessions21revoke_session_tokens0s_0Bb_
FNDA:1,_RNCNvMNtNtNtCs2oPl7zguF9n_18timekeeper_backend8handlers5admin8sessionsNtB4_20AdminSessionResponse12from_session0Ba_
FNDA:0,_RNCNvNtNtNtCs2oPl7zguF9n_18timekeeper_backend8handlers5admin8sessions10extract_ip0B9_
FNDA:0,_RNCNvNtNtNtCs2oPl7zguF9n_18timekeeper_backend8handlers5admin8sessions10extract_ips0_0B9_
FNDA:0,_RNCNvNtNtNtCs2oPl7zguF9n_18timekeeper_backend8handlers5admin8sessions10extract_ips1_0B9_
FNDA:0,_RNCNvNtNtNtCs2oPl7zguF9n_18timekeeper_backend8handlers5admin8sessions10extract_ips2_0B9_
FNDA:0,_RNCNvNtNtNtCs2oPl7zguF9n_18timekeeper_backend8handlers5admin8sessions10extract_ips3_0B9_
FNDA:0,_RNCNvNtNtNtCs2oPl7zguF9n_18timekeeper_backend8handlers5admin8sessions10extract_ips_0B9_
FNDA:1,_RNCNvNtNtNtCs2oPl7zguF9n_18timekeeper_backend8handlers5admin8sessions14revoke_session0B9_
FNDA:0,_RNCNvNtNtNtCs2oPl7zguF9n_18timekeeper_backend8handlers5admin8sessions18extract_user_agent0B9_
FNDA:0,_RNCNvNtNtNtCs2oPl7zguF9n_18timekeeper_backend8handlers5admin8sessions18extract_user_agents0_0B9_
FNDA:0,_RNCNvNtNtNtCs2oPl7zguF9n_18timekeeper_backend8handlers5admin8sessions18extract_user_agents_0B9_
FNDA:2,_RNCNvNtNtNtCs2oPl7zguF9n_18timekeeper_backend8handlers5admin8sessions18list_user_sessions0B9_
FNDA:1,_RNCNvNtNtNtCs2oPl7zguF9n_18timekeeper_backend8handlers5admin8sessions21revoke_session_tokens0B9_
FNDA:0,_RNCNvNtNtNtCs2oPl7zguF9n_18timekeeper_backend8handlers5admin8sessions26record_session_audit_event0B9_
FNDA:0,_RNvNtNtNtCsjEFxG0ag9NF_18timekeeper_backend8handlers5admin8sessions14revoke_session
FNDA:0,_RNvNtNtNtCsjEFxG0ag9NF_18timekeeper_backend8handlers5admin8sessions18list_user_sessions
FNDA:0,_RNvMNtNtNtCsjEFxG0ag9NF_18timekeeper_backend8handlers5admin8sessionsNtB2_20AdminSessionResponse12from_session
FNDA:0,_RNvNtNtNtCsjEFxG0ag9NF_18timekeeper_backend8handlers5admin8sessions10extract_ip
FNDA:0,_RNvNtNtNtCsjEFxG0ag9NF_18timekeeper_backend8handlers5admin8sessions18extract_user_agent
FNDA:0,_RNvNtNtNtCsjEFxG0ag9NF_18timekeeper_backend8handlers5admin8sessions21revoke_session_tokens
FNDA:0,_RNvNtNtNtCsjEFxG0ag9NF_18timekeeper_backend8handlers5admin8sessions26record_session_audit_event
FNDA:0,_RNCNCNvNtNtNtCsjEFxG0ag9NF_18timekeeper_backend8handlers5admin8sessions14revoke_session00Bb_
FNDA:0,_RNCNCNvNtNtNtCsjEFxG0ag9NF_18timekeeper_backend8handlers5admin8sessions14revoke_session0s_0Bb_
FNDA:0,_RNCNCNvNtNtNtCsjEFxG0ag9NF_18timekeeper_backend8handlers5admin8sessions18list_user_sessions00Bb_
FNDA:0,_RNCNCNvNtNtNtCsjEFxG0ag9NF_18timekeeper_backend8handlers5admin8sessions18list_user_sessions0s0_0Bb_
FNDA:0,_RNCNCNvNtNtNtCsjEFxG0ag9NF_18timekeeper_backend8handlers5admin8sessions18list_user_sessions0s_0Bb_
FNDA:0,_RNCNCNvNtNtNtCsjEFxG0ag9NF_18timekeeper_backend8handlers5admin8sessions21revoke_session_tokens00Bb_
FNDA:0,_RNCNCNvNtNtNtCsjEFxG0ag9NF_18timekeeper_backend8handlers5admin8sessions21revoke_session_tokens0s0_0Bb_
FNDA:0,_RNCNCNvNtNtNtCsjEFxG0ag9NF_18timekeeper_backend8handlers5admin8sessions21revoke_session_tokens0s_0Bb_
FNDA:0,_RNCNvMNtNtNtCsjEFxG0ag9NF_18timekeeper_backend8handlers5admin8sessionsNtB4_20AdminSessionResponse12from_session0Ba_
FNDA:0,_RNCNvNtNtNtCsjEFxG0ag9NF_18timekeeper_backend8handlers5admin8sessions10extract_ip0B9_
FNDA:0,_RNCNvNtNtNtCsjEFxG0ag9NF_18timekeeper_backend8handlers5admin8sessions10extract_ips0_0B9_
FNDA:0,_RNCNvNtNtNtCsjEFxG0ag9NF_18timekeeper_backend8handlers5admin8sessions10extract_ips1_0B9_
FNDA:0,_RNCNvNtNtNtCsjEFxG0ag9NF_18timekeeper_backend8handlers5admin8sessions10extract_ips2_0B9_
FNDA:0,_RNCNvNtNtNtCsjEFxG0ag9NF_18timekeeper_backend8handlers5admin8sessions10extract_ips3_0B9_
FNDA:0,_RNCNvNtNtNtCsjEFxG0ag9NF_18timekeeper_backend8handlers5admin8sessions10extract_ips_0B9_
FNDA:0,_RNCNvNtNtNtCsjEFxG0ag9NF_18timekeeper_backend8handlers5admin8sessions14revoke_session0B9_
FNDA:0,_RNCNvNtNtNtCsjEFxG0ag9NF_18timekeeper_backend8handlers5admin8sessions18extract_user_agent0B9_
FNDA:0,_RNCNvNtNtNtCsjEFxG0ag9NF_18timekeeper_backend8handlers5admin8sessions18extract_user_agents0_0B9_
FNDA:0,_RNCNvNtNtNtCsjEFxG0ag9NF_18timekeeper_backend8handlers5admin8sessions18extract_user_agents_0B9_
FNDA:0,_RNCNvNtNtNtCsjEFxG0ag9NF_18timekeeper_backend8handlers5admin8sessions18list_user_sessions0B9_
FNDA:0,_RNCNvNtNtNtCsjEFxG0ag9NF_18timekeeper_backend8handlers5admin8sessions21revoke_session_tokens0B9_
FNDA:0,_RNCNvNtNtNtCsjEFxG0ag9NF_18timekeeper_backend8handlers5admin8sessions26record_session_audit_event0B9_
FNDA:0,_RNCNCNvNtNtNtCsiqn6J3Zmf7c_18timekeeper_backend8handlers5admin8sessions14revoke_session00Bb_
FNDA:0,_RNCNCNvNtNtNtCsiqn6J3Zmf7c_18timekeeper_backend8handlers5admin8sessions14revoke_session0s_0Bb_
FNDA:0,_RNCNCNvNtNtNtCsiqn6J3Zmf7c_18timekeeper_backend8handlers5admin8sessions18list_user_sessions00Bb_
FNDA:0,_RNCNCNvNtNtNtCsiqn6J3Zmf7c_18timekeeper_backend8handlers5admin8sessions18list_user_sessions0s0_0Bb_
FNDA:0,_RNCNCNvNtNtNtCsiqn6J3Zmf7c_18timekeeper_backend8handlers5admin8sessions18list_user_sessions0s_0Bb_
FNDA:0,_RNCNCNvNtNtNtCsiqn6J3Zmf7c_18timekeeper_backend8handlers5admin8sessions21revoke_session_tokens00Bb_
FNDA:0,_RNCNCNvNtNtNtCsiqn6J3Zmf7c_18timekeeper_backend8handlers5admin8sessions21revoke_session_tokens0s0_0Bb_
FNDA:0,_RNCNCNvNtNtNtCsiqn6J3Zmf7c_18timekeeper_backend8handlers5admin8sessions21revoke_session_tokens0s_0Bb_
FNDA:0,_RNCNvMNtNtNtCsiqn6J3Zmf7c_18timekeeper_backend8handlers5admin8sessionsNtB4_20AdminSessionResponse12from_session0Ba_
FNDA:0,_RNCNvNtNtNtCsiqn6J3Zmf7c_18timekeeper_backend8handlers5admin8sessions10extract_ip0B9_
FNDA:0,_RNCNvNtNtNtCsiqn6J3Zmf7c_18timekeeper_backend8handlers5admin8sessions10extract_ips0_0B9_
FNDA:0,_RNCNvNtNtNtCsiqn6J3Zmf7c_18timekeeper_backend8handlers5admin8sessions10extract_ips1_0B9_
FNDA:0,_RNCNvNtNtNtCsiqn6J3Zmf7c_18timekeeper_backend8handlers5admin8sessions10extract_ips2_0B9_
FNDA:0,_RNCNvNtNtNtCsiqn6J3Zmf7c_18timekeeper_backend8handlers5admin8sessions10extract_ips3_0B9_
FNDA:0,_RNCNvNtNtNtCsiqn6J3Zmf7c_18timekeeper_backend8handlers5admin8sessions10extract_ips_0B9_
FNDA:0,_RNCNvNtNtNtCsiqn6J3Zmf7c_18timekeeper_backend8handlers5admin8sessions14revoke_session0B9_
FNDA:0,_RNCNvNtNtNtCsiqn6J3Zmf7c_18timekeeper_backend8handlers5admin8sessions18extract_user_agent0B9_
FNDA:0,_RNCNvNtNtNtCsiqn6J3Zmf7c_18timekeeper_backend8handlers5admin8sessions18extract_user_agents0_0B9_
FNDA:0,_RNCNvNtNtNtCsiqn6J3Zmf7c_18timekeeper_backend8handlers5admin8sessions18extract_user_agents_0B9_
FNDA:0,_RNCNvNtNtNtCsiqn6J3Zmf7c_18timekeeper_backend8handlers5admin8sessions18list_user_sessions0B9_
FNDA:0,_RNCNvNtNtNtCsiqn6J3Zmf7c_18timekeeper_backend8handlers5admin8sessions21revoke_session_tokens0B9_
FNDA:0,_RNCNvNtNtNtCsiqn6J3Zmf7c_18timekeeper_backend8handlers5admin8sessions26record_session_audit_event0B9_
FNDA:0,_RNvMNtNtNtCsiqn6J3Zmf7c_18timekeeper_backend8handlers5admin8sessionsNtB2_20AdminSessionResponse12from_session
FNDA:0,_RNvNtNtNtCsiqn6J3Zmf7c_18timekeeper_backend8handlers5admin8sessions10extract_ip
FNDA:0,_RNvNtNtNtCsiqn6J3Zmf7c_18timekeeper_backend8handlers5admin8sessions14revoke_session
FNDA:0,_RNvNtNtNtCsiqn6J3Zmf7c_18timekeeper_backend8handlers5admin8sessions18extract_user_agent
FNDA:0,_RNvNtNtNtCsiqn6J3Zmf7c_18timekeeper_backend8handlers5admin8sessions18list_user_sessions
FNDA:0,_RNvNtNtNtCsiqn6J3Zmf7c_18timekeeper_backend8handlers5admin8sessions21revoke_session_tokens
FNDA:0,_RNvNtNtNtCsiqn6J3Zmf7c_18timekeeper_backend8handlers5admin8sessions26record_session_audit_event
FNDA:0,_RNvNtNtNtCs86yVScfUyun_18timekeeper_backend8handlers5admin8sessions14revoke_session
FNDA:0,_RNvNtNtNtCs86yVScfUyun_18timekeeper_backend8handlers5admin8sessions18list_user_sessions
FNDA:0,_RNvMNtNtNtCs86yVScfUyun_18timekeeper_backend8handlers5admin8sessionsNtB2_20AdminSessionResponse12from_session
FNDA:0,_RNvNtNtNtCs86yVScfUyun_18timekeeper_backend8handlers5admin8sessions10extract_ip
FNDA:0,_RNvNtNtNtCs86yVScfUyun_18timekeeper_backend8handlers5admin8sessions18extract_user_agent
FNDA:0,_RNvNtNtNtCs86yVScfUyun_18timekeeper_backend8handlers5admin8sessions21revoke_session_tokens
FNDA:0,_RNvNtNtNtCs86yVScfUyun_18timekeeper_backend8handlers5admin8sessions26record_session_audit_event
FNDA:0,_RNCNCNvNtNtNtCs86yVScfUyun_18timekeeper_backend8handlers5admin8sessions14revoke_session00Bb_
FNDA:0,_RNCNCNvNtNtNtCs86yVScfUyun_18timekeeper_backend8handlers5admin8sessions14revoke_session0s_0Bb_
FNDA:0,_RNCNCNvNtNtNtCs86yVScfUyun_18timekeeper_backend8handlers5admin8sessions18list_user_sessions00Bb_
FNDA:0,_RNCNCNvNtNtNtCs86yVScfUyun_18timekeeper_backend8handlers5admin8sessions18list_user_sessions0s0_0Bb_
FNDA:0,_RNCNCNvNtNtNtCs86yVScfUyun_18timekeeper_backend8handlers5admin8sessions18list_user_sessions0s_0Bb_
FNDA:0,_RNCNCNvNtNtNtCs86yVScfUyun_18timekeeper_backend8handlers5admin8sessions21revoke_session_tokens00Bb_
FNDA:0,_RNCNCNvNtNtNtCs86yVScfUyun_18timekeeper_backend8handlers5admin8sessions21revoke_session_tokens0s0_0Bb_
FNDA:0,_RNCNCNvNtNtNtCs86yVScfUyun_18timekeeper_backend8handlers5admin8sessions21revoke_session_tokens0s_0Bb_
FNDA:0,_RNCNvMNtNtNtCs86yVScfUyun_18timekeeper_backend8handlers5admin8sessionsNtB4_20AdminSessionResponse12from_session0Ba_
FNDA:0,_RNCNvNtNtNtCs86yVScfUyun_18timekeeper_backend8handlers5admin8sessions10extract_ip0B9_
FNDA:0,_RNCNvNtNtNtCs86yVScfUyun_18timekeeper_backend8handlers5admin8sessions10extract_ips0_0B9_
FNDA:0,_RNCNvNtNtNtCs86yVScfUyun_18timekeeper_backend8handlers5admin8sessions10extract_ips1_0B9_
FNDA:0,_RNCNvNtNtNtCs86yVScfUyun_18timekeeper_backend8handlers5admin8sessions10extract_ips2_0B9_
FNDA:0,_RNCNvNtNtNtCs86yVScfUyun_18timekeeper_backend8handlers5admin8sessions10extract_ips3_0B9_
FNDA:0,_RNCNvNtNtNtCs86yVScfUyun_18timekeeper_backend8handlers5admin8sessions10extract_ips_0B9_
FNDA:0,_RNCNvNtNtNtCs86yVScfUyun_18timekeeper_backend8handlers5admin8sessions14revoke_session0B9_
FNDA:0,_RNCNvNtNtNtCs86yVScfUyun_18timekeeper_backend8handlers5admin8sessions18extract_user_agent0B9_
FNDA:0,_RNCNvNtNtNtCs86yVScfUyun_18timekeeper_backend8handlers5admin8sessions18extract_user_agents0_0B9_
FNDA:0,_RNCNvNtNtNtCs86yVScfUyun_18timekeeper_backend8handlers5admin8sessions18extract_user_agents_0B9_
FNDA:0,_RNCNvNtNtNtCs86yVScfUyun_18timekeeper_backend8handlers5admin8sessions18list_user_sessions0B9_
FNDA:0,_RNCNvNtNtNtCs86yVScfUyun_18timekeeper_backend8handlers5admin8sessions21revoke_session_tokens0B9_
FNDA:0,_RNCNvNtNtNtCs86yVScfUyun_18timekeeper_backend8handlers5admin8sessions26record_session_audit_event0B9_
FNF:29
FNH:12
DA:37,1
DA:38,1
DA:39,1
DA:40,1
DA:41,1
DA:42,1
DA:43,1
DA:44,1
DA:45,1
DA:46,1
DA:47,1
DA:48,1
DA:49,1
DA:50,1
DA:51,1
DA:52,1
DA:55,2
DA:56,2
DA:57,2
DA:58,2
DA:59,2
DA:60,2
DA:61,2
DA:62,1
DA:63,1
DA:65,1
DA:66,1
DA:68,1
DA:69,1
DA:70,1
DA:71,1
DA:72,1
DA:73,1
DA:74,1
DA:75,1
DA:76,2
DA:78,1
DA:79,1
DA:80,1
DA:81,1
DA:82,1
DA:83,1
DA:84,1
DA:85,1
DA:86,1
DA:87,0
DA:88,1
DA:90,1
DA:91,0
DA:92,1
DA:94,1
DA:95,1
DA:96,1
DA:97,1
DA:99,1
DA:101,1
DA:102,1
DA:103,1
DA:104,1
DA:105,1
DA:107,1
DA:108,1
DA:109,1
DA:110,1
DA:111,1
DA:114,1
DA:115,1
DA:116,1
DA:117,1
DA:118,1
DA:120,1
DA:121,1
DA:122,1
DA:123,1
DA:124,1
DA:125,1
DA:126,1
DA:127,1
DA:128,1
DA:129,1
DA:130,0
DA:131,1
DA:132,0
DA:134,1
DA:135,1
DA:136,1
DA:138,1
DA:139,1
DA:140,1
DA:142,1
DA:143,1
DA:145,1
DA:146,1
DA:147,1
DA:148,1
DA:149,1
DA:150,1
DA:151,1
DA:152,1
DA:153,1
DA:154,1
DA:155,0
DA:157,1
DA:158,1
DA:159,1
DA:160,1
DA:161,1
DA:162,1
DA:163,1
DA:164,1
DA:165,1
DA:166,1
DA:167,1
DA:168,1
DA:169,1
DA:170,1
DA:172,1
DA:173,0
DA:174,0
DA:179,0
DA:180,0
DA:181,1
DA:183,1
DA:184,1
DA:185,0
DA:186,0
DA:187,0
DA:188,0
DA:189,0
DA:190,1
DA:191,1
DA:192,1
DA:193,1
DA:194,1
DA:195,1
DA:196,1
DA:198,1
DA:199,1
DA:200,1
DA:201,1
DA:202,1
DA:203,1
DA:204,1
BRF:0
BRH:0
LF:165
LH:134
end_of_record
SF:/home/marra/projects/timekeeper/backend/src/handlers/admin/subject_requests.rs
FN:298,_RNvNtNtNtCs2oPl7zguF9n_18timekeeper_backend8handlers5admin16subject_requests13map_app_error
FN:226,_RNvNtNtNtCs2oPl7zguF9n_18timekeeper_backend8handlers5admin16subject_requests16normalize_filter
FN:265,_RNvNtNtNtCs2oPl7zguF9n_18timekeeper_backend8handlers5admin16subject_requests17parse_to_datetime
FN:321,_RNvNtNtNtCs2oPl7zguF9n_18timekeeper_backend8handlers5admin16subject_requests18bad_request_helper
FN:244,_RNvNtNtNtCs2oPl7zguF9n_18timekeeper_backend8handlers5admin16subject_requests18parse_request_type
FN:256,_RNvNtNtNtCs2oPl7zguF9n_18timekeeper_backend8handlers5admin16subject_requests19parse_from_datetime
FN:190,_RNvNtNtNtCs2oPl7zguF9n_18timekeeper_backend8handlers5admin16subject_requests19validate_list_query
FN:274,_RNvNtNtNtCs2oPl7zguF9n_18timekeeper_backend8handlers5admin16subject_requests20parse_datetime_value
FN:232,_RNvNtNtNtCs2oPl7zguF9n_18timekeeper_backend8handlers5admin16subject_requests20parse_request_status
FN:54,_RNvNtNtNtCs2oPl7zguF9n_18timekeeper_backend8handlers5admin16subject_requests21list_subject_requests
FN:167,_RNvNtNtNtCs2oPl7zguF9n_18timekeeper_backend8handlers5admin16subject_requests22ensure_pending_request
FN:127,_RNvNtNtNtCs2oPl7zguF9n_18timekeeper_backend8handlers5admin16subject_requests22reject_subject_request
FN:87,_RNvNtNtNtCs2oPl7zguF9n_18timekeeper_backend8handlers5admin16subject_requests23approve_subject_request
FN:68,_RNCNCNvNtNtNtCs2oPl7zguF9n_18timekeeper_backend8handlers5admin16subject_requests21list_subject_requests00Bb_
FN:173,_RNCNCNvNtNtNtCs2oPl7zguF9n_18timekeeper_backend8handlers5admin16subject_requests22ensure_pending_request00Bb_
FN:149,_RNCNCNvNtNtNtCs2oPl7zguF9n_18timekeeper_backend8handlers5admin16subject_requests22reject_subject_request00Bb_
FN:109,_RNCNCNvNtNtNtCs2oPl7zguF9n_18timekeeper_backend8handlers5admin16subject_requests23approve_subject_request00Bb_
FN:228,_RNCNvNtNtNtCs2oPl7zguF9n_18timekeeper_backend8handlers5admin16subject_requests16normalize_filter0B9_
FN:229,_RNCNvNtNtNtCs2oPl7zguF9n_18timekeeper_backend8handlers5admin16subject_requests16normalize_filters_0B9_
FN:58,_RNCNvNtNtNtCs2oPl7zguF9n_18timekeeper_backend8handlers5admin16subject_requests21list_subject_requests0B9_
FN:170,_RNCNvNtNtNtCs2oPl7zguF9n_18timekeeper_backend8handlers5admin16subject_requests22ensure_pending_request0B9_
FN:132,_RNCNvNtNtNtCs2oPl7zguF9n_18timekeeper_backend8handlers5admin16subject_requests22reject_subject_request0B9_
FN:92,_RNCNvNtNtNtCs2oPl7zguF9n_18timekeeper_backend8handlers5admin16subject_requests23approve_subject_request0B9_
FN:54,_RNvNtNtNtCsjEFxG0ag9NF_18timekeeper_backend8handlers5admin16subject_requests21list_subject_requests
FN:127,_RNvNtNtNtCsjEFxG0ag9NF_18timekeeper_backend8handlers5admin16subject_requests22reject_subject_request
FN:87,_RNvNtNtNtCsjEFxG0ag9NF_18timekeeper_backend8handlers5admin16subject_requests23approve_subject_request
FN:298,_RNvNtNtNtCsjEFxG0ag9NF_18timekeeper_backend8handlers5admin16subject_requests13map_app_error
FN:226,_RNvNtNtNtCsjEFxG0ag9NF_18timekeeper_backend8handlers5admin16subject_requests16normalize_filter
FN:265,_RNvNtNtNtCsjEFxG0ag9NF_18timekeeper_backend8handlers5admin16subject_requests17parse_to_datetime
FN:321,_RNvNtNtNtCsjEFxG0ag9NF_18timekeeper_backend8handlers5admin16subject_requests18bad_request_helper
FN:244,_RNvNtNtNtCsjEFxG0ag9NF_18timekeeper_backend8handlers5admin16subject_requests18parse_request_type
FN:256,_RNvNtNtNtCsjEFxG0ag9NF_18timekeeper_backend8handlers5admin16subject_requests19parse_from_datetime
FN:190,_RNvNtNtNtCsjEFxG0ag9NF_18timekeeper_backend8handlers5admin16subject_requests19validate_list_query
FN:274,_RNvNtNtNtCsjEFxG0ag9NF_18timekeeper_backend8handlers5admin16subject_requests20parse_datetime_value
FN:232,_RNvNtNtNtCsjEFxG0ag9NF_18timekeeper_backend8handlers5admin16subject_requests20parse_request_status
FN:167,_RNvNtNtNtCsjEFxG0ag9NF_18timekeeper_backend8handlers5admin16subject_requests22ensure_pending_request
FN:68,_RNCNCNvNtNtNtCsjEFxG0ag9NF_18timekeeper_backend8handlers5admin16subject_requests21list_subject_requests00Bb_
FN:173,_RNCNCNvNtNtNtCsjEFxG0ag9NF_18timekeeper_backend8handlers5admin16subject_requests22ensure_pending_request00Bb_
FN:149,_RNCNCNvNtNtNtCsjEFxG0ag9NF_18timekeeper_backend8handlers5admin16subject_requests22reject_subject_request00Bb_
FN:109,_RNCNCNvNtNtNtCsjEFxG0ag9NF_18timekeeper_backend8handlers5admin16subject_requests23approve_subject_request00Bb_
FN:228,_RNCNvNtNtNtCsjEFxG0ag9NF_18timekeeper_backend8handlers5admin16subject_requests16normalize_filter0B9_
FN:229,_RNCNvNtNtNtCsjEFxG0ag9NF_18timekeeper_backend8handlers5admin16subject_requests16normalize_filters_0B9_
FN:58,_RNCNvNtNtNtCsjEFxG0ag9NF_18timekeeper_backend8handlers5admin16subject_requests21list_subject_requests0B9_
FN:170,_RNCNvNtNtNtCsjEFxG0ag9NF_18timekeeper_backend8handlers5admin16subject_requests22ensure_pending_request0B9_
FN:132,_RNCNvNtNtNtCsjEFxG0ag9NF_18timekeeper_backend8handlers5admin16subject_requests22reject_subject_request0B9_
FN:92,_RNCNvNtNtNtCsjEFxG0ag9NF_18timekeeper_backend8handlers5admin16subject_requests23approve_subject_request0B9_
FN:298,_RNvNtNtNtCsiqn6J3Zmf7c_18timekeeper_backend8handlers5admin16subject_requests13map_app_error
FN:226,_RNvNtNtNtCsiqn6J3Zmf7c_18timekeeper_backend8handlers5admin16subject_requests16normalize_filter
FN:265,_RNvNtNtNtCsiqn6J3Zmf7c_18timekeeper_backend8handlers5admin16subject_requests17parse_to_datetime
FN:321,_RNvNtNtNtCsiqn6J3Zmf7c_18timekeeper_backend8handlers5admin16subject_requests18bad_request_helper
FN:244,_RNvNtNtNtCsiqn6J3Zmf7c_18timekeeper_backend8handlers5admin16subject_requests18parse_request_type
FN:256,_RNvNtNtNtCsiqn6J3Zmf7c_18timekeeper_backend8handlers5admin16subject_requests19parse_from_datetime
FN:190,_RNvNtNtNtCsiqn6J3Zmf7c_18timekeeper_backend8handlers5admin16subject_requests19validate_list_query
FN:274,_RNvNtNtNtCsiqn6J3Zmf7c_18timekeeper_backend8handlers5admin16subject_requests20parse_datetime_value
FN:232,_RNvNtNtNtCsiqn6J3Zmf7c_18timekeeper_backend8handlers5admin16subject_requests20parse_request_status
FN:54,_RNvNtNtNtCsiqn6J3Zmf7c_18timekeeper_backend8handlers5admin16subject_requests21list_subject_requests
FN:167,_RNvNtNtNtCsiqn6J3Zmf7c_18timekeeper_backend8handlers5admin16subject_requests22ensure_pending_request
FN:127,_RNvNtNtNtCsiqn6J3Zmf7c_18timekeeper_backend8handlers5admin16subject_requests22reject_subject_request
FN:87,_RNvNtNtNtCsiqn6J3Zmf7c_18timekeeper_backend8handlers5admin16subject_requests23approve_subject_request
FN:68,_RNCNCNvNtNtNtCsiqn6J3Zmf7c_18timekeeper_backend8handlers5admin16subject_requests21list_subject_requests00Bb_
FN:173,_RNCNCNvNtNtNtCsiqn6J3Zmf7c_18timekeeper_backend8handlers5admin16subject_requests22ensure_pending_request00Bb_
FN:149,_RNCNCNvNtNtNtCsiqn6J3Zmf7c_18timekeeper_backend8handlers5admin16subject_requests22reject_subject_request00Bb_
FN:109,_RNCNCNvNtNtNtCsiqn6J3Zmf7c_18timekeeper_backend8handlers5admin16subject_requests23approve_subject_request00Bb_
FN:228,_RNCNvNtNtNtCsiqn6J3Zmf7c_18timekeeper_backend8handlers5admin16subject_requests16normalize_filter0B9_
FN:229,_RNCNvNtNtNtCsiqn6J3Zmf7c_18timekeeper_backend8handlers5admin16subject_requests16normalize_filters_0B9_
FN:58,_RNCNvNtNtNtCsiqn6J3Zmf7c_18timekeeper_backend8handlers5admin16subject_requests21list_subject_requests0B9_
FN:170,_RNCNvNtNtNtCsiqn6J3Zmf7c_18timekeeper_backend8handlers5admin16subject_requests22ensure_pending_request0B9_
FN:132,_RNCNvNtNtNtCsiqn6J3Zmf7c_18timekeeper_backend8handlers5admin16subject_requests22reject_subject_request0B9_
FN:92,_RNCNvNtNtNtCsiqn6J3Zmf7c_18timekeeper_backend8handlers5admin16subject_requests23approve_subject_request0B9_
FN:54,_RNvNtNtNtCs86yVScfUyun_18timekeeper_backend8handlers5admin16subject_requests21list_subject_requests
FN:127,_RNvNtNtNtCs86yVScfUyun_18timekeeper_backend8handlers5admin16subject_requests22reject_subject_request
FN:87,_RNvNtNtNtCs86yVScfUyun_18timekeeper_backend8handlers5admin16subject_requests23approve_subject_request
FN:298,_RNvNtNtNtCs86yVScfUyun_18timekeeper_backend8handlers5admin16subject_requests13map_app_error
FN:226,_RNvNtNtNtCs86yVScfUyun_18timekeeper_backend8handlers5admin16subject_requests16normalize_filter
FN:265,_RNvNtNtNtCs86yVScfUyun_18timekeeper_backend8handlers5admin16subject_requests17parse_to_datetime
FN:321,_RNvNtNtNtCs86yVScfUyun_18timekeeper_backend8handlers5admin16subject_requests18bad_request_helper
FN:244,_RNvNtNtNtCs86yVScfUyun_18timekeeper_backend8handlers5admin16subject_requests18parse_request_type
FN:256,_RNvNtNtNtCs86yVScfUyun_18timekeeper_backend8handlers5admin16subject_requests19parse_from_datetime
FN:190,_RNvNtNtNtCs86yVScfUyun_18timekeeper_backend8handlers5admin16subject_requests19validate_list_query
FN:274,_RNvNtNtNtCs86yVScfUyun_18timekeeper_backend8handlers5admin16subject_requests20parse_datetime_value
FN:232,_RNvNtNtNtCs86yVScfUyun_18timekeeper_backend8handlers5admin16subject_requests20parse_request_status
FN:167,_RNvNtNtNtCs86yVScfUyun_18timekeeper_backend8handlers5admin16subject_requests22ensure_pending_request
FN:68,_RNCNCNvNtNtNtCs86yVScfUyun_18timekeeper_backend8handlers5admin16subject_requests21list_subject_requests00Bb_
FN:173,_RNCNCNvNtNtNtCs86yVScfUyun_18timekeeper_backend8handlers5admin16subject_requests22ensure_pending_request00Bb_
FN:149,_RNCNCNvNtNtNtCs86yVScfUyun_18timekeeper_backend8handlers5admin16subject_requests22reject_subject_request00Bb_
FN:109,_RNCNCNvNtNtNtCs86yVScfUyun_18timekeeper_backend8handlers5admin16subject_requests23approve_subject_request00Bb_
FN:228,_RNCNvNtNtNtCs86yVScfUyun_18timekeeper_backend8handlers5admin16subject_requests16normalize_filter0B9_
FN:229,_RNCNvNtNtNtCs86yVScfUyun_18timekeeper_backend8handlers5admin16subject_requests16normalize_filters_0B9_
FN:58,_RNCNvNtNtNtCs86yVScfUyun_18timekeeper_backend8handlers5admin16subject_requests21list_subject_requests0B9_
FN:170,_RNCNvNtNtNtCs86yVScfUyun_18timekeeper_backend8handlers5admin16subject_requests22ensure_pending_request0B9_
FN:132,_RNCNvNtNtNtCs86yVScfUyun_18timekeeper_backend8handlers5admin16subject_requests22reject_subject_request0B9_
FN:92,_RNCNvNtNtNtCs86yVScfUyun_18timekeeper_backend8handlers5admin16subject_requests23approve_subject_request0B9_
FNDA:0,_RNvNtNtNtCs2oPl7zguF9n_18timekeeper_backend8handlers5admin16subject_requests13map_app_error
FNDA:4,_RNvNtNtNtCs2oPl7zguF9n_18timekeeper_backend8handlers5admin16subject_requests16normalize_filter
FNDA:5,_RNvNtNtNtCs2oPl7zguF9n_18timekeeper_backend8handlers5admin16subject_requests17parse_to_datetime
FNDA:1,_RNvNtNtNtCs2oPl7zguF9n_18timekeeper_backend8handlers5admin16subject_requests18bad_request_helper
FNDA:1,_RNvNtNtNtCs2oPl7zguF9n_18timekeeper_backend8handlers5admin16subject_requests18parse_request_type
FNDA:5,_RNvNtNtNtCs2oPl7zguF9n_18timekeeper_backend8handlers5admin16subject_requests19parse_from_datetime
FNDA:5,_RNvNtNtNtCs2oPl7zguF9n_18timekeeper_backend8handlers5admin16subject_requests19validate_list_query
FNDA:0,_RNvNtNtNtCs2oPl7zguF9n_18timekeeper_backend8handlers5admin16subject_requests20parse_datetime_value
FNDA:3,_RNvNtNtNtCs2oPl7zguF9n_18timekeeper_backend8handlers5admin16subject_requests20parse_request_status
FNDA:6,_RNvNtNtNtCs2oPl7zguF9n_18timekeeper_backend8handlers5admin16subject_requests21list_subject_requests
FNDA:6,_RNvNtNtNtCs2oPl7zguF9n_18timekeeper_backend8handlers5admin16subject_requests22ensure_pending_request
FNDA:2,_RNvNtNtNtCs2oPl7zguF9n_18timekeeper_backend8handlers5admin16subject_requests22reject_subject_request
FNDA:5,_RNvNtNtNtCs2oPl7zguF9n_18timekeeper_backend8handlers5admin16subject_requests23approve_subject_request
FNDA:0,_RNCNCNvNtNtNtCs2oPl7zguF9n_18timekeeper_backend8handlers5admin16subject_requests21list_subject_requests00Bb_
FNDA:0,_RNCNCNvNtNtNtCs2oPl7zguF9n_18timekeeper_backend8handlers5admin16subject_requests22ensure_pending_request00Bb_
FNDA:0,_RNCNCNvNtNtNtCs2oPl7zguF9n_18timekeeper_backend8handlers5admin16subject_requests22reject_subject_request00Bb_
FNDA:0,_RNCNCNvNtNtNtCs2oPl7zguF9n_18timekeeper_backend8handlers5admin16subject_requests23approve_subject_request00Bb_
FNDA:0,_RNCNvNtNtNtCs2oPl7zguF9n_18timekeeper_backend8handlers5admin16subject_requests16normalize_filter0B9_
FNDA:0,_RNCNvNtNtNtCs2oPl7zguF9n_18timekeeper_backend8handlers5admin16subject_requests16normalize_filters_0B9_
FNDA:6,_RNCNvNtNtNtCs2oPl7zguF9n_18timekeeper_backend8handlers5admin16subject_requests21list_subject_requests0B9_
FNDA:6,_RNCNvNtNtNtCs2oPl7zguF9n_18timekeeper_backend8handlers5admin16subject_requests22ensure_pending_request0B9_
FNDA:2,_RNCNvNtNtNtCs2oPl7zguF9n_18timekeeper_backend8handlers5admin16subject_requests22reject_subject_request0B9_
FNDA:5,_RNCNvNtNtNtCs2oPl7zguF9n_18timekeeper_backend8handlers5admin16subject_requests23approve_subject_request0B9_
FNDA:0,_RNvNtNtNtCsjEFxG0ag9NF_18timekeeper_backend8handlers5admin16subject_requests21list_subject_requests
FNDA:0,_RNvNtNtNtCsjEFxG0ag9NF_18timekeeper_backend8handlers5admin16subject_requests22reject_subject_request
FNDA:0,_RNvNtNtNtCsjEFxG0ag9NF_18timekeeper_backend8handlers5admin16subject_requests23approve_subject_request
FNDA:0,_RNvNtNtNtCsjEFxG0ag9NF_18timekeeper_backend8handlers5admin16subject_requests13map_app_error
FNDA:0,_RNvNtNtNtCsjEFxG0ag9NF_18timekeeper_backend8handlers5admin16subject_requests16normalize_filter
FNDA:0,_RNvNtNtNtCsjEFxG0ag9NF_18timekeeper_backend8handlers5admin16subject_requests17parse_to_datetime
FNDA:0,_RNvNtNtNtCsjEFxG0ag9NF_18timekeeper_backend8handlers5admin16subject_requests18bad_request_helper
FNDA:0,_RNvNtNtNtCsjEFxG0ag9NF_18timekeeper_backend8handlers5admin16subject_requests18parse_request_type
FNDA:0,_RNvNtNtNtCsjEFxG0ag9NF_18timekeeper_backend8handlers5admin16subject_requests19parse_from_datetime
FNDA:0,_RNvNtNtNtCsjEFxG0ag9NF_18timekeeper_backend8handlers5admin16subject_requests19validate_list_query
FNDA:0,_RNvNtNtNtCsjEFxG0ag9NF_18timekeeper_backend8handlers5admin16subject_requests20parse_datetime_value
FNDA:0,_RNvNtNtNtCsjEFxG0ag9NF_18timekeeper_backend8handlers5admin16subject_requests20parse_request_status
FNDA:0,_RNvNtNtNtCsjEFxG0ag9NF_18timekeeper_backend8handlers5admin16subject_requests22ensure_pending_request
FNDA:0,_RNCNCNvNtNtNtCsjEFxG0ag9NF_18timekeeper_backend8handlers5admin16subject_requests21list_subject_requests00Bb_
FNDA:0,_RNCNCNvNtNtNtCsjEFxG0ag9NF_18timekeeper_backend8handlers5admin16subject_requests22ensure_pending_request00Bb_
FNDA:0,_RNCNCNvNtNtNtCsjEFxG0ag9NF_18timekeeper_backend8handlers5admin16subject_requests22reject_subject_request00Bb_
FNDA:0,_RNCNCNvNtNtNtCsjEFxG0ag9NF_18timekeeper_backend8handlers5admin16subject_requests23approve_subject_request00Bb_
FNDA:0,_RNCNvNtNtNtCsjEFxG0ag9NF_18timekeeper_backend8handlers5admin16subject_requests16normalize_filter0B9_
FNDA:0,_RNCNvNtNtNtCsjEFxG0ag9NF_18timekeeper_backend8handlers5admin16subject_requests16normalize_filters_0B9_
FNDA:0,_RNCNvNtNtNtCsjEFxG0ag9NF_18timekeeper_backend8handlers5admin16subject_requests21list_subject_requests0B9_
FNDA:0,_RNCNvNtNtNtCsjEFxG0ag9NF_18timekeeper_backend8handlers5admin16subject_requests22ensure_pending_request0B9_
FNDA:0,_RNCNvNtNtNtCsjEFxG0ag9NF_18timekeeper_backend8handlers5admin16subject_requests22reject_subject_request0B9_
FNDA:0,_RNCNvNtNtNtCsjEFxG0ag9NF_18timekeeper_backend8handlers5admin16subject_requests23approve_subject_request0B9_
FNDA:0,_RNvNtNtNtCsiqn6J3Zmf7c_18timekeeper_backend8handlers5admin16subject_requests13map_app_error
FNDA:0,_RNvNtNtNtCsiqn6J3Zmf7c_18timekeeper_backend8handlers5admin16subject_requests16normalize_filter
FNDA:0,_RNvNtNtNtCsiqn6J3Zmf7c_18timekeeper_backend8handlers5admin16subject_requests17parse_to_datetime
FNDA:0,_RNvNtNtNtCsiqn6J3Zmf7c_18timekeeper_backend8handlers5admin16subject_requests18bad_request_helper
FNDA:0,_RNvNtNtNtCsiqn6J3Zmf7c_18timekeeper_backend8handlers5admin16subject_requests18parse_request_type
FNDA:0,_RNvNtNtNtCsiqn6J3Zmf7c_18timekeeper_backend8handlers5admin16subject_requests19parse_from_datetime
FNDA:0,_RNvNtNtNtCsiqn6J3Zmf7c_18timekeeper_backend8handlers5admin16subject_requests19validate_list_query
FNDA:0,_RNvNtNtNtCsiqn6J3Zmf7c_18timekeeper_backend8handlers5admin16subject_requests20parse_datetime_value
FNDA:0,_RNvNtNtNtCsiqn6J3Zmf7c_18timekeeper_backend8handlers5admin16subject_requests20parse_request_status
FNDA:0,_RNvNtNtNtCsiqn6J3Zmf7c_18timekeeper_backend8handlers5admin16subject_requests21list_subject_requests
FNDA:0,_RNvNtNtNtCsiqn6J3Zmf7c_18timekeeper_backend8handlers5admin16subject_requests22ensure_pending_request
FNDA:0,_RNvNtNtNtCsiqn6J3Zmf7c_18timekeeper_backend8handlers5admin16subject_requests22reject_subject_request
FNDA:0,_RNvNtNtNtCsiqn6J3Zmf7c_18timekeeper_backend8handlers5admin16subject_requests23approve_subject_request
FNDA:0,_RNCNCNvNtNtNtCsiqn6J3Zmf7c_18timekeeper_backend8handlers5admin16subject_requests21list_subject_requests00Bb_
FNDA:0,_RNCNCNvNtNtNtCsiqn6J3Zmf7c_18timekeeper_backend8handlers5admin16subject_requests22ensure_pending_request00Bb_
FNDA:0,_RNCNCNvNtNtNtCsiqn6J3Zmf7c_18timekeeper_backend8handlers5admin16subject_requests22reject_subject_request00Bb_
FNDA:0,_RNCNCNvNtNtNtCsiqn6J3Zmf7c_18timekeeper_backend8handlers5admin16subject_requests23approve_subject_request00Bb_
FNDA:0,_RNCNvNtNtNtCsiqn6J3Zmf7c_18timekeeper_backend8handlers5admin16subject_requests16normalize_filter0B9_
FNDA:0,_RNCNvNtNtNtCsiqn6J3Zmf7c_18timekeeper_backend8handlers5admin16subject_requests16normalize_filters_0B9_
FNDA:0,_RNCNvNtNtNtCsiqn6J3Zmf7c_18timekeeper_backend8handlers5admin16subject_requests21list_subject_requests0B9_
FNDA:0,_RNCNvNtNtNtCsiqn6J3Zmf7c_18timekeeper_backend8handlers5admin16subject_requests22ensure_pending_request0B9_
FNDA:0,_RNCNvNtNtNtCsiqn6J3Zmf7c_18timekeeper_backend8handlers5admin16subject_requests22reject_subject_request0B9_
FNDA:0,_RNCNvNtNtNtCsiqn6J3Zmf7c_18timekeeper_backend8handlers5admin16subject_requests23approve_subject_request0B9_
FNDA:0,_RNvNtNtNtCs86yVScfUyun_18timekeeper_backend8handlers5admin16subject_requests21list_subject_requests
FNDA:0,_RNvNtNtNtCs86yVScfUyun_18timekeeper_backend8handlers5admin16subject_requests22reject_subject_request
FNDA:0,_RNvNtNtNtCs86yVScfUyun_18timekeeper_backend8handlers5admin16subject_requests23approve_subject_request
FNDA:0,_RNvNtNtNtCs86yVScfUyun_18timekeeper_backend8handlers5admin16subject_requests13map_app_error
FNDA:0,_RNvNtNtNtCs86yVScfUyun_18timekeeper_backend8handlers5admin16subject_requests16normalize_filter
FNDA:0,_RNvNtNtNtCs86yVScfUyun_18timekeeper_backend8handlers5admin16subject_requests17parse_to_datetime
FNDA:0,_RNvNtNtNtCs86yVScfUyun_18timekeeper_backend8handlers5admin16subject_requests18bad_request_helper
FNDA:0,_RNvNtNtNtCs86yVScfUyun_18timekeeper_backend8handlers5admin16subject_requests18parse_request_type
FNDA:0,_RNvNtNtNtCs86yVScfUyun_18timekeeper_backend8handlers5admin16subject_requests19parse_from_datetime
FNDA:0,_RNvNtNtNtCs86yVScfUyun_18timekeeper_backend8handlers5admin16subject_requests19validate_list_query
FNDA:0,_RNvNtNtNtCs86yVScfUyun_18timekeeper_backend8handlers5admin16subject_requests20parse_datetime_value
FNDA:0,_RNvNtNtNtCs86yVScfUyun_18timekeeper_backend8handlers5admin16subject_requests20parse_request_status
FNDA:0,_RNvNtNtNtCs86yVScfUyun_18timekeeper_backend8handlers5admin16subject_requests22ensure_pending_request
FNDA:0,_RNCNCNvNtNtNtCs86yVScfUyun_18timekeeper_backend8handlers5admin16subject_requests21list_subject_requests00Bb_
FNDA:0,_RNCNCNvNtNtNtCs86yVScfUyun_18timekeeper_backend8handlers5admin16subject_requests22ensure_pending_request00Bb_
FNDA:0,_RNCNCNvNtNtNtCs86yVScfUyun_18timekeeper_backend8handlers5admin16subject_requests22reject_subject_request00Bb_
FNDA:0,_RNCNCNvNtNtNtCs86yVScfUyun_18timekeeper_backend8handlers5admin16subject_requests23approve_subject_request00Bb_
FNDA:0,_RNCNvNtNtNtCs86yVScfUyun_18timekeeper_backend8handlers5admin16subject_requests16normalize_filter0B9_
FNDA:0,_RNCNvNtNtNtCs86yVScfUyun_18timekeeper_backend8handlers5admin16subject_requests16normalize_filters_0B9_
FNDA:0,_RNCNvNtNtNtCs86yVScfUyun_18timekeeper_backend8handlers5admin16subject_requests21list_subject_requests0B9_
FNDA:0,_RNCNvNtNtNtCs86yVScfUyun_18timekeeper_backend8handlers5admin16subject_requests22ensure_pending_request0B9_
FNDA:0,_RNCNvNtNtNtCs86yVScfUyun_18timekeeper_backend8handlers5admin16subject_requests22reject_subject_request0B9_
FNDA:0,_RNCNvNtNtNtCs86yVScfUyun_18timekeeper_backend8handlers5admin16subject_requests23approve_subject_request0B9_
FNF:23
FNH:15
DA:54,6
DA:55,6
DA:56,6
DA:57,6
DA:58,6
DA:59,6
DA:60,1
DA:61,5
DA:63,5
DA:64,4
DA:65,4
DA:66,4
DA:67,4
DA:68,4
DA:69,0
DA:70,0
DA:71,0
DA:72,0
DA:73,0
DA:74,0
DA:76,4
DA:77,4
DA:78,4
DA:79,4
DA:80,4
DA:81,4
DA:82,4
DA:83,4
DA:84,4
DA:85,6
DA:87,5
DA:88,5
DA:89,5
DA:90,5
DA:91,5
DA:92,5
DA:93,5
DA:94,1
DA:95,4
DA:96,4
DA:97,4
DA:98,3
DA:99,3
DA:101,3
DA:102,3
DA:103,3
DA:104,3
DA:105,3
DA:106,3
DA:107,3
DA:108,3
DA:109,3
DA:110,0
DA:111,0
DA:112,0
DA:113,0
DA:114,0
DA:115,0
DA:117,3
DA:118,0
DA:119,0
DA:120,0
DA:121,0
DA:122,3
DA:124,3
DA:125,5
DA:127,2
DA:128,2
DA:129,2
DA:130,2
DA:131,2
DA:132,2
DA:133,2
DA:134,0
DA:135,2
DA:136,2
DA:137,2
DA:138,2
DA:139,2
DA:141,2
DA:142,2
DA:143,2
DA:144,2
DA:145,2
DA:146,2
DA:147,2
DA:148,2
DA:149,2
DA:150,0
DA:151,0
DA:152,0
DA:153,0
DA:154,0
DA:155,0
DA:157,2
DA:158,0
DA:159,0
DA:160,0
DA:161,0
DA:162,2
DA:164,2
DA:165,2
DA:167,6
DA:168,6
DA:169,6
DA:170,6
DA:171,6
DA:172,6
DA:173,6
DA:174,0
DA:175,0
DA:176,0
DA:177,0
DA:178,0
DA:179,0
DA:181,6
DA:182,6
DA:183,1
DA:184,1
DA:185,1
DA:186,1
DA:188,6
DA:190,5
DA:191,5
DA:192,5
DA:193,5
DA:194,5
DA:195,5
DA:196,5
DA:197,5
DA:199,5
DA:200,5
DA:202,5
DA:203,0
DA:204,0
DA:205,0
DA:206,5
DA:208,5
DA:209,4
DA:211,4
DA:213,4
DA:214,4
DA:215,4
DA:216,4
DA:217,4
DA:218,4
DA:219,4
DA:220,4
DA:221,4
DA:222,4
DA:223,4
DA:224,5
DA:226,4
DA:227,4
DA:228,4
DA:229,4
DA:230,4
DA:232,3
DA:233,3
DA:234,3
DA:235,1
DA:236,1
DA:237,1
DA:238,1
DA:239,1
DA:240,1
DA:242,3
DA:244,1
DA:245,1
DA:246,1
DA:247,0
DA:248,0
DA:249,0
DA:250,0
DA:251,0
DA:252,0
DA:254,1
DA:256,5
DA:257,5
DA:258,0
DA:259,0
DA:260,0
DA:261,5
DA:263,5
DA:265,5
DA:266,5
DA:267,0
DA:268,0
DA:269,0
DA:270,5
DA:272,5
DA:274,0
DA:275,0
DA:276,0
DA:277,0
DA:278,0
DA:279,0
DA:280,0
DA:281,0
DA:282,0
DA:283,0
DA:284,0
DA:285,0
DA:286,0
DA:288,0
DA:289,0
DA:290,0
DA:291,0
DA:292,0
DA:293,0
DA:294,0
DA:295,0
DA:296,0
DA:298,0
DA:299,0
DA:300,0
DA:301,0
DA:302,0
DA:303,0
DA:305,0
DA:306,0
DA:307,0
DA:308,0
DA:309,0
DA:310,0
DA:311,0
DA:312,0
DA:313,0
DA:314,0
DA:315,0
DA:316,0
DA:319,0
DA:321,1
DA:322,1
DA:323,1
BRF:0
BRH:0
LF:249
LH:150
end_of_record
SF:/home/marra/projects/timekeeper/backend/src/handlers/admin/users.rs
FN:36,_RNvNtNtNtCs2oPl7zguF9n_18timekeeper_backend8handlers5admin5users11create_user
FN:179,_RNvNtNtNtCs2oPl7zguF9n_18timekeeper_backend8handlers5admin5users11delete_user
FN:83,_RNvNtNtNtCs2oPl7zguF9n_18timekeeper_backend8handlers5admin5users11update_user
FN:142,_RNvNtNtNtCs2oPl7zguF9n_18timekeeper_backend8handlers5admin5users14reset_user_mfa
FN:253,_RNvNtNtNtCs2oPl7zguF9n_18timekeeper_backend8handlers5admin5users18get_archived_users
FN:328,_RNvNtNtNtCs2oPl7zguF9n_18timekeeper_backend8handlers5admin5users20delete_archived_user
FN:281,_RNvNtNtNtCs2oPl7zguF9n_18timekeeper_backend8handlers5admin5users21restore_archived_user
FN:20,_RNvNtNtNtCs2oPl7zguF9n_18timekeeper_backend8handlers5admin5users9get_users
FN:46,_RNCNCNvNtNtNtCs2oPl7zguF9n_18timekeeper_backend8handlers5admin5users11create_user00Bb_
FN:57,_RNCNCNvNtNtNtCs2oPl7zguF9n_18timekeeper_backend8handlers5admin5users11create_user0s0_0Bb_
FN:59,_RNCNCNvNtNtNtCs2oPl7zguF9n_18timekeeper_backend8handlers5admin5users11create_user0s1_0Bb_
FN:62,_RNCNCNvNtNtNtCs2oPl7zguF9n_18timekeeper_backend8handlers5admin5users11create_user0s2_0Bb_
FN:77,_RNCNCNvNtNtNtCs2oPl7zguF9n_18timekeeper_backend8handlers5admin5users11create_user0s3_0Bb_
FN:51,_RNCNCNvNtNtNtCs2oPl7zguF9n_18timekeeper_backend8handlers5admin5users11create_user0s_0Bb_
FN:190,_RNCNCNvNtNtNtCs2oPl7zguF9n_18timekeeper_backend8handlers5admin5users11delete_user00Bb_
FN:206,_RNCNCNvNtNtNtCs2oPl7zguF9n_18timekeeper_backend8handlers5admin5users11delete_user0s0_0Bb_
FN:198,_RNCNCNvNtNtNtCs2oPl7zguF9n_18timekeeper_backend8handlers5admin5users11delete_user0s_0Bb_
FN:95,_RNCNCNvNtNtNtCs2oPl7zguF9n_18timekeeper_backend8handlers5admin5users11update_user00Bb_
FN:100,_RNCNCNvNtNtNtCs2oPl7zguF9n_18timekeeper_backend8handlers5admin5users11update_user0s0_0Bb_
FN:109,_RNCNCNvNtNtNtCs2oPl7zguF9n_18timekeeper_backend8handlers5admin5users11update_user0s1_0Bb_
FN:132,_RNCNCNvNtNtNtCs2oPl7zguF9n_18timekeeper_backend8handlers5admin5users11update_user0s2_0Bb_
FN:99,_RNCNCNvNtNtNtCs2oPl7zguF9n_18timekeeper_backend8handlers5admin5users11update_user0s_0Bb_
FN:154,_RNCNCNvNtNtNtCs2oPl7zguF9n_18timekeeper_backend8handlers5admin5users14reset_user_mfa00Bb_
FN:165,_RNCNCNvNtNtNtCs2oPl7zguF9n_18timekeeper_backend8handlers5admin5users14reset_user_mfa0s0_0Bb_
FN:161,_RNCNCNvNtNtNtCs2oPl7zguF9n_18timekeeper_backend8handlers5admin5users14reset_user_mfa0s_0Bb_
FN:263,_RNCNCNvNtNtNtCs2oPl7zguF9n_18timekeeper_backend8handlers5admin5users18get_archived_users00Bb_
FN:268,_RNCNCNvNtNtNtCs2oPl7zguF9n_18timekeeper_backend8handlers5admin5users18get_archived_users0s_0Bb_
FN:339,_RNCNCNvNtNtNtCs2oPl7zguF9n_18timekeeper_backend8handlers5admin5users20delete_archived_user00Bb_
FN:347,_RNCNCNvNtNtNtCs2oPl7zguF9n_18timekeeper_backend8handlers5admin5users20delete_archived_user0s_0Bb_
FN:292,_RNCNCNvNtNtNtCs2oPl7zguF9n_18timekeeper_backend8handlers5admin5users21restore_archived_user00Bb_
FN:305,_RNCNCNvNtNtNtCs2oPl7zguF9n_18timekeeper_backend8handlers5admin5users21restore_archived_user0s0_0Bb_
FN:300,_RNCNCNvNtNtNtCs2oPl7zguF9n_18timekeeper_backend8handlers5admin5users21restore_archived_user0s_0Bb_
FN:30,_RNCNCNvNtNtNtCs2oPl7zguF9n_18timekeeper_backend8handlers5admin5users9get_users00Bb_
FN:40,_RNCNvNtNtNtCs2oPl7zguF9n_18timekeeper_backend8handlers5admin5users11create_user0B9_
FN:184,_RNCNvNtNtNtCs2oPl7zguF9n_18timekeeper_backend8handlers5admin5users11delete_user0B9_
FN:88,_RNCNvNtNtNtCs2oPl7zguF9n_18timekeeper_backend8handlers5admin5users11update_user0B9_
FN:146,_RNCNvNtNtNtCs2oPl7zguF9n_18timekeeper_backend8handlers5admin5users14reset_user_mfa0B9_
FN:256,_RNCNvNtNtNtCs2oPl7zguF9n_18timekeeper_backend8handlers5admin5users18get_archived_users0B9_
FN:332,_RNCNvNtNtNtCs2oPl7zguF9n_18timekeeper_backend8handlers5admin5users20delete_archived_user0B9_
FN:285,_RNCNvNtNtNtCs2oPl7zguF9n_18timekeeper_backend8handlers5admin5users21restore_archived_user0B9_
FN:23,_RNCNvNtNtNtCs2oPl7zguF9n_18timekeeper_backend8handlers5admin5users9get_users0B9_
FN:36,_RNvNtNtNtCsjEFxG0ag9NF_18timekeeper_backend8handlers5admin5users11create_user
FN:179,_RNvNtNtNtCsjEFxG0ag9NF_18timekeeper_backend8handlers5admin5users11delete_user
FN:83,_RNvNtNtNtCsjEFxG0ag9NF_18timekeeper_backend8handlers5admin5users11update_user
FN:142,_RNvNtNtNtCsjEFxG0ag9NF_18timekeeper_backend8handlers5admin5users14reset_user_mfa
FN:253,_RNvNtNtNtCsjEFxG0ag9NF_18timekeeper_backend8handlers5admin5users18get_archived_users
FN:328,_RNvNtNtNtCsjEFxG0ag9NF_18timekeeper_backend8handlers5admin5users20delete_archived_user
FN:281,_RNvNtNtNtCsjEFxG0ag9NF_18timekeeper_backend8handlers5admin5users21restore_archived_user
FN:20,_RNvNtNtNtCsjEFxG0ag9NF_18timekeeper_backend8handlers5admin5users9get_users
FN:46,_RNCNCNvNtNtNtCsjEFxG0ag9NF_18timekeeper_backend8handlers5admin5users11create_user00Bb_
FN:57,_RNCNCNvNtNtNtCsjEFxG0ag9NF_18timekeeper_backend8handlers5admin5users11create_user0s0_0Bb_
FN:59,_RNCNCNvNtNtNtCsjEFxG0ag9NF_18timekeeper_backend8handlers5admin5users11create_user0s1_0Bb_
FN:62,_RNCNCNvNtNtNtCsjEFxG0ag9NF_18timekeeper_backend8handlers5admin5users11create_user0s2_0Bb_
FN:77,_RNCNCNvNtNtNtCsjEFxG0ag9NF_18timekeeper_backend8handlers5admin5users11create_user0s3_0Bb_
FN:51,_RNCNCNvNtNtNtCsjEFxG0ag9NF_18timekeeper_backend8handlers5admin5users11create_user0s_0Bb_
FN:190,_RNCNCNvNtNtNtCsjEFxG0ag9NF_18timekeeper_backend8handlers5admin5users11delete_user00Bb_
FN:206,_RNCNCNvNtNtNtCsjEFxG0ag9NF_18timekeeper_backend8handlers5admin5users11delete_user0s0_0Bb_
FN:198,_RNCNCNvNtNtNtCsjEFxG0ag9NF_18timekeeper_backend8handlers5admin5users11delete_user0s_0Bb_
FN:95,_RNCNCNvNtNtNtCsjEFxG0ag9NF_18timekeeper_backend8handlers5admin5users11update_user00Bb_
FN:100,_RNCNCNvNtNtNtCsjEFxG0ag9NF_18timekeeper_backend8handlers5admin5users11update_user0s0_0Bb_
FN:109,_RNCNCNvNtNtNtCsjEFxG0ag9NF_18timekeeper_backend8handlers5admin5users11update_user0s1_0Bb_
FN:132,_RNCNCNvNtNtNtCsjEFxG0ag9NF_18timekeeper_backend8handlers5admin5users11update_user0s2_0Bb_
FN:99,_RNCNCNvNtNtNtCsjEFxG0ag9NF_18timekeeper_backend8handlers5admin5users11update_user0s_0Bb_
FN:154,_RNCNCNvNtNtNtCsjEFxG0ag9NF_18timekeeper_backend8handlers5admin5users14reset_user_mfa00Bb_
FN:165,_RNCNCNvNtNtNtCsjEFxG0ag9NF_18timekeeper_backend8handlers5admin5users14reset_user_mfa0s0_0Bb_
FN:161,_RNCNCNvNtNtNtCsjEFxG0ag9NF_18timekeeper_backend8handlers5admin5users14reset_user_mfa0s_0Bb_
FN:263,_RNCNCNvNtNtNtCsjEFxG0ag9NF_18timekeeper_backend8handlers5admin5users18get_archived_users00Bb_
FN:268,_RNCNCNvNtNtNtCsjEFxG0ag9NF_18timekeeper_backend8handlers5admin5users18get_archived_users0s_0Bb_
FN:339,_RNCNCNvNtNtNtCsjEFxG0ag9NF_18timekeeper_backend8handlers5admin5users20delete_archived_user00Bb_
FN:347,_RNCNCNvNtNtNtCsjEFxG0ag9NF_18timekeeper_backend8handlers5admin5users20delete_archived_user0s_0Bb_
FN:292,_RNCNCNvNtNtNtCsjEFxG0ag9NF_18timekeeper_backend8handlers5admin5users21restore_archived_user00Bb_
FN:305,_RNCNCNvNtNtNtCsjEFxG0ag9NF_18timekeeper_backend8handlers5admin5users21restore_archived_user0s0_0Bb_
FN:300,_RNCNCNvNtNtNtCsjEFxG0ag9NF_18timekeeper_backend8handlers5admin5users21restore_archived_user0s_0Bb_
FN:30,_RNCNCNvNtNtNtCsjEFxG0ag9NF_18timekeeper_backend8handlers5admin5users9get_users00Bb_
FN:40,_RNCNvNtNtNtCsjEFxG0ag9NF_18timekeeper_backend8handlers5admin5users11create_user0B9_
FN:184,_RNCNvNtNtNtCsjEFxG0ag9NF_18timekeeper_backend8handlers5admin5users11delete_user0B9_
FN:88,_RNCNvNtNtNtCsjEFxG0ag9NF_18timekeeper_backend8handlers5admin5users11update_user0B9_
FN:146,_RNCNvNtNtNtCsjEFxG0ag9NF_18timekeeper_backend8handlers5admin5users14reset_user_mfa0B9_
FN:256,_RNCNvNtNtNtCsjEFxG0ag9NF_18timekeeper_backend8handlers5admin5users18get_archived_users0B9_
FN:332,_RNCNvNtNtNtCsjEFxG0ag9NF_18timekeeper_backend8handlers5admin5users20delete_archived_user0B9_
FN:285,_RNCNvNtNtNtCsjEFxG0ag9NF_18timekeeper_backend8handlers5admin5users21restore_archived_user0B9_
FN:23,_RNCNvNtNtNtCsjEFxG0ag9NF_18timekeeper_backend8handlers5admin5users9get_users0B9_
FN:425,_RNvNtNtNtNtCsjEFxG0ag9NF_18timekeeper_backend8handlers5admin5users5testss_26test_user_id_parsing_valid
FN:441,_RNvNtNtNtNtCsjEFxG0ag9NF_18timekeeper_backend8handlers5admin5users5testss_26test_user_role_admin_check
FN:434,_RNvNtNtNtNtCsjEFxG0ag9NF_18timekeeper_backend8handlers5admin5users5testss_28test_user_id_parsing_invalid
FN:487,_RNvNtNtNtNtCsjEFxG0ag9NF_18timekeeper_backend8handlers5admin5users5testss_29test_user_role_employee_check
FN:378,_RNvNtNtNtNtCsjEFxG0ag9NF_18timekeeper_backend8handlers5admin5users5testss_31test_delete_user_params_default
FN:370,_RNvNtNtNtNtCsjEFxG0ag9NF_18timekeeper_backend8handlers5admin5users5testss_32test_reset_mfa_payload_structure
FN:464,_RNvNtNtNtNtCsjEFxG0ag9NF_18timekeeper_backend8handlers5admin5users5testss_33test_user_role_system_admin_check
FN:384,_RNvNtNtNtNtCsjEFxG0ag9NF_18timekeeper_backend8handlers5admin5users5testss_35test_delete_user_params_hard_delete
FN:390,_RNvNtNtNtNtCsjEFxG0ag9NF_18timekeeper_backend8handlers5admin5users5testss_37test_archived_user_response_structure
FN:410,_RNvNtNtNtNtCsjEFxG0ag9NF_18timekeeper_backend8handlers5admin5users5testss_47test_archived_user_response_without_archived_by
FN:36,_RNvNtNtNtCsiqn6J3Zmf7c_18timekeeper_backend8handlers5admin5users11create_user
FN:179,_RNvNtNtNtCsiqn6J3Zmf7c_18timekeeper_backend8handlers5admin5users11delete_user
FN:83,_RNvNtNtNtCsiqn6J3Zmf7c_18timekeeper_backend8handlers5admin5users11update_user
FN:142,_RNvNtNtNtCsiqn6J3Zmf7c_18timekeeper_backend8handlers5admin5users14reset_user_mfa
FN:253,_RNvNtNtNtCsiqn6J3Zmf7c_18timekeeper_backend8handlers5admin5users18get_archived_users
FN:328,_RNvNtNtNtCsiqn6J3Zmf7c_18timekeeper_backend8handlers5admin5users20delete_archived_user
FN:281,_RNvNtNtNtCsiqn6J3Zmf7c_18timekeeper_backend8handlers5admin5users21restore_archived_user
FN:20,_RNvNtNtNtCsiqn6J3Zmf7c_18timekeeper_backend8handlers5admin5users9get_users
FN:46,_RNCNCNvNtNtNtCsiqn6J3Zmf7c_18timekeeper_backend8handlers5admin5users11create_user00Bb_
FN:57,_RNCNCNvNtNtNtCsiqn6J3Zmf7c_18timekeeper_backend8handlers5admin5users11create_user0s0_0Bb_
FN:59,_RNCNCNvNtNtNtCsiqn6J3Zmf7c_18timekeeper_backend8handlers5admin5users11create_user0s1_0Bb_
FN:62,_RNCNCNvNtNtNtCsiqn6J3Zmf7c_18timekeeper_backend8handlers5admin5users11create_user0s2_0Bb_
FN:77,_RNCNCNvNtNtNtCsiqn6J3Zmf7c_18timekeeper_backend8handlers5admin5users11create_user0s3_0Bb_
FN:51,_RNCNCNvNtNtNtCsiqn6J3Zmf7c_18timekeeper_backend8handlers5admin5users11create_user0s_0Bb_
FN:190,_RNCNCNvNtNtNtCsiqn6J3Zmf7c_18timekeeper_backend8handlers5admin5users11delete_user00Bb_
FN:206,_RNCNCNvNtNtNtCsiqn6J3Zmf7c_18timekeeper_backend8handlers5admin5users11delete_user0s0_0Bb_
FN:198,_RNCNCNvNtNtNtCsiqn6J3Zmf7c_18timekeeper_backend8handlers5admin5users11delete_user0s_0Bb_
FN:95,_RNCNCNvNtNtNtCsiqn6J3Zmf7c_18timekeeper_backend8handlers5admin5users11update_user00Bb_
FN:100,_RNCNCNvNtNtNtCsiqn6J3Zmf7c_18timekeeper_backend8handlers5admin5users11update_user0s0_0Bb_
FN:109,_RNCNCNvNtNtNtCsiqn6J3Zmf7c_18timekeeper_backend8handlers5admin5users11update_user0s1_0Bb_
FN:132,_RNCNCNvNtNtNtCsiqn6J3Zmf7c_18timekeeper_backend8handlers5admin5users11update_user0s2_0Bb_
FN:99,_RNCNCNvNtNtNtCsiqn6J3Zmf7c_18timekeeper_backend8handlers5admin5users11update_user0s_0Bb_
FN:154,_RNCNCNvNtNtNtCsiqn6J3Zmf7c_18timekeeper_backend8handlers5admin5users14reset_user_mfa00Bb_
FN:165,_RNCNCNvNtNtNtCsiqn6J3Zmf7c_18timekeeper_backend8handlers5admin5users14reset_user_mfa0s0_0Bb_
FN:161,_RNCNCNvNtNtNtCsiqn6J3Zmf7c_18timekeeper_backend8handlers5admin5users14reset_user_mfa0s_0Bb_
FN:263,_RNCNCNvNtNtNtCsiqn6J3Zmf7c_18timekeeper_backend8handlers5admin5users18get_archived_users00Bb_
FN:268,_RNCNCNvNtNtNtCsiqn6J3Zmf7c_18timekeeper_backend8handlers5admin5users18get_archived_users0s_0Bb_
FN:339,_RNCNCNvNtNtNtCsiqn6J3Zmf7c_18timekeeper_backend8handlers5admin5users20delete_archived_user00Bb_
FN:347,_RNCNCNvNtNtNtCsiqn6J3Zmf7c_18timekeeper_backend8handlers5admin5users20delete_archived_user0s_0Bb_
FN:292,_RNCNCNvNtNtNtCsiqn6J3Zmf7c_18timekeeper_backend8handlers5admin5users21restore_archived_user00Bb_
FN:305,_RNCNCNvNtNtNtCsiqn6J3Zmf7c_18timekeeper_backend8handlers5admin5users21restore_archived_user0s0_0Bb_
FN:300,_RNCNCNvNtNtNtCsiqn6J3Zmf7c_18timekeeper_backend8handlers5admin5users21restore_archived_user0s_0Bb_
FN:30,_RNCNCNvNtNtNtCsiqn6J3Zmf7c_18timekeeper_backend8handlers5admin5users9get_users00Bb_
FN:40,_RNCNvNtNtNtCsiqn6J3Zmf7c_18timekeeper_backend8handlers5admin5users11create_user0B9_
FN:184,_RNCNvNtNtNtCsiqn6J3Zmf7c_18timekeeper_backend8handlers5admin5users11delete_user0B9_
FN:88,_RNCNvNtNtNtCsiqn6J3Zmf7c_18timekeeper_backend8handlers5admin5users11update_user0B9_
FN:146,_RNCNvNtNtNtCsiqn6J3Zmf7c_18timekeeper_backend8handlers5admin5users14reset_user_mfa0B9_
FN:256,_RNCNvNtNtNtCsiqn6J3Zmf7c_18timekeeper_backend8handlers5admin5users18get_archived_users0B9_
FN:332,_RNCNvNtNtNtCsiqn6J3Zmf7c_18timekeeper_backend8handlers5admin5users20delete_archived_user0B9_
FN:285,_RNCNvNtNtNtCsiqn6J3Zmf7c_18timekeeper_backend8handlers5admin5users21restore_archived_user0B9_
FN:23,_RNCNvNtNtNtCsiqn6J3Zmf7c_18timekeeper_backend8handlers5admin5users9get_users0B9_
FN:36,_RNvNtNtNtCs86yVScfUyun_18timekeeper_backend8handlers5admin5users11create_user
FN:179,_RNvNtNtNtCs86yVScfUyun_18timekeeper_backend8handlers5admin5users11delete_user
FN:83,_RNvNtNtNtCs86yVScfUyun_18timekeeper_backend8handlers5admin5users11update_user
FN:142,_RNvNtNtNtCs86yVScfUyun_18timekeeper_backend8handlers5admin5users14reset_user_mfa
FN:253,_RNvNtNtNtCs86yVScfUyun_18timekeeper_backend8handlers5admin5users18get_archived_users
FN:328,_RNvNtNtNtCs86yVScfUyun_18timekeeper_backend8handlers5admin5users20delete_archived_user
FN:281,_RNvNtNtNtCs86yVScfUyun_18timekeeper_backend8handlers5admin5users21restore_archived_user
FN:20,_RNvNtNtNtCs86yVScfUyun_18timekeeper_backend8handlers5admin5users9get_users
FN:46,_RNCNCNvNtNtNtCs86yVScfUyun_18timekeeper_backend8handlers5admin5users11create_user00Bb_
FN:57,_RNCNCNvNtNtNtCs86yVScfUyun_18timekeeper_backend8handlers5admin5users11create_user0s0_0Bb_
FN:59,_RNCNCNvNtNtNtCs86yVScfUyun_18timekeeper_backend8handlers5admin5users11create_user0s1_0Bb_
FN:62,_RNCNCNvNtNtNtCs86yVScfUyun_18timekeeper_backend8handlers5admin5users11create_user0s2_0Bb_
FN:77,_RNCNCNvNtNtNtCs86yVScfUyun_18timekeeper_backend8handlers5admin5users11create_user0s3_0Bb_
FN:51,_RNCNCNvNtNtNtCs86yVScfUyun_18timekeeper_backend8handlers5admin5users11create_user0s_0Bb_
FN:190,_RNCNCNvNtNtNtCs86yVScfUyun_18timekeeper_backend8handlers5admin5users11delete_user00Bb_
FN:206,_RNCNCNvNtNtNtCs86yVScfUyun_18timekeeper_backend8handlers5admin5users11delete_user0s0_0Bb_
FN:198,_RNCNCNvNtNtNtCs86yVScfUyun_18timekeeper_backend8handlers5admin5users11delete_user0s_0Bb_
FN:95,_RNCNCNvNtNtNtCs86yVScfUyun_18timekeeper_backend8handlers5admin5users11update_user00Bb_
FN:100,_RNCNCNvNtNtNtCs86yVScfUyun_18timekeeper_backend8handlers5admin5users11update_user0s0_0Bb_
FN:109,_RNCNCNvNtNtNtCs86yVScfUyun_18timekeeper_backend8handlers5admin5users11update_user0s1_0Bb_
FN:132,_RNCNCNvNtNtNtCs86yVScfUyun_18timekeeper_backend8handlers5admin5users11update_user0s2_0Bb_
FN:99,_RNCNCNvNtNtNtCs86yVScfUyun_18timekeeper_backend8handlers5admin5users11update_user0s_0Bb_
FN:154,_RNCNCNvNtNtNtCs86yVScfUyun_18timekeeper_backend8handlers5admin5users14reset_user_mfa00Bb_
FN:165,_RNCNCNvNtNtNtCs86yVScfUyun_18timekeeper_backend8handlers5admin5users14reset_user_mfa0s0_0Bb_
FN:161,_RNCNCNvNtNtNtCs86yVScfUyun_18timekeeper_backend8handlers5admin5users14reset_user_mfa0s_0Bb_
FN:263,_RNCNCNvNtNtNtCs86yVScfUyun_18timekeeper_backend8handlers5admin5users18get_archived_users00Bb_
FN:268,_RNCNCNvNtNtNtCs86yVScfUyun_18timekeeper_backend8handlers5admin5users18get_archived_users0s_0Bb_
FN:339,_RNCNCNvNtNtNtCs86yVScfUyun_18timekeeper_backend8handlers5admin5users20delete_archived_user00Bb_
FN:347,_RNCNCNvNtNtNtCs86yVScfUyun_18timekeeper_backend8handlers5admin5users20delete_archived_user0s_0Bb_
FN:292,_RNCNCNvNtNtNtCs86yVScfUyun_18timekeeper_backend8handlers5admin5users21restore_archived_user00Bb_
FN:305,_RNCNCNvNtNtNtCs86yVScfUyun_18timekeeper_backend8handlers5admin5users21restore_archived_user0s0_0Bb_
FN:300,_RNCNCNvNtNtNtCs86yVScfUyun_18timekeeper_backend8handlers5admin5users21restore_archived_user0s_0Bb_
FN:30,_RNCNCNvNtNtNtCs86yVScfUyun_18timekeeper_backend8handlers5admin5users9get_users00Bb_
FN:40,_RNCNvNtNtNtCs86yVScfUyun_18timekeeper_backend8handlers5admin5users11create_user0B9_
FN:184,_RNCNvNtNtNtCs86yVScfUyun_18timekeeper_backend8handlers5admin5users11delete_user0B9_
FN:88,_RNCNvNtNtNtCs86yVScfUyun_18timekeeper_backend8handlers5admin5users11update_user0B9_
FN:146,_RNCNvNtNtNtCs86yVScfUyun_18timekeeper_backend8handlers5admin5users14reset_user_mfa0B9_
FN:256,_RNCNvNtNtNtCs86yVScfUyun_18timekeeper_backend8handlers5admin5users18get_archived_users0B9_
FN:332,_RNCNvNtNtNtCs86yVScfUyun_18timekeeper_backend8handlers5admin5users20delete_archived_user0B9_
FN:285,_RNCNvNtNtNtCs86yVScfUyun_18timekeeper_backend8handlers5admin5users21restore_archived_user0B9_
FN:23,_RNCNvNtNtNtCs86yVScfUyun_18timekeeper_backend8handlers5admin5users9get_users0B9_
FN:425,_RNvNtNtNtNtCs86yVScfUyun_18timekeeper_backend8handlers5admin5users5testss_26test_user_id_parsing_valid
FN:441,_RNvNtNtNtNtCs86yVScfUyun_18timekeeper_backend8handlers5admin5users5testss_26test_user_role_admin_check
FN:434,_RNvNtNtNtNtCs86yVScfUyun_18timekeeper_backend8handlers5admin5users5testss_28test_user_id_parsing_invalid
FN:487,_RNvNtNtNtNtCs86yVScfUyun_18timekeeper_backend8handlers5admin5users5testss_29test_user_role_employee_check
FN:378,_RNvNtNtNtNtCs86yVScfUyun_18timekeeper_backend8handlers5admin5users5testss_31test_delete_user_params_default
FN:370,_RNvNtNtNtNtCs86yVScfUyun_18timekeeper_backend8handlers5admin5users5testss_32test_reset_mfa_payload_structure
FN:464,_RNvNtNtNtNtCs86yVScfUyun_18timekeeper_backend8handlers5admin5users5testss_33test_user_role_system_admin_check
FN:384,_RNvNtNtNtNtCs86yVScfUyun_18timekeeper_backend8handlers5admin5users5testss_35test_delete_user_params_hard_delete
FN:390,_RNvNtNtNtNtCs86yVScfUyun_18timekeeper_backend8handlers5admin5users5testss_37test_archived_user_response_structure
FN:410,_RNvNtNtNtNtCs86yVScfUyun_18timekeeper_backend8handlers5admin5users5testss_47test_archived_user_response_without_archived_by
FNDA:3,_RNvNtNtNtCs2oPl7zguF9n_18timekeeper_backend8handlers5admin5users11create_user
FNDA:1,_RNvNtNtNtCs2oPl7zguF9n_18timekeeper_backend8handlers5admin5users11delete_user
FNDA:3,_RNvNtNtNtCs2oPl7zguF9n_18timekeeper_backend8handlers5admin5users11update_user
FNDA:1,_RNvNtNtNtCs2oPl7zguF9n_18timekeeper_backend8handlers5admin5users14reset_user_mfa
FNDA:0,_RNvNtNtNtCs2oPl7zguF9n_18timekeeper_backend8handlers5admin5users18get_archived_users
FNDA:0,_RNvNtNtNtCs2oPl7zguF9n_18timekeeper_backend8handlers5admin5users20delete_archived_user
FNDA:0,_RNvNtNtNtCs2oPl7zguF9n_18timekeeper_backend8handlers5admin5users21restore_archived_user
FNDA:2,_RNvNtNtNtCs2oPl7zguF9n_18timekeeper_backend8handlers5admin5users9get_users
FNDA:0,_RNCNCNvNtNtNtCs2oPl7zguF9n_18timekeeper_backend8handlers5admin5users11create_user00Bb_
FNDA:1,_RNCNCNvNtNtNtCs2oPl7zguF9n_18timekeeper_backend8handlers5admin5users11create_user0s0_0Bb_
FNDA:0,_RNCNCNvNtNtNtCs2oPl7zguF9n_18timekeeper_backend8handlers5admin5users11create_user0s1_0Bb_
FNDA:0,_RNCNCNvNtNtNtCs2oPl7zguF9n_18timekeeper_backend8handlers5admin5users11create_user0s2_0Bb_
FNDA:0,_RNCNCNvNtNtNtCs2oPl7zguF9n_18timekeeper_backend8handlers5admin5users11create_user0s3_0Bb_
FNDA:0,_RNCNCNvNtNtNtCs2oPl7zguF9n_18timekeeper_backend8handlers5admin5users11create_user0s_0Bb_
FNDA:0,_RNCNCNvNtNtNtCs2oPl7zguF9n_18timekeeper_backend8handlers5admin5users11delete_user00Bb_
FNDA:0,_RNCNCNvNtNtNtCs2oPl7zguF9n_18timekeeper_backend8handlers5admin5users11delete_user0s0_0Bb_
FNDA:0,_RNCNCNvNtNtNtCs2oPl7zguF9n_18timekeeper_backend8handlers5admin5users11delete_user0s_0Bb_
FNDA:1,_RNCNCNvNtNtNtCs2oPl7zguF9n_18timekeeper_backend8handlers5admin5users11update_user00Bb_
FNDA:0,_RNCNCNvNtNtNtCs2oPl7zguF9n_18timekeeper_backend8handlers5admin5users11update_user0s0_0Bb_
FNDA:0,_RNCNCNvNtNtNtCs2oPl7zguF9n_18timekeeper_backend8handlers5admin5users11update_user0s1_0Bb_
FNDA:0,_RNCNCNvNtNtNtCs2oPl7zguF9n_18timekeeper_backend8handlers5admin5users11update_user0s2_0Bb_
FNDA:0,_RNCNCNvNtNtNtCs2oPl7zguF9n_18timekeeper_backend8handlers5admin5users11update_user0s_0Bb_
FNDA:0,_RNCNCNvNtNtNtCs2oPl7zguF9n_18timekeeper_backend8handlers5admin5users14reset_user_mfa00Bb_
FNDA:0,_RNCNCNvNtNtNtCs2oPl7zguF9n_18timekeeper_backend8handlers5admin5users14reset_user_mfa0s0_0Bb_
FNDA:0,_RNCNCNvNtNtNtCs2oPl7zguF9n_18timekeeper_backend8handlers5admin5users14reset_user_mfa0s_0Bb_
FNDA:0,_RNCNCNvNtNtNtCs2oPl7zguF9n_18timekeeper_backend8handlers5admin5users18get_archived_users00Bb_
FNDA:0,_RNCNCNvNtNtNtCs2oPl7zguF9n_18timekeeper_backend8handlers5admin5users18get_archived_users0s_0Bb_
FNDA:0,_RNCNCNvNtNtNtCs2oPl7zguF9n_18timekeeper_backend8handlers5admin5users20delete_archived_user00Bb_
FNDA:0,_RNCNCNvNtNtNtCs2oPl7zguF9n_18timekeeper_backend8handlers5admin5users20delete_archived_user0s_0Bb_
FNDA:0,_RNCNCNvNtNtNtCs2oPl7zguF9n_18timekeeper_backend8handlers5admin5users21restore_archived_user00Bb_
FNDA:0,_RNCNCNvNtNtNtCs2oPl7zguF9n_18timekeeper_backend8handlers5admin5users21restore_archived_user0s0_0Bb_
FNDA:0,_RNCNCNvNtNtNtCs2oPl7zguF9n_18timekeeper_backend8handlers5admin5users21restore_archived_user0s_0Bb_
FNDA:0,_RNCNCNvNtNtNtCs2oPl7zguF9n_18timekeeper_backend8handlers5admin5users9get_users00Bb_
FNDA:3,_RNCNvNtNtNtCs2oPl7zguF9n_18timekeeper_backend8handlers5admin5users11create_user0B9_
FNDA:1,_RNCNvNtNtNtCs2oPl7zguF9n_18timekeeper_backend8handlers5admin5users11delete_user0B9_
FNDA:3,_RNCNvNtNtNtCs2oPl7zguF9n_18timekeeper_backend8handlers5admin5users11update_user0B9_
FNDA:1,_RNCNvNtNtNtCs2oPl7zguF9n_18timekeeper_backend8handlers5admin5users14reset_user_mfa0B9_
FNDA:0,_RNCNvNtNtNtCs2oPl7zguF9n_18timekeeper_backend8handlers5admin5users18get_archived_users0B9_
FNDA:0,_RNCNvNtNtNtCs2oPl7zguF9n_18timekeeper_backend8handlers5admin5users20delete_archived_user0B9_
FNDA:0,_RNCNvNtNtNtCs2oPl7zguF9n_18timekeeper_backend8handlers5admin5users21restore_archived_user0B9_
FNDA:2,_RNCNvNtNtNtCs2oPl7zguF9n_18timekeeper_backend8handlers5admin5users9get_users0B9_
FNDA:0,_RNvNtNtNtCsjEFxG0ag9NF_18timekeeper_backend8handlers5admin5users11create_user
FNDA:0,_RNvNtNtNtCsjEFxG0ag9NF_18timekeeper_backend8handlers5admin5users11delete_user
FNDA:0,_RNvNtNtNtCsjEFxG0ag9NF_18timekeeper_backend8handlers5admin5users11update_user
FNDA:0,_RNvNtNtNtCsjEFxG0ag9NF_18timekeeper_backend8handlers5admin5users14reset_user_mfa
FNDA:0,_RNvNtNtNtCsjEFxG0ag9NF_18timekeeper_backend8handlers5admin5users18get_archived_users
FNDA:0,_RNvNtNtNtCsjEFxG0ag9NF_18timekeeper_backend8handlers5admin5users20delete_archived_user
FNDA:0,_RNvNtNtNtCsjEFxG0ag9NF_18timekeeper_backend8handlers5admin5users21restore_archived_user
FNDA:0,_RNvNtNtNtCsjEFxG0ag9NF_18timekeeper_backend8handlers5admin5users9get_users
FNDA:0,_RNCNCNvNtNtNtCsjEFxG0ag9NF_18timekeeper_backend8handlers5admin5users11create_user00Bb_
FNDA:0,_RNCNCNvNtNtNtCsjEFxG0ag9NF_18timekeeper_backend8handlers5admin5users11create_user0s0_0Bb_
FNDA:0,_RNCNCNvNtNtNtCsjEFxG0ag9NF_18timekeeper_backend8handlers5admin5users11create_user0s1_0Bb_
FNDA:0,_RNCNCNvNtNtNtCsjEFxG0ag9NF_18timekeeper_backend8handlers5admin5users11create_user0s2_0Bb_
FNDA:0,_RNCNCNvNtNtNtCsjEFxG0ag9NF_18timekeeper_backend8handlers5admin5users11create_user0s3_0Bb_
FNDA:0,_RNCNCNvNtNtNtCsjEFxG0ag9NF_18timekeeper_backend8handlers5admin5users11create_user0s_0Bb_
FNDA:0,_RNCNCNvNtNtNtCsjEFxG0ag9NF_18timekeeper_backend8handlers5admin5users11delete_user00Bb_
FNDA:0,_RNCNCNvNtNtNtCsjEFxG0ag9NF_18timekeeper_backend8handlers5admin5users11delete_user0s0_0Bb_
FNDA:0,_RNCNCNvNtNtNtCsjEFxG0ag9NF_18timekeeper_backend8handlers5admin5users11delete_user0s_0Bb_
FNDA:0,_RNCNCNvNtNtNtCsjEFxG0ag9NF_18timekeeper_backend8handlers5admin5users11update_user00Bb_
FNDA:0,_RNCNCNvNtNtNtCsjEFxG0ag9NF_18timekeeper_backend8handlers5admin5users11update_user0s0_0Bb_
FNDA:0,_RNCNCNvNtNtNtCsjEFxG0ag9NF_18timekeeper_backend8handlers5admin5users11update_user0s1_0Bb_
FNDA:0,_RNCNCNvNtNtNtCsjEFxG0ag9NF_18timekeeper_backend8handlers5admin5users11update_user0s2_0Bb_
FNDA:0,_RNCNCNvNtNtNtCsjEFxG0ag9NF_18timekeeper_backend8handlers5admin5users11update_user0s_0Bb_
FNDA:0,_RNCNCNvNtNtNtCsjEFxG0ag9NF_18timekeeper_backend8handlers5admin5users14reset_user_mfa00Bb_
FNDA:0,_RNCNCNvNtNtNtCsjEFxG0ag9NF_18timekeeper_backend8handlers5admin5users14reset_user_mfa0s0_0Bb_
FNDA:0,_RNCNCNvNtNtNtCsjEFxG0ag9NF_18timekeeper_backend8handlers5admin5users14reset_user_mfa0s_0Bb_
FNDA:0,_RNCNCNvNtNtNtCsjEFxG0ag9NF_18timekeeper_backend8handlers5admin5users18get_archived_users00Bb_
FNDA:0,_RNCNCNvNtNtNtCsjEFxG0ag9NF_18timekeeper_backend8handlers5admin5users18get_archived_users0s_0Bb_
FNDA:0,_RNCNCNvNtNtNtCsjEFxG0ag9NF_18timekeeper_backend8handlers5admin5users20delete_archived_user00Bb_
FNDA:0,_RNCNCNvNtNtNtCsjEFxG0ag9NF_18timekeeper_backend8handlers5admin5users20delete_archived_user0s_0Bb_
FNDA:0,_RNCNCNvNtNtNtCsjEFxG0ag9NF_18timekeeper_backend8handlers5admin5users21restore_archived_user00Bb_
FNDA:0,_RNCNCNvNtNtNtCsjEFxG0ag9NF_18timekeeper_backend8handlers5admin5users21restore_archived_user0s0_0Bb_
FNDA:0,_RNCNCNvNtNtNtCsjEFxG0ag9NF_18timekeeper_backend8handlers5admin5users21restore_archived_user0s_0Bb_
FNDA:0,_RNCNCNvNtNtNtCsjEFxG0ag9NF_18timekeeper_backend8handlers5admin5users9get_users00Bb_
FNDA:0,_RNCNvNtNtNtCsjEFxG0ag9NF_18timekeeper_backend8handlers5admin5users11create_user0B9_
FNDA:0,_RNCNvNtNtNtCsjEFxG0ag9NF_18timekeeper_backend8handlers5admin5users11delete_user0B9_
FNDA:0,_RNCNvNtNtNtCsjEFxG0ag9NF_18timekeeper_backend8handlers5admin5users11update_user0B9_
FNDA:0,_RNCNvNtNtNtCsjEFxG0ag9NF_18timekeeper_backend8handlers5admin5users14reset_user_mfa0B9_
FNDA:0,_RNCNvNtNtNtCsjEFxG0ag9NF_18timekeeper_backend8handlers5admin5users18get_archived_users0B9_
FNDA:0,_RNCNvNtNtNtCsjEFxG0ag9NF_18timekeeper_backend8handlers5admin5users20delete_archived_user0B9_
FNDA:0,_RNCNvNtNtNtCsjEFxG0ag9NF_18timekeeper_backend8handlers5admin5users21restore_archived_user0B9_
FNDA:0,_RNCNvNtNtNtCsjEFxG0ag9NF_18timekeeper_backend8handlers5admin5users9get_users0B9_
FNDA:1,_RNvNtNtNtNtCsjEFxG0ag9NF_18timekeeper_backend8handlers5admin5users5testss_26test_user_id_parsing_valid
FNDA:1,_RNvNtNtNtNtCsjEFxG0ag9NF_18timekeeper_backend8handlers5admin5users5testss_26test_user_role_admin_check
FNDA:1,_RNvNtNtNtNtCsjEFxG0ag9NF_18timekeeper_backend8handlers5admin5users5testss_28test_user_id_parsing_invalid
FNDA:1,_RNvNtNtNtNtCsjEFxG0ag9NF_18timekeeper_backend8handlers5admin5users5testss_29test_user_role_employee_check
FNDA:1,_RNvNtNtNtNtCsjEFxG0ag9NF_18timekeeper_backend8handlers5admin5users5testss_31test_delete_user_params_default
FNDA:1,_RNvNtNtNtNtCsjEFxG0ag9NF_18timekeeper_backend8handlers5admin5users5testss_32test_reset_mfa_payload_structure
FNDA:1,_RNvNtNtNtNtCsjEFxG0ag9NF_18timekeeper_backend8handlers5admin5users5testss_33test_user_role_system_admin_check
FNDA:1,_RNvNtNtNtNtCsjEFxG0ag9NF_18timekeeper_backend8handlers5admin5users5testss_35test_delete_user_params_hard_delete
FNDA:1,_RNvNtNtNtNtCsjEFxG0ag9NF_18timekeeper_backend8handlers5admin5users5testss_37test_archived_user_response_structure
FNDA:1,_RNvNtNtNtNtCsjEFxG0ag9NF_18timekeeper_backend8handlers5admin5users5testss_47test_archived_user_response_without_archived_by
FNDA:0,_RNvNtNtNtCsiqn6J3Zmf7c_18timekeeper_backend8handlers5admin5users11create_user
FNDA:0,_RNvNtNtNtCsiqn6J3Zmf7c_18timekeeper_backend8handlers5admin5users11delete_user
FNDA:0,_RNvNtNtNtCsiqn6J3Zmf7c_18timekeeper_backend8handlers5admin5users11update_user
FNDA:0,_RNvNtNtNtCsiqn6J3Zmf7c_18timekeeper_backend8handlers5admin5users14reset_user_mfa
FNDA:0,_RNvNtNtNtCsiqn6J3Zmf7c_18timekeeper_backend8handlers5admin5users18get_archived_users
FNDA:0,_RNvNtNtNtCsiqn6J3Zmf7c_18timekeeper_backend8handlers5admin5users20delete_archived_user
FNDA:0,_RNvNtNtNtCsiqn6J3Zmf7c_18timekeeper_backend8handlers5admin5users21restore_archived_user
FNDA:0,_RNvNtNtNtCsiqn6J3Zmf7c_18timekeeper_backend8handlers5admin5users9get_users
FNDA:0,_RNCNCNvNtNtNtCsiqn6J3Zmf7c_18timekeeper_backend8handlers5admin5users11create_user00Bb_
FNDA:0,_RNCNCNvNtNtNtCsiqn6J3Zmf7c_18timekeeper_backend8handlers5admin5users11create_user0s0_0Bb_
FNDA:0,_RNCNCNvNtNtNtCsiqn6J3Zmf7c_18timekeeper_backend8handlers5admin5users11create_user0s1_0Bb_
FNDA:0,_RNCNCNvNtNtNtCsiqn6J3Zmf7c_18timekeeper_backend8handlers5admin5users11create_user0s2_0Bb_
FNDA:0,_RNCNCNvNtNtNtCsiqn6J3Zmf7c_18timekeeper_backend8handlers5admin5users11create_user0s3_0Bb_
FNDA:0,_RNCNCNvNtNtNtCsiqn6J3Zmf7c_18timekeeper_backend8handlers5admin5users11create_user0s_0Bb_
FNDA:0,_RNCNCNvNtNtNtCsiqn6J3Zmf7c_18timekeeper_backend8handlers5admin5users11delete_user00Bb_
FNDA:0,_RNCNCNvNtNtNtCsiqn6J3Zmf7c_18timekeeper_backend8handlers5admin5users11delete_user0s0_0Bb_
FNDA:0,_RNCNCNvNtNtNtCsiqn6J3Zmf7c_18timekeeper_backend8handlers5admin5users11delete_user0s_0Bb_
FNDA:0,_RNCNCNvNtNtNtCsiqn6J3Zmf7c_18timekeeper_backend8handlers5admin5users11update_user00Bb_
FNDA:0,_RNCNCNvNtNtNtCsiqn6J3Zmf7c_18timekeeper_backend8handlers5admin5users11update_user0s0_0Bb_
FNDA:0,_RNCNCNvNtNtNtCsiqn6J3Zmf7c_18timekeeper_backend8handlers5admin5users11update_user0s1_0Bb_
FNDA:0,_RNCNCNvNtNtNtCsiqn6J3Zmf7c_18timekeeper_backend8handlers5admin5users11update_user0s2_0Bb_
FNDA:0,_RNCNCNvNtNtNtCsiqn6J3Zmf7c_18timekeeper_backend8handlers5admin5users11update_user0s_0Bb_
FNDA:0,_RNCNCNvNtNtNtCsiqn6J3Zmf7c_18timekeeper_backend8handlers5admin5users14reset_user_mfa00Bb_
FNDA:0,_RNCNCNvNtNtNtCsiqn6J3Zmf7c_18timekeeper_backend8handlers5admin5users14reset_user_mfa0s0_0Bb_
FNDA:0,_RNCNCNvNtNtNtCsiqn6J3Zmf7c_18timekeeper_backend8handlers5admin5users14reset_user_mfa0s_0Bb_
FNDA:0,_RNCNCNvNtNtNtCsiqn6J3Zmf7c_18timekeeper_backend8handlers5admin5users18get_archived_users00Bb_
FNDA:0,_RNCNCNvNtNtNtCsiqn6J3Zmf7c_18timekeeper_backend8handlers5admin5users18get_archived_users0s_0Bb_
FNDA:0,_RNCNCNvNtNtNtCsiqn6J3Zmf7c_18timekeeper_backend8handlers5admin5users20delete_archived_user00Bb_
FNDA:0,_RNCNCNvNtNtNtCsiqn6J3Zmf7c_18timekeeper_backend8handlers5admin5users20delete_archived_user0s_0Bb_
FNDA:0,_RNCNCNvNtNtNtCsiqn6J3Zmf7c_18timekeeper_backend8handlers5admin5users21restore_archived_user00Bb_
FNDA:0,_RNCNCNvNtNtNtCsiqn6J3Zmf7c_18timekeeper_backend8handlers5admin5users21restore_archived_user0s0_0Bb_
FNDA:0,_RNCNCNvNtNtNtCsiqn6J3Zmf7c_18timekeeper_backend8handlers5admin5users21restore_archived_user0s_0Bb_
FNDA:0,_RNCNCNvNtNtNtCsiqn6J3Zmf7c_18timekeeper_backend8handlers5admin5users9get_users00Bb_
FNDA:0,_RNCNvNtNtNtCsiqn6J3Zmf7c_18timekeeper_backend8handlers5admin5users11create_user0B9_
FNDA:0,_RNCNvNtNtNtCsiqn6J3Zmf7c_18timekeeper_backend8handlers5admin5users11delete_user0B9_
FNDA:0,_RNCNvNtNtNtCsiqn6J3Zmf7c_18timekeeper_backend8handlers5admin5users11update_user0B9_
FNDA:0,_RNCNvNtNtNtCsiqn6J3Zmf7c_18timekeeper_backend8handlers5admin5users14reset_user_mfa0B9_
FNDA:0,_RNCNvNtNtNtCsiqn6J3Zmf7c_18timekeeper_backend8handlers5admin5users18get_archived_users0B9_
FNDA:0,_RNCNvNtNtNtCsiqn6J3Zmf7c_18timekeeper_backend8handlers5admin5users20delete_archived_user0B9_
FNDA:0,_RNCNvNtNtNtCsiqn6J3Zmf7c_18timekeeper_backend8handlers5admin5users21restore_archived_user0B9_
FNDA:0,_RNCNvNtNtNtCsiqn6J3Zmf7c_18timekeeper_backend8handlers5admin5users9get_users0B9_
FNDA:0,_RNvNtNtNtCs86yVScfUyun_18timekeeper_backend8handlers5admin5users11create_user
FNDA:0,_RNvNtNtNtCs86yVScfUyun_18timekeeper_backend8handlers5admin5users11delete_user
FNDA:0,_RNvNtNtNtCs86yVScfUyun_18timekeeper_backend8handlers5admin5users11update_user
FNDA:0,_RNvNtNtNtCs86yVScfUyun_18timekeeper_backend8handlers5admin5users14reset_user_mfa
FNDA:0,_RNvNtNtNtCs86yVScfUyun_18timekeeper_backend8handlers5admin5users18get_archived_users
FNDA:0,_RNvNtNtNtCs86yVScfUyun_18timekeeper_backend8handlers5admin5users20delete_archived_user
FNDA:0,_RNvNtNtNtCs86yVScfUyun_18timekeeper_backend8handlers5admin5users21restore_archived_user
FNDA:0,_RNvNtNtNtCs86yVScfUyun_18timekeeper_backend8handlers5admin5users9get_users
FNDA:0,_RNCNCNvNtNtNtCs86yVScfUyun_18timekeeper_backend8handlers5admin5users11create_user00Bb_
FNDA:0,_RNCNCNvNtNtNtCs86yVScfUyun_18timekeeper_backend8handlers5admin5users11create_user0s0_0Bb_
FNDA:0,_RNCNCNvNtNtNtCs86yVScfUyun_18timekeeper_backend8handlers5admin5users11create_user0s1_0Bb_
FNDA:0,_RNCNCNvNtNtNtCs86yVScfUyun_18timekeeper_backend8handlers5admin5users11create_user0s2_0Bb_
FNDA:0,_RNCNCNvNtNtNtCs86yVScfUyun_18timekeeper_backend8handlers5admin5users11create_user0s3_0Bb_
FNDA:0,_RNCNCNvNtNtNtCs86yVScfUyun_18timekeeper_backend8handlers5admin5users11create_user0s_0Bb_
FNDA:0,_RNCNCNvNtNtNtCs86yVScfUyun_18timekeeper_backend8handlers5admin5users11delete_user00Bb_
FNDA:0,_RNCNCNvNtNtNtCs86yVScfUyun_18timekeeper_backend8handlers5admin5users11delete_user0s0_0Bb_
FNDA:0,_RNCNCNvNtNtNtCs86yVScfUyun_18timekeeper_backend8handlers5admin5users11delete_user0s_0Bb_
FNDA:0,_RNCNCNvNtNtNtCs86yVScfUyun_18timekeeper_backend8handlers5admin5users11update_user00Bb_
FNDA:0,_RNCNCNvNtNtNtCs86yVScfUyun_18timekeeper_backend8handlers5admin5users11update_user0s0_0Bb_
FNDA:0,_RNCNCNvNtNtNtCs86yVScfUyun_18timekeeper_backend8handlers5admin5users11update_user0s1_0Bb_
FNDA:0,_RNCNCNvNtNtNtCs86yVScfUyun_18timekeeper_backend8handlers5admin5users11update_user0s2_0Bb_
FNDA:0,_RNCNCNvNtNtNtCs86yVScfUyun_18timekeeper_backend8handlers5admin5users11update_user0s_0Bb_
FNDA:0,_RNCNCNvNtNtNtCs86yVScfUyun_18timekeeper_backend8handlers5admin5users14reset_user_mfa00Bb_
FNDA:0,_RNCNCNvNtNtNtCs86yVScfUyun_18timekeeper_backend8handlers5admin5users14reset_user_mfa0s0_0Bb_
FNDA:0,_RNCNCNvNtNtNtCs86yVScfUyun_18timekeeper_backend8handlers5admin5users14reset_user_mfa0s_0Bb_
FNDA:0,_RNCNCNvNtNtNtCs86yVScfUyun_18timekeeper_backend8handlers5admin5users18get_archived_users00Bb_
FNDA:0,_RNCNCNvNtNtNtCs86yVScfUyun_18timekeeper_backend8handlers5admin5users18get_archived_users0s_0Bb_
FNDA:0,_RNCNCNvNtNtNtCs86yVScfUyun_18timekeeper_backend8handlers5admin5users20delete_archived_user00Bb_
FNDA:0,_RNCNCNvNtNtNtCs86yVScfUyun_18timekeeper_backend8handlers5admin5users20delete_archived_user0s_0Bb_
FNDA:0,_RNCNCNvNtNtNtCs86yVScfUyun_18timekeeper_backend8handlers5admin5users21restore_archived_user00Bb_
FNDA:0,_RNCNCNvNtNtNtCs86yVScfUyun_18timekeeper_backend8handlers5admin5users21restore_archived_user0s0_0Bb_
FNDA:0,_RNCNCNvNtNtNtCs86yVScfUyun_18timekeeper_backend8handlers5admin5users21restore_archived_user0s_0Bb_
FNDA:0,_RNCNCNvNtNtNtCs86yVScfUyun_18timekeeper_backend8handlers5admin5users9get_users00Bb_
FNDA:0,_RNCNvNtNtNtCs86yVScfUyun_18timekeeper_backend8handlers5admin5users11create_user0B9_
FNDA:0,_RNCNvNtNtNtCs86yVScfUyun_18timekeeper_backend8handlers5admin5users11delete_user0B9_
FNDA:0,_RNCNvNtNtNtCs86yVScfUyun_18timekeeper_backend8handlers5admin5users11update_user0B9_
FNDA:0,_RNCNvNtNtNtCs86yVScfUyun_18timekeeper_backend8handlers5admin5users14reset_user_mfa0B9_
FNDA:0,_RNCNvNtNtNtCs86yVScfUyun_18timekeeper_backend8handlers5admin5users18get_archived_users0B9_
FNDA:0,_RNCNvNtNtNtCs86yVScfUyun_18timekeeper_backend8handlers5admin5users20delete_archived_user0B9_
FNDA:0,_RNCNvNtNtNtCs86yVScfUyun_18timekeeper_backend8handlers5admin5users21restore_archived_user0B9_
FNDA:0,_RNCNvNtNtNtCs86yVScfUyun_18timekeeper_backend8handlers5admin5users9get_users0B9_
FNDA:1,_RNvNtNtNtNtCs86yVScfUyun_18timekeeper_backend8handlers5admin5users5testss_26test_user_id_parsing_valid
FNDA:1,_RNvNtNtNtNtCs86yVScfUyun_18timekeeper_backend8handlers5admin5users5testss_26test_user_role_admin_check
FNDA:1,_RNvNtNtNtNtCs86yVScfUyun_18timekeeper_backend8handlers5admin5users5testss_28test_user_id_parsing_invalid
FNDA:1,_RNvNtNtNtNtCs86yVScfUyun_18timekeeper_backend8handlers5admin5users5testss_29test_user_role_employee_check
FNDA:1,_RNvNtNtNtNtCs86yVScfUyun_18timekeeper_backend8handlers5admin5users5testss_31test_delete_user_params_default
FNDA:1,_RNvNtNtNtNtCs86yVScfUyun_18timekeeper_backend8handlers5admin5users5testss_32test_reset_mfa_payload_structure
FNDA:1,_RNvNtNtNtNtCs86yVScfUyun_18timekeeper_backend8handlers5admin5users5testss_33test_user_role_system_admin_check
FNDA:1,_RNvNtNtNtNtCs86yVScfUyun_18timekeeper_backend8handlers5admin5users5testss_35test_delete_user_params_hard_delete
FNDA:1,_RNvNtNtNtNtCs86yVScfUyun_18timekeeper_backend8handlers5admin5users5testss_37test_archived_user_response_structure
FNDA:1,_RNvNtNtNtNtCs86yVScfUyun_18timekeeper_backend8handlers5admin5users5testss_47test_archived_user_response_without_archived_by
FNF:51
FNH:22
DA:20,2
DA:21,2
DA:22,2
DA:23,2
DA:24,2
DA:25,1
DA:26,1
DA:28,1
DA:29,1
DA:30,1
DA:32,1
DA:33,1
DA:34,2
DA:36,3
DA:37,3
DA:38,3
DA:39,3
DA:40,3
DA:41,3
DA:42,1
DA:43,2
DA:44,2
DA:45,1
DA:46,1
DA:49,1
DA:50,1
DA:51,1
DA:53,0
DA:54,1
DA:56,1
DA:57,1
DA:58,1
DA:59,1
DA:60,0
DA:61,0
DA:62,1
DA:63,0
DA:64,0
DA:66,1
DA:67,1
DA:68,1
DA:69,1
DA:70,1
DA:71,1
DA:72,1
DA:75,1
DA:76,1
DA:77,1
DA:79,1
DA:80,1
DA:81,3
DA:83,3
DA:84,3
DA:85,3
DA:86,3
DA:87,3
DA:88,3
DA:89,3
DA:90,0
DA:91,3
DA:92,3
DA:94,2
DA:95,3
DA:97,2
DA:98,2
DA:99,2
DA:100,2
DA:102,2
DA:103,1
DA:104,1
DA:105,1
DA:106,1
DA:107,1
DA:108,1
DA:109,1
DA:111,1
DA:112,1
DA:113,0
DA:114,1
DA:116,1
DA:117,1
DA:118,1
DA:119,1
DA:120,1
DA:121,1
DA:123,1
DA:124,1
DA:125,1
DA:126,1
DA:127,1
DA:128,1
DA:129,1
DA:130,1
DA:131,1
DA:132,1
DA:134,1
DA:135,3
DA:142,1
DA:143,1
DA:144,1
DA:145,1
DA:146,1
DA:147,1
DA:148,1
DA:149,1
DA:150,1
DA:151,0
DA:152,0
DA:153,0
DA:154,0
DA:156,0
DA:157,0
DA:158,0
DA:160,0
DA:161,0
DA:163,0
DA:164,0
DA:165,0
DA:167,0
DA:168,0
DA:169,0
DA:170,0
DA:171,1
DA:179,1
DA:180,1
DA:181,1
DA:182,1
DA:183,1
DA:184,1
DA:185,1
DA:186,0
DA:187,1
DA:189,1
DA:190,1
DA:192,1
DA:193,1
DA:194,0
DA:196,0
DA:197,0
DA:198,0
DA:200,0
DA:201,0
DA:202,0
DA:204,0
DA:205,0
DA:206,0
DA:207,0
DA:209,0
DA:210,0
DA:212,0
DA:219,0
DA:220,0
DA:221,0
DA:222,0
DA:223,0
DA:225,0
DA:227,0
DA:234,0
DA:235,0
DA:236,0
DA:237,0
DA:238,0
DA:240,1
DA:253,0
DA:254,0
DA:255,0
DA:256,0
DA:257,0
DA:258,0
DA:259,0
DA:261,0
DA:262,0
DA:263,0
DA:265,0
DA:266,0
DA:267,0
DA:268,0
DA:269,0
DA:270,0
DA:271,0
DA:272,0
DA:273,0
DA:274,0
DA:275,0
DA:276,0
DA:278,0
DA:279,0
DA:281,0
DA:282,0
DA:283,0
DA:284,0
DA:285,0
DA:286,0
DA:287,0
DA:288,0
DA:290,0
DA:291,0
DA:292,0
DA:294,0
DA:295,0
DA:296,0
DA:298,0
DA:299,0
DA:300,0
DA:301,0
DA:303,0
DA:304,0
DA:305,0
DA:307,0
DA:308,0
DA:309,0
DA:310,0
DA:311,0
DA:313,0
DA:315,0
DA:322,0
DA:323,0
DA:324,0
DA:325,0
DA:326,0
DA:328,0
DA:329,0
DA:330,0
DA:331,0
DA:332,0
DA:333,0
DA:334,0
DA:335,0
DA:337,0
DA:338,0
DA:339,0
DA:341,0
DA:342,0
DA:343,0
DA:345,0
DA:346,0
DA:347,0
DA:348,0
DA:350,0
DA:352,0
DA:359,0
DA:360,0
DA:361,0
DA:362,0
DA:363,0
DA:370,2
DA:371,2
DA:372,2
DA:373,2
DA:374,2
DA:375,2
DA:378,2
DA:379,2
DA:380,2
DA:381,2
DA:384,2
DA:385,2
DA:386,2
DA:387,2
DA:390,2
DA:391,2
DA:392,2
DA:393,2
DA:394,2
DA:395,2
DA:396,2
DA:397,2
DA:398,2
DA:399,2
DA:400,2
DA:401,2
DA:402,2
DA:403,2
DA:404,2
DA:405,2
DA:406,2
DA:407,2
DA:410,2
DA:411,2
DA:412,2
DA:413,2
DA:414,2
DA:415,2
DA:416,2
DA:417,2
DA:418,2
DA:419,2
DA:420,2
DA:421,2
DA:422,2
DA:425,2
DA:426,2
DA:427,2
DA:428,2
DA:429,2
DA:430,2
DA:431,2
DA:434,2
DA:435,2
DA:436,2
DA:437,2
DA:438,2
DA:441,2
DA:445,2
DA:446,2
DA:447,2
DA:448,2
DA:449,2
DA:450,2
DA:451,2
DA:452,2
DA:453,2
DA:454,2
DA:455,2
DA:456,2
DA:457,2
DA:458,2
DA:459,2
DA:460,2
DA:461,2
DA:464,2
DA:468,2
DA:469,2
DA:470,2
DA:471,2
DA:472,2
DA:473,2
DA:474,2
DA:475,2
DA:476,2
DA:477,2
DA:478,2
DA:479,2
DA:480,2
DA:481,2
DA:482,2
DA:483,2
DA:484,2
DA:487,2
DA:491,2
DA:492,2
DA:493,2
DA:494,2
DA:495,2
DA:496,2
DA:497,2
DA:498,2
DA:499,2
DA:500,2
DA:501,2
DA:502,2
DA:503,2
DA:504,2
DA:505,2
DA:506,2
DA:507,2
BRF:0
BRH:0
LF:390
LH:231
end_of_record
SF:/home/marra/projects/timekeeper/backend/src/handlers/attendance.rs
FN:357,_RNCNCNvNtNtCs2oPl7zguF9n_18timekeeper_backend8handlers10attendance14get_my_summary00B9_
FN:365,_RNCNCNvNtNtCs2oPl7zguF9n_18timekeeper_backend8handlers10attendance14get_my_summary0s0_0B9_
FN:358,_RNCNCNvNtNtCs2oPl7zguF9n_18timekeeper_backend8handlers10attendance14get_my_summary0s_0B9_
FN:228,_RNCNCNvNtNtCs2oPl7zguF9n_18timekeeper_backend8handlers10attendance17get_my_attendance00B9_
FN:236,_RNCNCNvNtNtCs2oPl7zguF9n_18timekeeper_backend8handlers10attendance17get_my_attendance0s0_0B9_
FN:237,_RNCNCNvNtNtCs2oPl7zguF9n_18timekeeper_backend8handlers10attendance17get_my_attendance0s1_0B9_
FN:243,_RNCNCNvNtNtCs2oPl7zguF9n_18timekeeper_backend8handlers10attendance17get_my_attendance0s2_0B9_
FN:229,_RNCNCNvNtNtCs2oPl7zguF9n_18timekeeper_backend8handlers10attendance17get_my_attendance0s_0B9_
FN:431,_RNCNCNvNtNtCs2oPl7zguF9n_18timekeeper_backend8handlers10attendance20export_my_attendance00B9_
FN:439,_RNCNCNvNtNtCs2oPl7zguF9n_18timekeeper_backend8handlers10attendance20export_my_attendance0s0_0B9_
FN:440,_RNCNCNvNtNtCs2oPl7zguF9n_18timekeeper_backend8handlers10attendance20export_my_attendance0s1_0B9_
FN:435,_RNCNCNvNtNtCs2oPl7zguF9n_18timekeeper_backend8handlers10attendance20export_my_attendance0s_0B9_
FN:275,_RNCNCNvNtNtCs2oPl7zguF9n_18timekeeper_backend8handlers10attendance21get_attendance_status00B9_
FN:276,_RNCNCNvNtNtCs2oPl7zguF9n_18timekeeper_backend8handlers10attendance21get_attendance_status0s_0B9_
FN:342,_RNCNCNvNtNtCs2oPl7zguF9n_18timekeeper_backend8handlers10attendance24get_breaks_by_attendance00B9_
FN:73,_RNCNCNvNtNtCs2oPl7zguF9n_18timekeeper_backend8handlers10attendance8clock_in00B9_
FN:112,_RNCNCNvNtNtCs2oPl7zguF9n_18timekeeper_backend8handlers10attendance9clock_out00B9_
FN:120,_RNCNCNvNtNtCs2oPl7zguF9n_18timekeeper_backend8handlers10attendance9clock_out0s_0B9_
FN:153,_RNCNvNtNtCs2oPl7zguF9n_18timekeeper_backend8handlers10attendance11break_start0B7_
FN:353,_RNCNvNtNtCs2oPl7zguF9n_18timekeeper_backend8handlers10attendance14get_my_summary0B7_
FN:218,_RNCNvNtNtCs2oPl7zguF9n_18timekeeper_backend8handlers10attendance17get_my_attendance0B7_
FN:515,_RNCNvNtNtCs2oPl7zguF9n_18timekeeper_backend8handlers10attendance17reject_if_holiday0B7_
FN:485,_RNCNvNtNtCs2oPl7zguF9n_18timekeeper_backend8handlers10attendance19total_break_minutes0B7_
FN:397,_RNCNvNtNtCs2oPl7zguF9n_18timekeeper_backend8handlers10attendance20export_my_attendance0B7_
FN:271,_RNCNvNtNtCs2oPl7zguF9n_18timekeeper_backend8handlers10attendance21get_attendance_status0B7_
FN:494,_RNCNvNtNtCs2oPl7zguF9n_18timekeeper_backend8handlers10attendance23recalculate_total_hours0B7_
FN:340,_RNCNvNtNtCs2oPl7zguF9n_18timekeeper_backend8handlers10attendance24get_breaks_by_attendance0B7_
FN:67,_RNCNvNtNtCs2oPl7zguF9n_18timekeeper_backend8handlers10attendance8clock_in0B7_
FN:185,_RNCNvNtNtCs2oPl7zguF9n_18timekeeper_backend8handlers10attendance9break_end0B7_
FN:106,_RNCNvNtNtCs2oPl7zguF9n_18timekeeper_backend8handlers10attendance9clock_out0B7_
FN:149,_RNvNtNtCs2oPl7zguF9n_18timekeeper_backend8handlers10attendance11break_start
FN:349,_RNvNtNtCs2oPl7zguF9n_18timekeeper_backend8handlers10attendance14get_my_summary
FN:214,_RNvNtNtCs2oPl7zguF9n_18timekeeper_backend8handlers10attendance17get_my_attendance
FN:511,_RNvNtNtCs2oPl7zguF9n_18timekeeper_backend8handlers10attendance17reject_if_holiday
FN:482,_RNvNtNtCs2oPl7zguF9n_18timekeeper_backend8handlers10attendance19total_break_minutes
FN:393,_RNvNtNtCs2oPl7zguF9n_18timekeeper_backend8handlers10attendance20export_my_attendance
FN:267,_RNvNtNtCs2oPl7zguF9n_18timekeeper_backend8handlers10attendance21get_attendance_status
FN:490,_RNvNtNtCs2oPl7zguF9n_18timekeeper_backend8handlers10attendance23recalculate_total_hours
FN:336,_RNvNtNtCs2oPl7zguF9n_18timekeeper_backend8handlers10attendance24get_breaks_by_attendance
FN:466,_RNvNtNtCs2oPl7zguF9n_18timekeeper_backend8handlers10attendance25build_attendance_response
FN:62,_RNvNtNtCs2oPl7zguF9n_18timekeeper_backend8handlers10attendance8clock_in
FN:181,_RNvNtNtCs2oPl7zguF9n_18timekeeper_backend8handlers10attendance9break_end
FN:101,_RNvNtNtCs2oPl7zguF9n_18timekeeper_backend8handlers10attendance9clock_out
FN:149,_RNvNtNtCsjEFxG0ag9NF_18timekeeper_backend8handlers10attendance11break_start
FN:349,_RNvNtNtCsjEFxG0ag9NF_18timekeeper_backend8handlers10attendance14get_my_summary
FN:214,_RNvNtNtCsjEFxG0ag9NF_18timekeeper_backend8handlers10attendance17get_my_attendance
FN:393,_RNvNtNtCsjEFxG0ag9NF_18timekeeper_backend8handlers10attendance20export_my_attendance
FN:267,_RNvNtNtCsjEFxG0ag9NF_18timekeeper_backend8handlers10attendance21get_attendance_status
FN:336,_RNvNtNtCsjEFxG0ag9NF_18timekeeper_backend8handlers10attendance24get_breaks_by_attendance
FN:62,_RNvNtNtCsjEFxG0ag9NF_18timekeeper_backend8handlers10attendance8clock_in
FN:181,_RNvNtNtCsjEFxG0ag9NF_18timekeeper_backend8handlers10attendance9break_end
FN:101,_RNvNtNtCsjEFxG0ag9NF_18timekeeper_backend8handlers10attendance9clock_out
FN:357,_RNCNCNvNtNtCsjEFxG0ag9NF_18timekeeper_backend8handlers10attendance14get_my_summary00B9_
FN:365,_RNCNCNvNtNtCsjEFxG0ag9NF_18timekeeper_backend8handlers10attendance14get_my_summary0s0_0B9_
FN:358,_RNCNCNvNtNtCsjEFxG0ag9NF_18timekeeper_backend8handlers10attendance14get_my_summary0s_0B9_
FN:228,_RNCNCNvNtNtCsjEFxG0ag9NF_18timekeeper_backend8handlers10attendance17get_my_attendance00B9_
FN:236,_RNCNCNvNtNtCsjEFxG0ag9NF_18timekeeper_backend8handlers10attendance17get_my_attendance0s0_0B9_
FN:237,_RNCNCNvNtNtCsjEFxG0ag9NF_18timekeeper_backend8handlers10attendance17get_my_attendance0s1_0B9_
FN:243,_RNCNCNvNtNtCsjEFxG0ag9NF_18timekeeper_backend8handlers10attendance17get_my_attendance0s2_0B9_
FN:229,_RNCNCNvNtNtCsjEFxG0ag9NF_18timekeeper_backend8handlers10attendance17get_my_attendance0s_0B9_
FN:431,_RNCNCNvNtNtCsjEFxG0ag9NF_18timekeeper_backend8handlers10attendance20export_my_attendance00B9_
FN:439,_RNCNCNvNtNtCsjEFxG0ag9NF_18timekeeper_backend8handlers10attendance20export_my_attendance0s0_0B9_
FN:440,_RNCNCNvNtNtCsjEFxG0ag9NF_18timekeeper_backend8handlers10attendance20export_my_attendance0s1_0B9_
FN:435,_RNCNCNvNtNtCsjEFxG0ag9NF_18timekeeper_backend8handlers10attendance20export_my_attendance0s_0B9_
FN:275,_RNCNCNvNtNtCsjEFxG0ag9NF_18timekeeper_backend8handlers10attendance21get_attendance_status00B9_
FN:276,_RNCNCNvNtNtCsjEFxG0ag9NF_18timekeeper_backend8handlers10attendance21get_attendance_status0s_0B9_
FN:342,_RNCNCNvNtNtCsjEFxG0ag9NF_18timekeeper_backend8handlers10attendance24get_breaks_by_attendance00B9_
FN:73,_RNCNCNvNtNtCsjEFxG0ag9NF_18timekeeper_backend8handlers10attendance8clock_in00B9_
FN:112,_RNCNCNvNtNtCsjEFxG0ag9NF_18timekeeper_backend8handlers10attendance9clock_out00B9_
FN:120,_RNCNCNvNtNtCsjEFxG0ag9NF_18timekeeper_backend8handlers10attendance9clock_out0s_0B9_
FN:153,_RNCNvNtNtCsjEFxG0ag9NF_18timekeeper_backend8handlers10attendance11break_start0B7_
FN:353,_RNCNvNtNtCsjEFxG0ag9NF_18timekeeper_backend8handlers10attendance14get_my_summary0B7_
FN:218,_RNCNvNtNtCsjEFxG0ag9NF_18timekeeper_backend8handlers10attendance17get_my_attendance0B7_
FN:515,_RNCNvNtNtCsjEFxG0ag9NF_18timekeeper_backend8handlers10attendance17reject_if_holiday0B7_
FN:485,_RNCNvNtNtCsjEFxG0ag9NF_18timekeeper_backend8handlers10attendance19total_break_minutes0B7_
FN:397,_RNCNvNtNtCsjEFxG0ag9NF_18timekeeper_backend8handlers10attendance20export_my_attendance0B7_
FN:271,_RNCNvNtNtCsjEFxG0ag9NF_18timekeeper_backend8handlers10attendance21get_attendance_status0B7_
FN:494,_RNCNvNtNtCsjEFxG0ag9NF_18timekeeper_backend8handlers10attendance23recalculate_total_hours0B7_
FN:340,_RNCNvNtNtCsjEFxG0ag9NF_18timekeeper_backend8handlers10attendance24get_breaks_by_attendance0B7_
FN:67,_RNCNvNtNtCsjEFxG0ag9NF_18timekeeper_backend8handlers10attendance8clock_in0B7_
FN:185,_RNCNvNtNtCsjEFxG0ag9NF_18timekeeper_backend8handlers10attendance9break_end0B7_
FN:106,_RNCNvNtNtCsjEFxG0ag9NF_18timekeeper_backend8handlers10attendance9clock_out0B7_
FN:511,_RNvNtNtCsjEFxG0ag9NF_18timekeeper_backend8handlers10attendance17reject_if_holiday
FN:482,_RNvNtNtCsjEFxG0ag9NF_18timekeeper_backend8handlers10attendance19total_break_minutes
FN:490,_RNvNtNtCsjEFxG0ag9NF_18timekeeper_backend8handlers10attendance23recalculate_total_hours
FN:466,_RNvNtNtCsjEFxG0ag9NF_18timekeeper_backend8handlers10attendance25build_attendance_response
FN:590,_RNvNtNtNtCsjEFxG0ag9NF_18timekeeper_backend8handlers10attendance5testss_31test_clock_in_request_structure
FN:597,_RNvNtNtNtCsjEFxG0ag9NF_18timekeeper_backend8handlers10attendance5testss_32test_clock_out_request_structure
FN:551,_RNvNtNtNtCsjEFxG0ag9NF_18timekeeper_backend8handlers10attendance5testss_33test_attendance_query_with_values
FN:604,_RNvNtNtNtCsjEFxG0ag9NF_18timekeeper_backend8handlers10attendance5testss_33test_attendance_summary_structure
FN:537,_RNvNtNtNtCsjEFxG0ag9NF_18timekeeper_backend8handlers10attendance5testss_36test_attendance_query_default_values
FN:576,_RNvNtNtNtCsjEFxG0ag9NF_18timekeeper_backend8handlers10attendance5testss_41test_attendance_status_response_structure
FN:566,_RNvNtNtNtCsjEFxG0ag9NF_18timekeeper_backend8handlers10attendance5testss_43test_attendance_export_query_default_values
FN:149,_RNvNtNtCsiqn6J3Zmf7c_18timekeeper_backend8handlers10attendance11break_start
FN:349,_RNvNtNtCsiqn6J3Zmf7c_18timekeeper_backend8handlers10attendance14get_my_summary
FN:214,_RNvNtNtCsiqn6J3Zmf7c_18timekeeper_backend8handlers10attendance17get_my_attendance
FN:511,_RNvNtNtCsiqn6J3Zmf7c_18timekeeper_backend8handlers10attendance17reject_if_holiday
FN:482,_RNvNtNtCsiqn6J3Zmf7c_18timekeeper_backend8handlers10attendance19total_break_minutes
FN:393,_RNvNtNtCsiqn6J3Zmf7c_18timekeeper_backend8handlers10attendance20export_my_attendance
FN:267,_RNvNtNtCsiqn6J3Zmf7c_18timekeeper_backend8handlers10attendance21get_attendance_status
FN:490,_RNvNtNtCsiqn6J3Zmf7c_18timekeeper_backend8handlers10attendance23recalculate_total_hours
FN:336,_RNvNtNtCsiqn6J3Zmf7c_18timekeeper_backend8handlers10attendance24get_breaks_by_attendance
FN:466,_RNvNtNtCsiqn6J3Zmf7c_18timekeeper_backend8handlers10attendance25build_attendance_response
FN:62,_RNvNtNtCsiqn6J3Zmf7c_18timekeeper_backend8handlers10attendance8clock_in
FN:181,_RNvNtNtCsiqn6J3Zmf7c_18timekeeper_backend8handlers10attendance9break_end
FN:101,_RNvNtNtCsiqn6J3Zmf7c_18timekeeper_backend8handlers10attendance9clock_out
FN:357,_RNCNCNvNtNtCsiqn6J3Zmf7c_18timekeeper_backend8handlers10attendance14get_my_summary00B9_
FN:365,_RNCNCNvNtNtCsiqn6J3Zmf7c_18timekeeper_backend8handlers10attendance14get_my_summary0s0_0B9_
FN:358,_RNCNCNvNtNtCsiqn6J3Zmf7c_18timekeeper_backend8handlers10attendance14get_my_summary0s_0B9_
FN:228,_RNCNCNvNtNtCsiqn6J3Zmf7c_18timekeeper_backend8handlers10attendance17get_my_attendance00B9_
FN:236,_RNCNCNvNtNtCsiqn6J3Zmf7c_18timekeeper_backend8handlers10attendance17get_my_attendance0s0_0B9_
FN:237,_RNCNCNvNtNtCsiqn6J3Zmf7c_18timekeeper_backend8handlers10attendance17get_my_attendance0s1_0B9_
FN:243,_RNCNCNvNtNtCsiqn6J3Zmf7c_18timekeeper_backend8handlers10attendance17get_my_attendance0s2_0B9_
FN:229,_RNCNCNvNtNtCsiqn6J3Zmf7c_18timekeeper_backend8handlers10attendance17get_my_attendance0s_0B9_
FN:431,_RNCNCNvNtNtCsiqn6J3Zmf7c_18timekeeper_backend8handlers10attendance20export_my_attendance00B9_
FN:439,_RNCNCNvNtNtCsiqn6J3Zmf7c_18timekeeper_backend8handlers10attendance20export_my_attendance0s0_0B9_
FN:440,_RNCNCNvNtNtCsiqn6J3Zmf7c_18timekeeper_backend8handlers10attendance20export_my_attendance0s1_0B9_
FN:435,_RNCNCNvNtNtCsiqn6J3Zmf7c_18timekeeper_backend8handlers10attendance20export_my_attendance0s_0B9_
FN:275,_RNCNCNvNtNtCsiqn6J3Zmf7c_18timekeeper_backend8handlers10attendance21get_attendance_status00B9_
FN:276,_RNCNCNvNtNtCsiqn6J3Zmf7c_18timekeeper_backend8handlers10attendance21get_attendance_status0s_0B9_
FN:342,_RNCNCNvNtNtCsiqn6J3Zmf7c_18timekeeper_backend8handlers10attendance24get_breaks_by_attendance00B9_
FN:73,_RNCNCNvNtNtCsiqn6J3Zmf7c_18timekeeper_backend8handlers10attendance8clock_in00B9_
FN:112,_RNCNCNvNtNtCsiqn6J3Zmf7c_18timekeeper_backend8handlers10attendance9clock_out00B9_
FN:120,_RNCNCNvNtNtCsiqn6J3Zmf7c_18timekeeper_backend8handlers10attendance9clock_out0s_0B9_
FN:153,_RNCNvNtNtCsiqn6J3Zmf7c_18timekeeper_backend8handlers10attendance11break_start0B7_
FN:353,_RNCNvNtNtCsiqn6J3Zmf7c_18timekeeper_backend8handlers10attendance14get_my_summary0B7_
FN:218,_RNCNvNtNtCsiqn6J3Zmf7c_18timekeeper_backend8handlers10attendance17get_my_attendance0B7_
FN:515,_RNCNvNtNtCsiqn6J3Zmf7c_18timekeeper_backend8handlers10attendance17reject_if_holiday0B7_
FN:485,_RNCNvNtNtCsiqn6J3Zmf7c_18timekeeper_backend8handlers10attendance19total_break_minutes0B7_
FN:397,_RNCNvNtNtCsiqn6J3Zmf7c_18timekeeper_backend8handlers10attendance20export_my_attendance0B7_
FN:271,_RNCNvNtNtCsiqn6J3Zmf7c_18timekeeper_backend8handlers10attendance21get_attendance_status0B7_
FN:494,_RNCNvNtNtCsiqn6J3Zmf7c_18timekeeper_backend8handlers10attendance23recalculate_total_hours0B7_
FN:340,_RNCNvNtNtCsiqn6J3Zmf7c_18timekeeper_backend8handlers10attendance24get_breaks_by_attendance0B7_
FN:67,_RNCNvNtNtCsiqn6J3Zmf7c_18timekeeper_backend8handlers10attendance8clock_in0B7_
FN:185,_RNCNvNtNtCsiqn6J3Zmf7c_18timekeeper_backend8handlers10attendance9break_end0B7_
FN:106,_RNCNvNtNtCsiqn6J3Zmf7c_18timekeeper_backend8handlers10attendance9clock_out0B7_
FN:149,_RNvNtNtCs86yVScfUyun_18timekeeper_backend8handlers10attendance11break_start
FN:349,_RNvNtNtCs86yVScfUyun_18timekeeper_backend8handlers10attendance14get_my_summary
FN:214,_RNvNtNtCs86yVScfUyun_18timekeeper_backend8handlers10attendance17get_my_attendance
FN:393,_RNvNtNtCs86yVScfUyun_18timekeeper_backend8handlers10attendance20export_my_attendance
FN:267,_RNvNtNtCs86yVScfUyun_18timekeeper_backend8handlers10attendance21get_attendance_status
FN:336,_RNvNtNtCs86yVScfUyun_18timekeeper_backend8handlers10attendance24get_breaks_by_attendance
FN:62,_RNvNtNtCs86yVScfUyun_18timekeeper_backend8handlers10attendance8clock_in
FN:181,_RNvNtNtCs86yVScfUyun_18timekeeper_backend8handlers10attendance9break_end
FN:101,_RNvNtNtCs86yVScfUyun_18timekeeper_backend8handlers10attendance9clock_out
FN:590,_RNvNtNtNtCs86yVScfUyun_18timekeeper_backend8handlers10attendance5testss_31test_clock_in_request_structure
FN:597,_RNvNtNtNtCs86yVScfUyun_18timekeeper_backend8handlers10attendance5testss_32test_clock_out_request_structure
FN:551,_RNvNtNtNtCs86yVScfUyun_18timekeeper_backend8handlers10attendance5testss_33test_attendance_query_with_values
FN:604,_RNvNtNtNtCs86yVScfUyun_18timekeeper_backend8handlers10attendance5testss_33test_attendance_summary_structure
FN:537,_RNvNtNtNtCs86yVScfUyun_18timekeeper_backend8handlers10attendance5testss_36test_attendance_query_default_values
FN:576,_RNvNtNtNtCs86yVScfUyun_18timekeeper_backend8handlers10attendance5testss_41test_attendance_status_response_structure
FN:566,_RNvNtNtNtCs86yVScfUyun_18timekeeper_backend8handlers10attendance5testss_43test_attendance_export_query_default_values
FN:357,_RNCNCNvNtNtCs86yVScfUyun_18timekeeper_backend8handlers10attendance14get_my_summary00B9_
FN:365,_RNCNCNvNtNtCs86yVScfUyun_18timekeeper_backend8handlers10attendance14get_my_summary0s0_0B9_
FN:358,_RNCNCNvNtNtCs86yVScfUyun_18timekeeper_backend8handlers10attendance14get_my_summary0s_0B9_
FN:228,_RNCNCNvNtNtCs86yVScfUyun_18timekeeper_backend8handlers10attendance17get_my_attendance00B9_
FN:236,_RNCNCNvNtNtCs86yVScfUyun_18timekeeper_backend8handlers10attendance17get_my_attendance0s0_0B9_
FN:237,_RNCNCNvNtNtCs86yVScfUyun_18timekeeper_backend8handlers10attendance17get_my_attendance0s1_0B9_
FN:243,_RNCNCNvNtNtCs86yVScfUyun_18timekeeper_backend8handlers10attendance17get_my_attendance0s2_0B9_
FN:229,_RNCNCNvNtNtCs86yVScfUyun_18timekeeper_backend8handlers10attendance17get_my_attendance0s_0B9_
FN:431,_RNCNCNvNtNtCs86yVScfUyun_18timekeeper_backend8handlers10attendance20export_my_attendance00B9_
FN:439,_RNCNCNvNtNtCs86yVScfUyun_18timekeeper_backend8handlers10attendance20export_my_attendance0s0_0B9_
FN:440,_RNCNCNvNtNtCs86yVScfUyun_18timekeeper_backend8handlers10attendance20export_my_attendance0s1_0B9_
FN:435,_RNCNCNvNtNtCs86yVScfUyun_18timekeeper_backend8handlers10attendance20export_my_attendance0s_0B9_
FN:275,_RNCNCNvNtNtCs86yVScfUyun_18timekeeper_backend8handlers10attendance21get_attendance_status00B9_
FN:276,_RNCNCNvNtNtCs86yVScfUyun_18timekeeper_backend8handlers10attendance21get_attendance_status0s_0B9_
FN:342,_RNCNCNvNtNtCs86yVScfUyun_18timekeeper_backend8handlers10attendance24get_breaks_by_attendance00B9_
FN:73,_RNCNCNvNtNtCs86yVScfUyun_18timekeeper_backend8handlers10attendance8clock_in00B9_
FN:112,_RNCNCNvNtNtCs86yVScfUyun_18timekeeper_backend8handlers10attendance9clock_out00B9_
FN:120,_RNCNCNvNtNtCs86yVScfUyun_18timekeeper_backend8handlers10attendance9clock_out0s_0B9_
FN:153,_RNCNvNtNtCs86yVScfUyun_18timekeeper_backend8handlers10attendance11break_start0B7_
FN:353,_RNCNvNtNtCs86yVScfUyun_18timekeeper_backend8handlers10attendance14get_my_summary0B7_
FN:218,_RNCNvNtNtCs86yVScfUyun_18timekeeper_backend8handlers10attendance17get_my_attendance0B7_
FN:515,_RNCNvNtNtCs86yVScfUyun_18timekeeper_backend8handlers10attendance17reject_if_holiday0B7_
FN:485,_RNCNvNtNtCs86yVScfUyun_18timekeeper_backend8handlers10attendance19total_break_minutes0B7_
FN:397,_RNCNvNtNtCs86yVScfUyun_18timekeeper_backend8handlers10attendance20export_my_attendance0B7_
FN:271,_RNCNvNtNtCs86yVScfUyun_18timekeeper_backend8handlers10attendance21get_attendance_status0B7_
FN:494,_RNCNvNtNtCs86yVScfUyun_18timekeeper_backend8handlers10attendance23recalculate_total_hours0B7_
FN:340,_RNCNvNtNtCs86yVScfUyun_18timekeeper_backend8handlers10attendance24get_breaks_by_attendance0B7_
FN:67,_RNCNvNtNtCs86yVScfUyun_18timekeeper_backend8handlers10attendance8clock_in0B7_
FN:185,_RNCNvNtNtCs86yVScfUyun_18timekeeper_backend8handlers10attendance9break_end0B7_
FN:106,_RNCNvNtNtCs86yVScfUyun_18timekeeper_backend8handlers10attendance9clock_out0B7_
FN:511,_RNvNtNtCs86yVScfUyun_18timekeeper_backend8handlers10attendance17reject_if_holiday
FN:482,_RNvNtNtCs86yVScfUyun_18timekeeper_backend8handlers10attendance19total_break_minutes
FN:490,_RNvNtNtCs86yVScfUyun_18timekeeper_backend8handlers10attendance23recalculate_total_hours
FN:466,_RNvNtNtCs86yVScfUyun_18timekeeper_backend8handlers10attendance25build_attendance_response
FNDA:0,_RNCNCNvNtNtCs2oPl7zguF9n_18timekeeper_backend8handlers10attendance14get_my_summary00B9_
FNDA:0,_RNCNCNvNtNtCs2oPl7zguF9n_18timekeeper_backend8handlers10attendance14get_my_summary0s0_0B9_
FNDA:0,_RNCNCNvNtNtCs2oPl7zguF9n_18timekeeper_backend8handlers10attendance14get_my_summary0s_0B9_
FNDA:0,_RNCNCNvNtNtCs2oPl7zguF9n_18timekeeper_backend8handlers10attendance17get_my_attendance00B9_
FNDA:1,_RNCNCNvNtNtCs2oPl7zguF9n_18timekeeper_backend8handlers10attendance17get_my_attendance0s0_0B9_
FNDA:1,_RNCNCNvNtNtCs2oPl7zguF9n_18timekeeper_backend8handlers10attendance17get_my_attendance0s1_0B9_
FNDA:1,_RNCNCNvNtNtCs2oPl7zguF9n_18timekeeper_backend8handlers10attendance17get_my_attendance0s2_0B9_
FNDA:0,_RNCNCNvNtNtCs2oPl7zguF9n_18timekeeper_backend8handlers10attendance17get_my_attendance0s_0B9_
FNDA:0,_RNCNCNvNtNtCs2oPl7zguF9n_18timekeeper_backend8handlers10attendance20export_my_attendance00B9_
FNDA:0,_RNCNCNvNtNtCs2oPl7zguF9n_18timekeeper_backend8handlers10attendance20export_my_attendance0s0_0B9_
FNDA:0,_RNCNCNvNtNtCs2oPl7zguF9n_18timekeeper_backend8handlers10attendance20export_my_attendance0s1_0B9_
FNDA:0,_RNCNCNvNtNtCs2oPl7zguF9n_18timekeeper_backend8handlers10attendance20export_my_attendance0s_0B9_
FNDA:0,_RNCNCNvNtNtCs2oPl7zguF9n_18timekeeper_backend8handlers10attendance21get_attendance_status00B9_
FNDA:2,_RNCNCNvNtNtCs2oPl7zguF9n_18timekeeper_backend8handlers10attendance21get_attendance_status0s_0B9_
FNDA:0,_RNCNCNvNtNtCs2oPl7zguF9n_18timekeeper_backend8handlers10attendance24get_breaks_by_attendance00B9_
FNDA:8,_RNCNCNvNtNtCs2oPl7zguF9n_18timekeeper_backend8handlers10attendance8clock_in00B9_
FNDA:3,_RNCNCNvNtNtCs2oPl7zguF9n_18timekeeper_backend8handlers10attendance9clock_out00B9_
FNDA:1,_RNCNCNvNtNtCs2oPl7zguF9n_18timekeeper_backend8handlers10attendance9clock_out0s_0B9_
FNDA:3,_RNCNvNtNtCs2oPl7zguF9n_18timekeeper_backend8handlers10attendance11break_start0B7_
FNDA:0,_RNCNvNtNtCs2oPl7zguF9n_18timekeeper_backend8handlers10attendance14get_my_summary0B7_
FNDA:1,_RNCNvNtNtCs2oPl7zguF9n_18timekeeper_backend8handlers10attendance17get_my_attendance0B7_
FNDA:12,_RNCNvNtNtCs2oPl7zguF9n_18timekeeper_backend8handlers10attendance17reject_if_holiday0B7_
FNDA:1,_RNCNvNtNtCs2oPl7zguF9n_18timekeeper_backend8handlers10attendance19total_break_minutes0B7_
FNDA:0,_RNCNvNtNtCs2oPl7zguF9n_18timekeeper_backend8handlers10attendance20export_my_attendance0B7_
FNDA:2,_RNCNvNtNtCs2oPl7zguF9n_18timekeeper_backend8handlers10attendance21get_attendance_status0B7_
FNDA:0,_RNCNvNtNtCs2oPl7zguF9n_18timekeeper_backend8handlers10attendance23recalculate_total_hours0B7_
FNDA:2,_RNCNvNtNtCs2oPl7zguF9n_18timekeeper_backend8handlers10attendance24get_breaks_by_attendance0B7_
FNDA:9,_RNCNvNtNtCs2oPl7zguF9n_18timekeeper_backend8handlers10attendance8clock_in0B7_
FNDA:1,_RNCNvNtNtCs2oPl7zguF9n_18timekeeper_backend8handlers10attendance9break_end0B7_
FNDA:3,_RNCNvNtNtCs2oPl7zguF9n_18timekeeper_backend8handlers10attendance9clock_out0B7_
FNDA:3,_RNvNtNtCs2oPl7zguF9n_18timekeeper_backend8handlers10attendance11break_start
FNDA:0,_RNvNtNtCs2oPl7zguF9n_18timekeeper_backend8handlers10attendance14get_my_summary
FNDA:1,_RNvNtNtCs2oPl7zguF9n_18timekeeper_backend8handlers10attendance17get_my_attendance
FNDA:12,_RNvNtNtCs2oPl7zguF9n_18timekeeper_backend8handlers10attendance17reject_if_holiday
FNDA:1,_RNvNtNtCs2oPl7zguF9n_18timekeeper_backend8handlers10attendance19total_break_minutes
FNDA:0,_RNvNtNtCs2oPl7zguF9n_18timekeeper_backend8handlers10attendance20export_my_attendance
FNDA:2,_RNvNtNtCs2oPl7zguF9n_18timekeeper_backend8handlers10attendance21get_attendance_status
FNDA:0,_RNvNtNtCs2oPl7zguF9n_18timekeeper_backend8handlers10attendance23recalculate_total_hours
FNDA:2,_RNvNtNtCs2oPl7zguF9n_18timekeeper_backend8handlers10attendance24get_breaks_by_attendance
FNDA:10,_RNvNtNtCs2oPl7zguF9n_18timekeeper_backend8handlers10attendance25build_attendance_response
FNDA:9,_RNvNtNtCs2oPl7zguF9n_18timekeeper_backend8handlers10attendance8clock_in
FNDA:1,_RNvNtNtCs2oPl7zguF9n_18timekeeper_backend8handlers10attendance9break_end
FNDA:3,_RNvNtNtCs2oPl7zguF9n_18timekeeper_backend8handlers10attendance9clock_out
FNDA:0,_RNvNtNtCsjEFxG0ag9NF_18timekeeper_backend8handlers10attendance11break_start
FNDA:0,_RNvNtNtCsjEFxG0ag9NF_18timekeeper_backend8handlers10attendance14get_my_summary
FNDA:0,_RNvNtNtCsjEFxG0ag9NF_18timekeeper_backend8handlers10attendance17get_my_attendance
FNDA:0,_RNvNtNtCsjEFxG0ag9NF_18timekeeper_backend8handlers10attendance20export_my_attendance
FNDA:0,_RNvNtNtCsjEFxG0ag9NF_18timekeeper_backend8handlers10attendance21get_attendance_status
FNDA:0,_RNvNtNtCsjEFxG0ag9NF_18timekeeper_backend8handlers10attendance24get_breaks_by_attendance
FNDA:0,_RNvNtNtCsjEFxG0ag9NF_18timekeeper_backend8handlers10attendance8clock_in
FNDA:0,_RNvNtNtCsjEFxG0ag9NF_18timekeeper_backend8handlers10attendance9break_end
FNDA:0,_RNvNtNtCsjEFxG0ag9NF_18timekeeper_backend8handlers10attendance9clock_out
FNDA:0,_RNCNCNvNtNtCsjEFxG0ag9NF_18timekeeper_backend8handlers10attendance14get_my_summary00B9_
FNDA:0,_RNCNCNvNtNtCsjEFxG0ag9NF_18timekeeper_backend8handlers10attendance14get_my_summary0s0_0B9_
FNDA:0,_RNCNCNvNtNtCsjEFxG0ag9NF_18timekeeper_backend8handlers10attendance14get_my_summary0s_0B9_
FNDA:0,_RNCNCNvNtNtCsjEFxG0ag9NF_18timekeeper_backend8handlers10attendance17get_my_attendance00B9_
FNDA:0,_RNCNCNvNtNtCsjEFxG0ag9NF_18timekeeper_backend8handlers10attendance17get_my_attendance0s0_0B9_
FNDA:0,_RNCNCNvNtNtCsjEFxG0ag9NF_18timekeeper_backend8handlers10attendance17get_my_attendance0s1_0B9_
FNDA:0,_RNCNCNvNtNtCsjEFxG0ag9NF_18timekeeper_backend8handlers10attendance17get_my_attendance0s2_0B9_
FNDA:0,_RNCNCNvNtNtCsjEFxG0ag9NF_18timekeeper_backend8handlers10attendance17get_my_attendance0s_0B9_
FNDA:0,_RNCNCNvNtNtCsjEFxG0ag9NF_18timekeeper_backend8handlers10attendance20export_my_attendance00B9_
FNDA:0,_RNCNCNvNtNtCsjEFxG0ag9NF_18timekeeper_backend8handlers10attendance20export_my_attendance0s0_0B9_
FNDA:0,_RNCNCNvNtNtCsjEFxG0ag9NF_18timekeeper_backend8handlers10attendance20export_my_attendance0s1_0B9_
FNDA:0,_RNCNCNvNtNtCsjEFxG0ag9NF_18timekeeper_backend8handlers10attendance20export_my_attendance0s_0B9_
FNDA:0,_RNCNCNvNtNtCsjEFxG0ag9NF_18timekeeper_backend8handlers10attendance21get_attendance_status00B9_
FNDA:0,_RNCNCNvNtNtCsjEFxG0ag9NF_18timekeeper_backend8handlers10attendance21get_attendance_status0s_0B9_
FNDA:0,_RNCNCNvNtNtCsjEFxG0ag9NF_18timekeeper_backend8handlers10attendance24get_breaks_by_attendance00B9_
FNDA:0,_RNCNCNvNtNtCsjEFxG0ag9NF_18timekeeper_backend8handlers10attendance8clock_in00B9_
FNDA:0,_RNCNCNvNtNtCsjEFxG0ag9NF_18timekeeper_backend8handlers10attendance9clock_out00B9_
FNDA:0,_RNCNCNvNtNtCsjEFxG0ag9NF_18timekeeper_backend8handlers10attendance9clock_out0s_0B9_
FNDA:0,_RNCNvNtNtCsjEFxG0ag9NF_18timekeeper_backend8handlers10attendance11break_start0B7_
FNDA:0,_RNCNvNtNtCsjEFxG0ag9NF_18timekeeper_backend8handlers10attendance14get_my_summary0B7_
FNDA:0,_RNCNvNtNtCsjEFxG0ag9NF_18timekeeper_backend8handlers10attendance17get_my_attendance0B7_
FNDA:0,_RNCNvNtNtCsjEFxG0ag9NF_18timekeeper_backend8handlers10attendance17reject_if_holiday0B7_
FNDA:0,_RNCNvNtNtCsjEFxG0ag9NF_18timekeeper_backend8handlers10attendance19total_break_minutes0B7_
FNDA:0,_RNCNvNtNtCsjEFxG0ag9NF_18timekeeper_backend8handlers10attendance20export_my_attendance0B7_
FNDA:0,_RNCNvNtNtCsjEFxG0ag9NF_18timekeeper_backend8handlers10attendance21get_attendance_status0B7_
FNDA:0,_RNCNvNtNtCsjEFxG0ag9NF_18timekeeper_backend8handlers10attendance23recalculate_total_hours0B7_
FNDA:0,_RNCNvNtNtCsjEFxG0ag9NF_18timekeeper_backend8handlers10attendance24get_breaks_by_attendance0B7_
FNDA:0,_RNCNvNtNtCsjEFxG0ag9NF_18timekeeper_backend8handlers10attendance8clock_in0B7_
FNDA:0,_RNCNvNtNtCsjEFxG0ag9NF_18timekeeper_backend8handlers10attendance9break_end0B7_
FNDA:0,_RNCNvNtNtCsjEFxG0ag9NF_18timekeeper_backend8handlers10attendance9clock_out0B7_
FNDA:0,_RNvNtNtCsjEFxG0ag9NF_18timekeeper_backend8handlers10attendance17reject_if_holiday
FNDA:0,_RNvNtNtCsjEFxG0ag9NF_18timekeeper_backend8handlers10attendance19total_break_minutes
FNDA:0,_RNvNtNtCsjEFxG0ag9NF_18timekeeper_backend8handlers10attendance23recalculate_total_hours
FNDA:0,_RNvNtNtCsjEFxG0ag9NF_18timekeeper_backend8handlers10attendance25build_attendance_response
FNDA:1,_RNvNtNtNtCsjEFxG0ag9NF_18timekeeper_backend8handlers10attendance5testss_31test_clock_in_request_structure
FNDA:1,_RNvNtNtNtCsjEFxG0ag9NF_18timekeeper_backend8handlers10attendance5testss_32test_clock_out_request_structure
FNDA:1,_RNvNtNtNtCsjEFxG0ag9NF_18timekeeper_backend8handlers10attendance5testss_33test_attendance_query_with_values
FNDA:1,_RNvNtNtNtCsjEFxG0ag9NF_18timekeeper_backend8handlers10attendance5testss_33test_attendance_summary_structure
FNDA:1,_RNvNtNtNtCsjEFxG0ag9NF_18timekeeper_backend8handlers10attendance5testss_36test_attendance_query_default_values
FNDA:1,_RNvNtNtNtCsjEFxG0ag9NF_18timekeeper_backend8handlers10attendance5testss_41test_attendance_status_response_structure
FNDA:1,_RNvNtNtNtCsjEFxG0ag9NF_18timekeeper_backend8handlers10attendance5testss_43test_attendance_export_query_default_values
FNDA:0,_RNvNtNtCsiqn6J3Zmf7c_18timekeeper_backend8handlers10attendance11break_start
FNDA:0,_RNvNtNtCsiqn6J3Zmf7c_18timekeeper_backend8handlers10attendance14get_my_summary
FNDA:0,_RNvNtNtCsiqn6J3Zmf7c_18timekeeper_backend8handlers10attendance17get_my_attendance
FNDA:0,_RNvNtNtCsiqn6J3Zmf7c_18timekeeper_backend8handlers10attendance17reject_if_holiday
FNDA:0,_RNvNtNtCsiqn6J3Zmf7c_18timekeeper_backend8handlers10attendance19total_break_minutes
FNDA:0,_RNvNtNtCsiqn6J3Zmf7c_18timekeeper_backend8handlers10attendance20export_my_attendance
FNDA:0,_RNvNtNtCsiqn6J3Zmf7c_18timekeeper_backend8handlers10attendance21get_attendance_status
FNDA:0,_RNvNtNtCsiqn6J3Zmf7c_18timekeeper_backend8handlers10attendance23recalculate_total_hours
FNDA:0,_RNvNtNtCsiqn6J3Zmf7c_18timekeeper_backend8handlers10attendance24get_breaks_by_attendance
FNDA:0,_RNvNtNtCsiqn6J3Zmf7c_18timekeeper_backend8handlers10attendance25build_attendance_response
FNDA:0,_RNvNtNtCsiqn6J3Zmf7c_18timekeeper_backend8handlers10attendance8clock_in
FNDA:0,_RNvNtNtCsiqn6J3Zmf7c_18timekeeper_backend8handlers10attendance9break_end
FNDA:0,_RNvNtNtCsiqn6J3Zmf7c_18timekeeper_backend8handlers10attendance9clock_out
FNDA:0,_RNCNCNvNtNtCsiqn6J3Zmf7c_18timekeeper_backend8handlers10attendance14get_my_summary00B9_
FNDA:0,_RNCNCNvNtNtCsiqn6J3Zmf7c_18timekeeper_backend8handlers10attendance14get_my_summary0s0_0B9_
FNDA:0,_RNCNCNvNtNtCsiqn6J3Zmf7c_18timekeeper_backend8handlers10attendance14get_my_summary0s_0B9_
FNDA:0,_RNCNCNvNtNtCsiqn6J3Zmf7c_18timekeeper_backend8handlers10attendance17get_my_attendance00B9_
FNDA:0,_RNCNCNvNtNtCsiqn6J3Zmf7c_18timekeeper_backend8handlers10attendance17get_my_attendance0s0_0B9_
FNDA:0,_RNCNCNvNtNtCsiqn6J3Zmf7c_18timekeeper_backend8handlers10attendance17get_my_attendance0s1_0B9_
FNDA:0,_RNCNCNvNtNtCsiqn6J3Zmf7c_18timekeeper_backend8handlers10attendance17get_my_attendance0s2_0B9_
FNDA:0,_RNCNCNvNtNtCsiqn6J3Zmf7c_18timekeeper_backend8handlers10attendance17get_my_attendance0s_0B9_
FNDA:0,_RNCNCNvNtNtCsiqn6J3Zmf7c_18timekeeper_backend8handlers10attendance20export_my_attendance00B9_
FNDA:0,_RNCNCNvNtNtCsiqn6J3Zmf7c_18timekeeper_backend8handlers10attendance20export_my_attendance0s0_0B9_
FNDA:0,_RNCNCNvNtNtCsiqn6J3Zmf7c_18timekeeper_backend8handlers10attendance20export_my_attendance0s1_0B9_
FNDA:0,_RNCNCNvNtNtCsiqn6J3Zmf7c_18timekeeper_backend8handlers10attendance20export_my_attendance0s_0B9_
FNDA:0,_RNCNCNvNtNtCsiqn6J3Zmf7c_18timekeeper_backend8handlers10attendance21get_attendance_status00B9_
FNDA:0,_RNCNCNvNtNtCsiqn6J3Zmf7c_18timekeeper_backend8handlers10attendance21get_attendance_status0s_0B9_
FNDA:0,_RNCNCNvNtNtCsiqn6J3Zmf7c_18timekeeper_backend8handlers10attendance24get_breaks_by_attendance00B9_
FNDA:0,_RNCNCNvNtNtCsiqn6J3Zmf7c_18timekeeper_backend8handlers10attendance8clock_in00B9_
FNDA:0,_RNCNCNvNtNtCsiqn6J3Zmf7c_18timekeeper_backend8handlers10attendance9clock_out00B9_
FNDA:0,_RNCNCNvNtNtCsiqn6J3Zmf7c_18timekeeper_backend8handlers10attendance9clock_out0s_0B9_
FNDA:0,_RNCNvNtNtCsiqn6J3Zmf7c_18timekeeper_backend8handlers10attendance11break_start0B7_
FNDA:0,_RNCNvNtNtCsiqn6J3Zmf7c_18timekeeper_backend8handlers10attendance14get_my_summary0B7_
FNDA:0,_RNCNvNtNtCsiqn6J3Zmf7c_18timekeeper_backend8handlers10attendance17get_my_attendance0B7_
FNDA:0,_RNCNvNtNtCsiqn6J3Zmf7c_18timekeeper_backend8handlers10attendance17reject_if_holiday0B7_
FNDA:0,_RNCNvNtNtCsiqn6J3Zmf7c_18timekeeper_backend8handlers10attendance19total_break_minutes0B7_
FNDA:0,_RNCNvNtNtCsiqn6J3Zmf7c_18timekeeper_backend8handlers10attendance20export_my_attendance0B7_
FNDA:0,_RNCNvNtNtCsiqn6J3Zmf7c_18timekeeper_backend8handlers10attendance21get_attendance_status0B7_
FNDA:0,_RNCNvNtNtCsiqn6J3Zmf7c_18timekeeper_backend8handlers10attendance23recalculate_total_hours0B7_
FNDA:0,_RNCNvNtNtCsiqn6J3Zmf7c_18timekeeper_backend8handlers10attendance24get_breaks_by_attendance0B7_
FNDA:0,_RNCNvNtNtCsiqn6J3Zmf7c_18timekeeper_backend8handlers10attendance8clock_in0B7_
FNDA:0,_RNCNvNtNtCsiqn6J3Zmf7c_18timekeeper_backend8handlers10attendance9break_end0B7_
FNDA:0,_RNCNvNtNtCsiqn6J3Zmf7c_18timekeeper_backend8handlers10attendance9clock_out0B7_
FNDA:0,_RNvNtNtCs86yVScfUyun_18timekeeper_backend8handlers10attendance11break_start
FNDA:0,_RNvNtNtCs86yVScfUyun_18timekeeper_backend8handlers10attendance14get_my_summary
FNDA:0,_RNvNtNtCs86yVScfUyun_18timekeeper_backend8handlers10attendance17get_my_attendance
FNDA:0,_RNvNtNtCs86yVScfUyun_18timekeeper_backend8handlers10attendance20export_my_attendance
FNDA:0,_RNvNtNtCs86yVScfUyun_18timekeeper_backend8handlers10attendance21get_attendance_status
FNDA:0,_RNvNtNtCs86yVScfUyun_18timekeeper_backend8handlers10attendance24get_breaks_by_attendance
FNDA:0,_RNvNtNtCs86yVScfUyun_18timekeeper_backend8handlers10attendance8clock_in
FNDA:0,_RNvNtNtCs86yVScfUyun_18timekeeper_backend8handlers10attendance9break_end
FNDA:0,_RNvNtNtCs86yVScfUyun_18timekeeper_backend8handlers10attendance9clock_out
FNDA:1,_RNvNtNtNtCs86yVScfUyun_18timekeeper_backend8handlers10attendance5testss_31test_clock_in_request_structure
FNDA:1,_RNvNtNtNtCs86yVScfUyun_18timekeeper_backend8handlers10attendance5testss_32test_clock_out_request_structure
FNDA:1,_RNvNtNtNtCs86yVScfUyun_18timekeeper_backend8handlers10attendance5testss_33test_attendance_query_with_values
FNDA:1,_RNvNtNtNtCs86yVScfUyun_18timekeeper_backend8handlers10attendance5testss_33test_attendance_summary_structure
FNDA:1,_RNvNtNtNtCs86yVScfUyun_18timekeeper_backend8handlers10attendance5testss_36test_attendance_query_default_values
FNDA:1,_RNvNtNtNtCs86yVScfUyun_18timekeeper_backend8handlers10attendance5testss_41test_attendance_status_response_structure
FNDA:1,_RNvNtNtNtCs86yVScfUyun_18timekeeper_backend8handlers10attendance5testss_43test_attendance_export_query_default_values
FNDA:0,_RNCNCNvNtNtCs86yVScfUyun_18timekeeper_backend8handlers10attendance14get_my_summary00B9_
FNDA:0,_RNCNCNvNtNtCs86yVScfUyun_18timekeeper_backend8handlers10attendance14get_my_summary0s0_0B9_
FNDA:0,_RNCNCNvNtNtCs86yVScfUyun_18timekeeper_backend8handlers10attendance14get_my_summary0s_0B9_
FNDA:0,_RNCNCNvNtNtCs86yVScfUyun_18timekeeper_backend8handlers10attendance17get_my_attendance00B9_
FNDA:0,_RNCNCNvNtNtCs86yVScfUyun_18timekeeper_backend8handlers10attendance17get_my_attendance0s0_0B9_
FNDA:0,_RNCNCNvNtNtCs86yVScfUyun_18timekeeper_backend8handlers10attendance17get_my_attendance0s1_0B9_
FNDA:0,_RNCNCNvNtNtCs86yVScfUyun_18timekeeper_backend8handlers10attendance17get_my_attendance0s2_0B9_
FNDA:0,_RNCNCNvNtNtCs86yVScfUyun_18timekeeper_backend8handlers10attendance17get_my_attendance0s_0B9_
FNDA:0,_RNCNCNvNtNtCs86yVScfUyun_18timekeeper_backend8handlers10attendance20export_my_attendance00B9_
FNDA:0,_RNCNCNvNtNtCs86yVScfUyun_18timekeeper_backend8handlers10attendance20export_my_attendance0s0_0B9_
FNDA:0,_RNCNCNvNtNtCs86yVScfUyun_18timekeeper_backend8handlers10attendance20export_my_attendance0s1_0B9_
FNDA:0,_RNCNCNvNtNtCs86yVScfUyun_18timekeeper_backend8handlers10attendance20export_my_attendance0s_0B9_
FNDA:0,_RNCNCNvNtNtCs86yVScfUyun_18timekeeper_backend8handlers10attendance21get_attendance_status00B9_
FNDA:0,_RNCNCNvNtNtCs86yVScfUyun_18timekeeper_backend8handlers10attendance21get_attendance_status0s_0B9_
FNDA:0,_RNCNCNvNtNtCs86yVScfUyun_18timekeeper_backend8handlers10attendance24get_breaks_by_attendance00B9_
FNDA:0,_RNCNCNvNtNtCs86yVScfUyun_18timekeeper_backend8handlers10attendance8clock_in00B9_
FNDA:0,_RNCNCNvNtNtCs86yVScfUyun_18timekeeper_backend8handlers10attendance9clock_out00B9_
FNDA:0,_RNCNCNvNtNtCs86yVScfUyun_18timekeeper_backend8handlers10attendance9clock_out0s_0B9_
FNDA:0,_RNCNvNtNtCs86yVScfUyun_18timekeeper_backend8handlers10attendance11break_start0B7_
FNDA:0,_RNCNvNtNtCs86yVScfUyun_18timekeeper_backend8handlers10attendance14get_my_summary0B7_
FNDA:0,_RNCNvNtNtCs86yVScfUyun_18timekeeper_backend8handlers10attendance17get_my_attendance0B7_
FNDA:0,_RNCNvNtNtCs86yVScfUyun_18timekeeper_backend8handlers10attendance17reject_if_holiday0B7_
FNDA:0,_RNCNvNtNtCs86yVScfUyun_18timekeeper_backend8handlers10attendance19total_break_minutes0B7_
FNDA:0,_RNCNvNtNtCs86yVScfUyun_18timekeeper_backend8handlers10attendance20export_my_attendance0B7_
FNDA:0,_RNCNvNtNtCs86yVScfUyun_18timekeeper_backend8handlers10attendance21get_attendance_status0B7_
FNDA:0,_RNCNvNtNtCs86yVScfUyun_18timekeeper_backend8handlers10attendance23recalculate_total_hours0B7_
FNDA:0,_RNCNvNtNtCs86yVScfUyun_18timekeeper_backend8handlers10attendance24get_breaks_by_attendance0B7_
FNDA:0,_RNCNvNtNtCs86yVScfUyun_18timekeeper_backend8handlers10attendance8clock_in0B7_
FNDA:0,_RNCNvNtNtCs86yVScfUyun_18timekeeper_backend8handlers10attendance9break_end0B7_
FNDA:0,_RNCNvNtNtCs86yVScfUyun_18timekeeper_backend8handlers10attendance9clock_out0B7_
FNDA:0,_RNvNtNtCs86yVScfUyun_18timekeeper_backend8handlers10attendance17reject_if_holiday
FNDA:0,_RNvNtNtCs86yVScfUyun_18timekeeper_backend8handlers10attendance19total_break_minutes
FNDA:0,_RNvNtNtCs86yVScfUyun_18timekeeper_backend8handlers10attendance23recalculate_total_hours
FNDA:0,_RNvNtNtCs86yVScfUyun_18timekeeper_backend8handlers10attendance25build_attendance_response
FNF:50
FNH:33
DA:62,9
DA:63,9
DA:64,9
DA:65,9
DA:66,9
DA:67,9
DA:68,9
DA:70,9
DA:71,9
DA:72,9
DA:73,9
DA:74,9
DA:76,9
DA:78,8
DA:79,9
DA:80,1
DA:81,1
DA:82,0
DA:83,0
DA:84,0
DA:85,0
DA:88,8
DA:89,8
DA:90,8
DA:91,8
DA:95,8
DA:96,8
DA:98,8
DA:99,9
DA:101,3
DA:102,3
DA:103,3
DA:104,3
DA:105,3
DA:106,3
DA:107,3
DA:109,3
DA:110,3
DA:111,3
DA:112,3
DA:113,3
DA:115,3
DA:117,3
DA:118,3
DA:119,3
DA:120,3
DA:122,2
DA:123,2
DA:125,2
DA:126,2
DA:127,2
DA:128,2
DA:130,2
DA:131,1
DA:132,1
DA:133,1
DA:134,1
DA:136,1
DA:137,1
DA:138,1
DA:139,1
DA:141,1
DA:143,1
DA:144,1
DA:146,1
DA:147,3
DA:149,3
DA:150,3
DA:151,3
DA:152,3
DA:153,3
DA:154,3
DA:155,3
DA:156,3
DA:157,3
DA:160,3
DA:161,2
DA:162,2
DA:165,2
DA:166,2
DA:167,2
DA:168,2
DA:170,2
DA:171,0
DA:172,2
DA:174,2
DA:175,2
DA:177,2
DA:178,2
DA:179,3
DA:181,1
DA:182,1
DA:183,1
DA:184,1
DA:185,1
DA:186,1
DA:187,1
DA:188,1
DA:189,1
DA:192,1
DA:193,1
DA:194,1
DA:195,1
DA:197,1
DA:198,0
DA:199,1
DA:200,1
DA:201,1
DA:203,1
DA:204,1
DA:206,1
DA:207,0
DA:208,1
DA:210,1
DA:211,1
DA:212,1
DA:214,1
DA:215,1
DA:216,1
DA:217,1
DA:218,1
DA:219,1
DA:221,1
DA:222,1
DA:223,0
DA:224,0
DA:225,0
DA:226,0
DA:227,1
DA:228,0
DA:229,0
DA:230,0
DA:231,0
DA:232,0
DA:233,0
DA:235,1
DA:236,1
DA:237,1
DA:238,1
DA:239,0
DA:241,1
DA:242,1
DA:243,1
DA:245,0
DA:247,1
DA:250,1
DA:251,1
DA:252,1
DA:253,1
DA:255,1
DA:256,1
DA:258,1
DA:259,1
DA:260,1
DA:261,1
DA:262,1
DA:264,1
DA:265,1
DA:267,2
DA:268,2
DA:269,2
DA:270,2
DA:271,2
DA:272,2
DA:273,2
DA:274,2
DA:275,2
DA:276,2
DA:278,2
DA:279,2
DA:280,2
DA:281,2
DA:283,2
DA:285,1
DA:286,1
DA:287,1
DA:288,1
DA:290,1
DA:291,0
DA:292,0
DA:293,0
DA:294,0
DA:295,0
DA:296,0
DA:297,0
DA:298,1
DA:299,0
DA:300,0
DA:301,0
DA:302,0
DA:303,0
DA:304,0
DA:305,0
DA:306,1
DA:307,0
DA:308,0
DA:309,0
DA:310,0
DA:311,0
DA:312,0
DA:313,0
DA:314,0
DA:316,1
DA:317,1
DA:318,1
DA:319,1
DA:320,1
DA:321,1
DA:322,1
DA:324,1
DA:326,1
DA:327,1
DA:328,1
DA:329,1
DA:330,1
DA:331,1
DA:332,1
DA:334,2
DA:336,2
DA:337,2
DA:338,2
DA:339,2
DA:340,2
DA:341,2
DA:342,2
DA:343,2
DA:344,2
DA:345,1
DA:346,1
DA:347,2
DA:349,0
DA:350,0
DA:351,0
DA:352,0
DA:353,0
DA:354,0
DA:356,0
DA:357,0
DA:358,0
DA:360,0
DA:361,0
DA:363,0
DA:364,0
DA:365,0
DA:367,0
DA:370,0
DA:371,0
DA:372,0
DA:373,0
DA:375,0
DA:376,0
DA:377,0
DA:379,0
DA:382,0
DA:383,0
DA:384,0
DA:385,0
DA:386,0
DA:387,0
DA:388,0
DA:390,0
DA:391,0
DA:393,0
DA:394,0
DA:395,0
DA:396,0
DA:397,0
DA:398,0
DA:399,0
DA:401,0
DA:402,0
DA:403,0
DA:404,0
DA:405,0
DA:407,0
DA:408,0
DA:409,0
DA:410,0
DA:412,0
DA:413,0
DA:414,0
DA:415,0
DA:416,0
DA:417,0
DA:418,0
DA:419,0
DA:420,0
DA:421,0
DA:422,0
DA:423,0
DA:425,0
DA:426,0
DA:427,0
DA:428,0
DA:429,0
DA:430,0
DA:431,0
DA:432,0
DA:433,0
DA:434,0
DA:435,0
DA:436,0
DA:437,0
DA:438,0
DA:439,0
DA:440,0
DA:441,0
DA:443,0
DA:444,0
DA:445,0
DA:446,0
DA:447,0
DA:448,0
DA:449,0
DA:450,0
DA:451,0
DA:452,0
DA:453,0
DA:457,0
DA:458,0
DA:459,0
DA:460,0
DA:461,0
DA:462,0
DA:463,0
DA:464,0
DA:466,10
DA:467,10
DA:468,10
DA:469,10
DA:470,10
DA:471,10
DA:472,10
DA:473,10
DA:474,10
DA:475,10
DA:476,10
DA:477,10
DA:478,10
DA:479,10
DA:480,10
DA:482,1
DA:483,1
DA:484,1
DA:485,1
DA:486,1
DA:487,1
DA:488,1
DA:490,0
DA:491,0
DA:492,0
DA:493,0
DA:494,0
DA:495,0
DA:496,0
DA:497,0
DA:499,0
DA:500,0
DA:502,0
DA:503,0
DA:505,0
DA:506,0
DA:508,0
DA:509,0
DA:511,12
DA:512,12
DA:513,12
DA:514,12
DA:515,12
DA:516,12
DA:517,12
DA:518,12
DA:520,12
DA:521,0
DA:522,0
DA:523,0
DA:524,0
DA:525,0
DA:526,12
DA:528,12
DA:529,12
DA:537,2
DA:538,2
DA:539,2
DA:540,2
DA:541,2
DA:542,2
DA:543,2
DA:544,2
DA:545,2
DA:546,2
DA:547,2
DA:548,2
DA:551,2
DA:552,2
DA:553,2
DA:554,2
DA:555,2
DA:556,2
DA:557,2
DA:558,2
DA:559,2
DA:560,2
DA:561,2
DA:562,2
DA:563,2
DA:566,2
DA:567,2
DA:568,2
DA:569,2
DA:570,2
DA:571,2
DA:572,2
DA:573,2
DA:576,2
DA:577,2
DA:578,2
DA:579,2
DA:580,2
DA:581,2
DA:582,2
DA:583,2
DA:584,2
DA:585,2
DA:586,2
DA:587,2
DA:590,2
DA:591,2
DA:592,2
DA:593,2
DA:594,2
DA:597,2
DA:598,2
DA:599,2
DA:600,2
DA:601,2
DA:604,2
DA:605,2
DA:606,2
DA:607,2
DA:608,2
DA:609,2
DA:610,2
DA:611,2
DA:612,2
DA:613,2
DA:614,2
DA:615,2
DA:616,2
DA:617,2
BRF:0
BRH:0
LF:480
LH:308
end_of_record
SF:/home/marra/projects/timekeeper/backend/src/handlers/attendance_utils.rs
FN:80,_RNCNvNtNtCs2oPl7zguF9n_18timekeeper_backend8handlers16attendance_utils15update_clock_in0B7_
FN:86,_RNCNvNtNtCs2oPl7zguF9n_18timekeeper_backend8handlers16attendance_utils16update_clock_out0B7_
FN:95,_RNCNvNtNtCs2oPl7zguF9n_18timekeeper_backend8handlers16attendance_utils17get_break_records0B7_
FN:108,_RNCNvNtNtCs2oPl7zguF9n_18timekeeper_backend8handlers16attendance_utils21get_break_records_map0B7_
FN:66,_RNCNvNtNtCs2oPl7zguF9n_18timekeeper_backend8handlers16attendance_utils22fetch_attendance_by_id0B7_
FN:74,_RNCNvNtNtCs2oPl7zguF9n_18timekeeper_backend8handlers16attendance_utils24insert_attendance_record0B7_
FN:58,_RNCNvNtNtCs2oPl7zguF9n_18timekeeper_backend8handlers16attendance_utils29fetch_attendance_by_user_date0B7_
FN:80,_RNvNtNtCs2oPl7zguF9n_18timekeeper_backend8handlers16attendance_utils15update_clock_in
FN:86,_RNvNtNtCs2oPl7zguF9n_18timekeeper_backend8handlers16attendance_utils16update_clock_out
FN:44,_RNvNtNtCs2oPl7zguF9n_18timekeeper_backend8handlers16attendance_utils17ensure_clocked_in
FN:92,_RNvNtNtCs2oPl7zguF9n_18timekeeper_backend8handlers16attendance_utils17get_break_records
FN:18,_RNvNtNtCs2oPl7zguF9n_18timekeeper_backend8handlers16attendance_utils21ensure_not_clocked_in
FN:105,_RNvNtNtCs2oPl7zguF9n_18timekeeper_backend8handlers16attendance_utils21get_break_records_map
FN:34,_RNvNtNtCs2oPl7zguF9n_18timekeeper_backend8handlers16attendance_utils22ensure_clock_in_exists
FN:26,_RNvNtNtCs2oPl7zguF9n_18timekeeper_backend8handlers16attendance_utils22ensure_not_clocked_out
FN:63,_RNvNtNtCs2oPl7zguF9n_18timekeeper_backend8handlers16attendance_utils22fetch_attendance_by_id
FN:10,_RNvNtNtCs2oPl7zguF9n_18timekeeper_backend8handlers16attendance_utils24ensure_authorized_access
FN:71,_RNvNtNtCs2oPl7zguF9n_18timekeeper_backend8handlers16attendance_utils24insert_attendance_record
FN:54,_RNvNtNtCs2oPl7zguF9n_18timekeeper_backend8handlers16attendance_utils29fetch_attendance_by_user_date
FN:80,_RNvNtNtCsjEFxG0ag9NF_18timekeeper_backend8handlers16attendance_utils15update_clock_in
FN:86,_RNvNtNtCsjEFxG0ag9NF_18timekeeper_backend8handlers16attendance_utils16update_clock_out
FN:44,_RNvNtNtCsjEFxG0ag9NF_18timekeeper_backend8handlers16attendance_utils17ensure_clocked_in
FN:92,_RNvNtNtCsjEFxG0ag9NF_18timekeeper_backend8handlers16attendance_utils17get_break_records
FN:18,_RNvNtNtCsjEFxG0ag9NF_18timekeeper_backend8handlers16attendance_utils21ensure_not_clocked_in
FN:105,_RNvNtNtCsjEFxG0ag9NF_18timekeeper_backend8handlers16attendance_utils21get_break_records_map
FN:34,_RNvNtNtCsjEFxG0ag9NF_18timekeeper_backend8handlers16attendance_utils22ensure_clock_in_exists
FN:26,_RNvNtNtCsjEFxG0ag9NF_18timekeeper_backend8handlers16attendance_utils22ensure_not_clocked_out
FN:63,_RNvNtNtCsjEFxG0ag9NF_18timekeeper_backend8handlers16attendance_utils22fetch_attendance_by_id
FN:10,_RNvNtNtCsjEFxG0ag9NF_18timekeeper_backend8handlers16attendance_utils24ensure_authorized_access
FN:71,_RNvNtNtCsjEFxG0ag9NF_18timekeeper_backend8handlers16attendance_utils24insert_attendance_record
FN:54,_RNvNtNtCsjEFxG0ag9NF_18timekeeper_backend8handlers16attendance_utils29fetch_attendance_by_user_date
FN:80,_RNCNvNtNtCsjEFxG0ag9NF_18timekeeper_backend8handlers16attendance_utils15update_clock_in0B7_
FN:86,_RNCNvNtNtCsjEFxG0ag9NF_18timekeeper_backend8handlers16attendance_utils16update_clock_out0B7_
FN:95,_RNCNvNtNtCsjEFxG0ag9NF_18timekeeper_backend8handlers16attendance_utils17get_break_records0B7_
FN:108,_RNCNvNtNtCsjEFxG0ag9NF_18timekeeper_backend8handlers16attendance_utils21get_break_records_map0B7_
FN:66,_RNCNvNtNtCsjEFxG0ag9NF_18timekeeper_backend8handlers16attendance_utils22fetch_attendance_by_id0B7_
FN:74,_RNCNvNtNtCsjEFxG0ag9NF_18timekeeper_backend8handlers16attendance_utils24insert_attendance_record0B7_
FN:58,_RNCNvNtNtCsjEFxG0ag9NF_18timekeeper_backend8handlers16attendance_utils29fetch_attendance_by_user_date0B7_
FN:80,_RNvNtNtCsiqn6J3Zmf7c_18timekeeper_backend8handlers16attendance_utils15update_clock_in
FN:86,_RNvNtNtCsiqn6J3Zmf7c_18timekeeper_backend8handlers16attendance_utils16update_clock_out
FN:44,_RNvNtNtCsiqn6J3Zmf7c_18timekeeper_backend8handlers16attendance_utils17ensure_clocked_in
FN:92,_RNvNtNtCsiqn6J3Zmf7c_18timekeeper_backend8handlers16attendance_utils17get_break_records
FN:18,_RNvNtNtCsiqn6J3Zmf7c_18timekeeper_backend8handlers16attendance_utils21ensure_not_clocked_in
FN:105,_RNvNtNtCsiqn6J3Zmf7c_18timekeeper_backend8handlers16attendance_utils21get_break_records_map
FN:34,_RNvNtNtCsiqn6J3Zmf7c_18timekeeper_backend8handlers16attendance_utils22ensure_clock_in_exists
FN:26,_RNvNtNtCsiqn6J3Zmf7c_18timekeeper_backend8handlers16attendance_utils22ensure_not_clocked_out
FN:63,_RNvNtNtCsiqn6J3Zmf7c_18timekeeper_backend8handlers16attendance_utils22fetch_attendance_by_id
FN:10,_RNvNtNtCsiqn6J3Zmf7c_18timekeeper_backend8handlers16attendance_utils24ensure_authorized_access
FN:71,_RNvNtNtCsiqn6J3Zmf7c_18timekeeper_backend8handlers16attendance_utils24insert_attendance_record
FN:54,_RNvNtNtCsiqn6J3Zmf7c_18timekeeper_backend8handlers16attendance_utils29fetch_attendance_by_user_date
FN:80,_RNCNvNtNtCsiqn6J3Zmf7c_18timekeeper_backend8handlers16attendance_utils15update_clock_in0B7_
FN:86,_RNCNvNtNtCsiqn6J3Zmf7c_18timekeeper_backend8handlers16attendance_utils16update_clock_out0B7_
FN:95,_RNCNvNtNtCsiqn6J3Zmf7c_18timekeeper_backend8handlers16attendance_utils17get_break_records0B7_
FN:108,_RNCNvNtNtCsiqn6J3Zmf7c_18timekeeper_backend8handlers16attendance_utils21get_break_records_map0B7_
FN:66,_RNCNvNtNtCsiqn6J3Zmf7c_18timekeeper_backend8handlers16attendance_utils22fetch_attendance_by_id0B7_
FN:74,_RNCNvNtNtCsiqn6J3Zmf7c_18timekeeper_backend8handlers16attendance_utils24insert_attendance_record0B7_
FN:58,_RNCNvNtNtCsiqn6J3Zmf7c_18timekeeper_backend8handlers16attendance_utils29fetch_attendance_by_user_date0B7_
FN:80,_RNvNtNtCs86yVScfUyun_18timekeeper_backend8handlers16attendance_utils15update_clock_in
FN:86,_RNvNtNtCs86yVScfUyun_18timekeeper_backend8handlers16attendance_utils16update_clock_out
FN:44,_RNvNtNtCs86yVScfUyun_18timekeeper_backend8handlers16attendance_utils17ensure_clocked_in
FN:92,_RNvNtNtCs86yVScfUyun_18timekeeper_backend8handlers16attendance_utils17get_break_records
FN:18,_RNvNtNtCs86yVScfUyun_18timekeeper_backend8handlers16attendance_utils21ensure_not_clocked_in
FN:105,_RNvNtNtCs86yVScfUyun_18timekeeper_backend8handlers16attendance_utils21get_break_records_map
FN:34,_RNvNtNtCs86yVScfUyun_18timekeeper_backend8handlers16attendance_utils22ensure_clock_in_exists
FN:26,_RNvNtNtCs86yVScfUyun_18timekeeper_backend8handlers16attendance_utils22ensure_not_clocked_out
FN:63,_RNvNtNtCs86yVScfUyun_18timekeeper_backend8handlers16attendance_utils22fetch_attendance_by_id
FN:10,_RNvNtNtCs86yVScfUyun_18timekeeper_backend8handlers16attendance_utils24ensure_authorized_access
FN:71,_RNvNtNtCs86yVScfUyun_18timekeeper_backend8handlers16attendance_utils24insert_attendance_record
FN:54,_RNvNtNtCs86yVScfUyun_18timekeeper_backend8handlers16attendance_utils29fetch_attendance_by_user_date
FN:80,_RNCNvNtNtCs86yVScfUyun_18timekeeper_backend8handlers16attendance_utils15update_clock_in0B7_
FN:86,_RNCNvNtNtCs86yVScfUyun_18timekeeper_backend8handlers16attendance_utils16update_clock_out0B7_
FN:95,_RNCNvNtNtCs86yVScfUyun_18timekeeper_backend8handlers16attendance_utils17get_break_records0B7_
FN:108,_RNCNvNtNtCs86yVScfUyun_18timekeeper_backend8handlers16attendance_utils21get_break_records_map0B7_
FN:66,_RNCNvNtNtCs86yVScfUyun_18timekeeper_backend8handlers16attendance_utils22fetch_attendance_by_id0B7_
FN:74,_RNCNvNtNtCs86yVScfUyun_18timekeeper_backend8handlers16attendance_utils24insert_attendance_record0B7_
FN:58,_RNCNvNtNtCs86yVScfUyun_18timekeeper_backend8handlers16attendance_utils29fetch_attendance_by_user_date0B7_
FNDA:0,_RNCNvNtNtCs2oPl7zguF9n_18timekeeper_backend8handlers16attendance_utils15update_clock_in0B7_
FNDA:1,_RNCNvNtNtCs2oPl7zguF9n_18timekeeper_backend8handlers16attendance_utils16update_clock_out0B7_
FNDA:11,_RNCNvNtNtCs2oPl7zguF9n_18timekeeper_backend8handlers16attendance_utils17get_break_records0B7_
FNDA:2,_RNCNvNtNtCs2oPl7zguF9n_18timekeeper_backend8handlers16attendance_utils21get_break_records_map0B7_
FNDA:6,_RNCNvNtNtCs2oPl7zguF9n_18timekeeper_backend8handlers16attendance_utils22fetch_attendance_by_id0B7_
FNDA:8,_RNCNvNtNtCs2oPl7zguF9n_18timekeeper_backend8handlers16attendance_utils24insert_attendance_record0B7_
FNDA:12,_RNCNvNtNtCs2oPl7zguF9n_18timekeeper_backend8handlers16attendance_utils29fetch_attendance_by_user_date0B7_
FNDA:0,_RNvNtNtCs2oPl7zguF9n_18timekeeper_backend8handlers16attendance_utils15update_clock_in
FNDA:1,_RNvNtNtCs2oPl7zguF9n_18timekeeper_backend8handlers16attendance_utils16update_clock_out
FNDA:2,_RNvNtNtCs2oPl7zguF9n_18timekeeper_backend8handlers16attendance_utils17ensure_clocked_in
FNDA:11,_RNvNtNtCs2oPl7zguF9n_18timekeeper_backend8handlers16attendance_utils17get_break_records
FNDA:1,_RNvNtNtCs2oPl7zguF9n_18timekeeper_backend8handlers16attendance_utils21ensure_not_clocked_in
FNDA:2,_RNvNtNtCs2oPl7zguF9n_18timekeeper_backend8handlers16attendance_utils21get_break_records_map
FNDA:2,_RNvNtNtCs2oPl7zguF9n_18timekeeper_backend8handlers16attendance_utils22ensure_clock_in_exists
FNDA:2,_RNvNtNtCs2oPl7zguF9n_18timekeeper_backend8handlers16attendance_utils22ensure_not_clocked_out
FNDA:6,_RNvNtNtCs2oPl7zguF9n_18timekeeper_backend8handlers16attendance_utils22fetch_attendance_by_id
FNDA:5,_RNvNtNtCs2oPl7zguF9n_18timekeeper_backend8handlers16attendance_utils24ensure_authorized_access
FNDA:8,_RNvNtNtCs2oPl7zguF9n_18timekeeper_backend8handlers16attendance_utils24insert_attendance_record
FNDA:12,_RNvNtNtCs2oPl7zguF9n_18timekeeper_backend8handlers16attendance_utils29fetch_attendance_by_user_date
FNDA:0,_RNvNtNtCsjEFxG0ag9NF_18timekeeper_backend8handlers16attendance_utils15update_clock_in
FNDA:0,_RNvNtNtCsjEFxG0ag9NF_18timekeeper_backend8handlers16attendance_utils16update_clock_out
FNDA:0,_RNvNtNtCsjEFxG0ag9NF_18timekeeper_backend8handlers16attendance_utils17ensure_clocked_in
FNDA:0,_RNvNtNtCsjEFxG0ag9NF_18timekeeper_backend8handlers16attendance_utils17get_break_records
FNDA:0,_RNvNtNtCsjEFxG0ag9NF_18timekeeper_backend8handlers16attendance_utils21ensure_not_clocked_in
FNDA:0,_RNvNtNtCsjEFxG0ag9NF_18timekeeper_backend8handlers16attendance_utils21get_break_records_map
FNDA:0,_RNvNtNtCsjEFxG0ag9NF_18timekeeper_backend8handlers16attendance_utils22ensure_clock_in_exists
FNDA:0,_RNvNtNtCsjEFxG0ag9NF_18timekeeper_backend8handlers16attendance_utils22ensure_not_clocked_out
FNDA:0,_RNvNtNtCsjEFxG0ag9NF_18timekeeper_backend8handlers16attendance_utils22fetch_attendance_by_id
FNDA:0,_RNvNtNtCsjEFxG0ag9NF_18timekeeper_backend8handlers16attendance_utils24ensure_authorized_access
FNDA:0,_RNvNtNtCsjEFxG0ag9NF_18timekeeper_backend8handlers16attendance_utils24insert_attendance_record
FNDA:0,_RNvNtNtCsjEFxG0ag9NF_18timekeeper_backend8handlers16attendance_utils29fetch_attendance_by_user_date
FNDA:0,_RNCNvNtNtCsjEFxG0ag9NF_18timekeeper_backend8handlers16attendance_utils15update_clock_in0B7_
FNDA:0,_RNCNvNtNtCsjEFxG0ag9NF_18timekeeper_backend8handlers16attendance_utils16update_clock_out0B7_
FNDA:0,_RNCNvNtNtCsjEFxG0ag9NF_18timekeeper_backend8handlers16attendance_utils17get_break_records0B7_
FNDA:0,_RNCNvNtNtCsjEFxG0ag9NF_18timekeeper_backend8handlers16attendance_utils21get_break_records_map0B7_
FNDA:0,_RNCNvNtNtCsjEFxG0ag9NF_18timekeeper_backend8handlers16attendance_utils22fetch_attendance_by_id0B7_
FNDA:0,_RNCNvNtNtCsjEFxG0ag9NF_18timekeeper_backend8handlers16attendance_utils24insert_attendance_record0B7_
FNDA:0,_RNCNvNtNtCsjEFxG0ag9NF_18timekeeper_backend8handlers16attendance_utils29fetch_attendance_by_user_date0B7_
FNDA:0,_RNvNtNtCsiqn6J3Zmf7c_18timekeeper_backend8handlers16attendance_utils15update_clock_in
FNDA:0,_RNvNtNtCsiqn6J3Zmf7c_18timekeeper_backend8handlers16attendance_utils16update_clock_out
FNDA:0,_RNvNtNtCsiqn6J3Zmf7c_18timekeeper_backend8handlers16attendance_utils17ensure_clocked_in
FNDA:0,_RNvNtNtCsiqn6J3Zmf7c_18timekeeper_backend8handlers16attendance_utils17get_break_records
FNDA:0,_RNvNtNtCsiqn6J3Zmf7c_18timekeeper_backend8handlers16attendance_utils21ensure_not_clocked_in
FNDA:0,_RNvNtNtCsiqn6J3Zmf7c_18timekeeper_backend8handlers16attendance_utils21get_break_records_map
FNDA:0,_RNvNtNtCsiqn6J3Zmf7c_18timekeeper_backend8handlers16attendance_utils22ensure_clock_in_exists
FNDA:0,_RNvNtNtCsiqn6J3Zmf7c_18timekeeper_backend8handlers16attendance_utils22ensure_not_clocked_out
FNDA:0,_RNvNtNtCsiqn6J3Zmf7c_18timekeeper_backend8handlers16attendance_utils22fetch_attendance_by_id
FNDA:0,_RNvNtNtCsiqn6J3Zmf7c_18timekeeper_backend8handlers16attendance_utils24ensure_authorized_access
FNDA:0,_RNvNtNtCsiqn6J3Zmf7c_18timekeeper_backend8handlers16attendance_utils24insert_attendance_record
FNDA:0,_RNvNtNtCsiqn6J3Zmf7c_18timekeeper_backend8handlers16attendance_utils29fetch_attendance_by_user_date
FNDA:0,_RNCNvNtNtCsiqn6J3Zmf7c_18timekeeper_backend8handlers16attendance_utils15update_clock_in0B7_
FNDA:0,_RNCNvNtNtCsiqn6J3Zmf7c_18timekeeper_backend8handlers16attendance_utils16update_clock_out0B7_
FNDA:0,_RNCNvNtNtCsiqn6J3Zmf7c_18timekeeper_backend8handlers16attendance_utils17get_break_records0B7_
FNDA:0,_RNCNvNtNtCsiqn6J3Zmf7c_18timekeeper_backend8handlers16attendance_utils21get_break_records_map0B7_
FNDA:0,_RNCNvNtNtCsiqn6J3Zmf7c_18timekeeper_backend8handlers16attendance_utils22fetch_attendance_by_id0B7_
FNDA:0,_RNCNvNtNtCsiqn6J3Zmf7c_18timekeeper_backend8handlers16attendance_utils24insert_attendance_record0B7_
FNDA:0,_RNCNvNtNtCsiqn6J3Zmf7c_18timekeeper_backend8handlers16attendance_utils29fetch_attendance_by_user_date0B7_
FNDA:0,_RNvNtNtCs86yVScfUyun_18timekeeper_backend8handlers16attendance_utils15update_clock_in
FNDA:0,_RNvNtNtCs86yVScfUyun_18timekeeper_backend8handlers16attendance_utils16update_clock_out
FNDA:0,_RNvNtNtCs86yVScfUyun_18timekeeper_backend8handlers16attendance_utils17ensure_clocked_in
FNDA:0,_RNvNtNtCs86yVScfUyun_18timekeeper_backend8handlers16attendance_utils17get_break_records
FNDA:0,_RNvNtNtCs86yVScfUyun_18timekeeper_backend8handlers16attendance_utils21ensure_not_clocked_in
FNDA:0,_RNvNtNtCs86yVScfUyun_18timekeeper_backend8handlers16attendance_utils21get_break_records_map
FNDA:0,_RNvNtNtCs86yVScfUyun_18timekeeper_backend8handlers16attendance_utils22ensure_clock_in_exists
FNDA:0,_RNvNtNtCs86yVScfUyun_18timekeeper_backend8handlers16attendance_utils22ensure_not_clocked_out
FNDA:0,_RNvNtNtCs86yVScfUyun_18timekeeper_backend8handlers16attendance_utils22fetch_attendance_by_id
FNDA:0,_RNvNtNtCs86yVScfUyun_18timekeeper_backend8handlers16attendance_utils24ensure_authorized_access
FNDA:0,_RNvNtNtCs86yVScfUyun_18timekeeper_backend8handlers16attendance_utils24insert_attendance_record
FNDA:0,_RNvNtNtCs86yVScfUyun_18timekeeper_backend8handlers16attendance_utils29fetch_attendance_by_user_date
FNDA:0,_RNCNvNtNtCs86yVScfUyun_18timekeeper_backend8handlers16attendance_utils15update_clock_in0B7_
FNDA:0,_RNCNvNtNtCs86yVScfUyun_18timekeeper_backend8handlers16attendance_utils16update_clock_out0B7_
FNDA:0,_RNCNvNtNtCs86yVScfUyun_18timekeeper_backend8handlers16attendance_utils17get_break_records0B7_
FNDA:0,_RNCNvNtNtCs86yVScfUyun_18timekeeper_backend8handlers16attendance_utils21get_break_records_map0B7_
FNDA:0,_RNCNvNtNtCs86yVScfUyun_18timekeeper_backend8handlers16attendance_utils22fetch_attendance_by_id0B7_
FNDA:0,_RNCNvNtNtCs86yVScfUyun_18timekeeper_backend8handlers16attendance_utils24insert_attendance_record0B7_
FNDA:0,_RNCNvNtNtCs86yVScfUyun_18timekeeper_backend8handlers16attendance_utils29fetch_attendance_by_user_date0B7_
FNF:19
FNH:17
DA:10,5
DA:11,5
DA:12,4
DA:14,1
DA:16,5
DA:18,1
DA:19,1
DA:20,1
DA:22,0
DA:24,1
DA:26,2
DA:27,2
DA:28,0
DA:30,2
DA:32,2
DA:34,2
DA:35,2
DA:36,0
DA:37,0
DA:38,0
DA:40,2
DA:42,2
DA:44,2
DA:45,2
DA:46,2
DA:48,0
DA:49,0
DA:50,0
DA:52,2
DA:54,12
DA:55,12
DA:56,12
DA:57,12
DA:58,12
DA:59,12
DA:60,12
DA:61,12
DA:63,6
DA:64,6
DA:65,6
DA:66,6
DA:67,6
DA:68,6
DA:69,6
DA:71,8
DA:72,8
DA:73,8
DA:74,8
DA:75,8
DA:76,8
DA:77,8
DA:78,8
DA:80,0
DA:81,0
DA:82,0
DA:83,0
DA:84,0
DA:86,1
DA:87,1
DA:88,1
DA:89,1
DA:90,1
DA:92,11
DA:93,11
DA:94,11
DA:95,11
DA:96,11
DA:97,11
DA:99,11
DA:100,11
DA:101,11
DA:102,11
DA:103,11
DA:105,2
DA:106,2
DA:107,2
DA:108,2
DA:109,2
DA:110,1
DA:111,1
DA:113,1
DA:114,1
DA:116,1
DA:117,1
DA:118,0
DA:119,0
DA:120,0
DA:121,0
DA:122,0
DA:123,1
DA:124,2
BRF:0
BRH:0
LF:98
LH:79
end_of_record
SF:/home/marra/projects/timekeeper/backend/src/handlers/auth.rs
FN:1390,_RINvNtNtCs2oPl7zguF9n_18timekeeper_backend8handlers4auth11bad_requestNtNtCshQKOepsJxml_5alloc6string6StringEB6_
FN:1390,_RINvNtNtCs2oPl7zguF9n_18timekeeper_backend8handlers4auth11bad_requestReEB6_
FN:1394,_RINvNtNtCs2oPl7zguF9n_18timekeeper_backend8handlers4auth12unauthorizedReEB6_
FN:1398,_RINvNtNtCs2oPl7zguF9n_18timekeeper_backend8handlers4auth14internal_errorReEB6_
FN:703,_RINvNtNtCs2oPl7zguF9n_18timekeeper_backend8handlers4auth22process_login_for_userNCNCNvB2_5login0s0_0NCB1i_s1_0NCB1i_s2_0NCNCB1i_s0_00NCNCB1i_s1_00NCNCB1i_s2_00EB6_
FN:718,_RNCINvNtNtCs2oPl7zguF9n_18timekeeper_backend8handlers4auth22process_login_for_userNCNCNvB4_5login0s0_0NCB1k_s1_0NCB1k_s2_0NCNCB1k_s0_00NCNCB1k_s1_00NCNCB1k_s2_00E0B8_
FN:735,_RNCNCINvNtNtCs2oPl7zguF9n_18timekeeper_backend8handlers4auth22process_login_for_userNCNCNvB6_5login0s0_0NCB1m_s1_0NCB1m_s2_0NCNCB1m_s0_00NCNCB1m_s1_00NCNCB1m_s2_00E00Ba_
FN:746,_RNCNCINvNtNtCs2oPl7zguF9n_18timekeeper_backend8handlers4auth22process_login_for_userNCNCNvB6_5login0s0_0NCB1m_s1_0NCB1m_s2_0NCNCB1m_s0_00NCNCB1m_s1_00NCNCB1m_s2_00E0s0_0Ba_
FN:739,_RNCNCINvNtNtCs2oPl7zguF9n_18timekeeper_backend8handlers4auth22process_login_for_userNCNCNvB6_5login0s0_0NCB1m_s1_0NCB1m_s2_0NCNCB1m_s0_00NCNCB1m_s1_00NCNCB1m_s2_00E0s_0Ba_
FN:94,_RNCNCNCNCNvNtNtCs2oPl7zguF9n_18timekeeper_backend8handlers4auth5login0s1_000Bd_
FN:83,_RNCNCNCNvNtNtCs2oPl7zguF9n_18timekeeper_backend8handlers4auth5login0s0_00Bb_
FN:90,_RNCNCNCNvNtNtCs2oPl7zguF9n_18timekeeper_backend8handlers4auth5login0s1_00Bb_
FN:107,_RNCNCNCNvNtNtCs2oPl7zguF9n_18timekeeper_backend8handlers4auth5login0s2_00Bb_
FN:306,_RNCNCNCNvNtNtCs2oPl7zguF9n_18timekeeper_backend8handlers4auth6logout0s5_00Bb_
FN:144,_RNCNCNCNvNtNtCs2oPl7zguF9n_18timekeeper_backend8handlers4auth7refresh000Bb_
FN:145,_RNCNCNCNvNtNtCs2oPl7zguF9n_18timekeeper_backend8handlers4auth7refresh00s_0Bb_
FN:1087,_RNCNCNvNtNtCs2oPl7zguF9n_18timekeeper_backend8handlers4auth11enforce_mfa00B9_
FN:461,_RNCNCNvNtNtCs2oPl7zguF9n_18timekeeper_backend8handlers4auth11mfa_disable00B9_
FN:470,_RNCNCNvNtNtCs2oPl7zguF9n_18timekeeper_backend8handlers4auth11mfa_disable0s0_0B9_
FN:477,_RNCNCNvNtNtCs2oPl7zguF9n_18timekeeper_backend8handlers4auth11mfa_disable0s1_0B9_
FN:480,_RNCNCNvNtNtCs2oPl7zguF9n_18timekeeper_backend8handlers4auth11mfa_disable0s2_0B9_
FN:464,_RNCNCNvNtNtCs2oPl7zguF9n_18timekeeper_backend8handlers4auth11mfa_disable0s_0B9_
FN:418,_RNCNCNvNtNtCs2oPl7zguF9n_18timekeeper_backend8handlers4auth12mfa_activate00B9_
FN:428,_RNCNCNvNtNtCs2oPl7zguF9n_18timekeeper_backend8handlers4auth12mfa_activate0s0_0B9_
FN:435,_RNCNCNvNtNtCs2oPl7zguF9n_18timekeeper_backend8handlers4auth12mfa_activate0s1_0B9_
FN:438,_RNCNCNvNtNtCs2oPl7zguF9n_18timekeeper_backend8handlers4auth12mfa_activate0s2_0B9_
FN:421,_RNCNCNvNtNtCs2oPl7zguF9n_18timekeeper_backend8handlers4auth12mfa_activate0s_0B9_
FN:587,_RNCNCNvNtNtCs2oPl7zguF9n_18timekeeper_backend8handlers4auth14reset_password00B9_
FN:593,_RNCNCNvNtNtCs2oPl7zguF9n_18timekeeper_backend8handlers4auth14reset_password0s0_0B9_
FN:597,_RNCNCNvNtNtCs2oPl7zguF9n_18timekeeper_backend8handlers4auth14reset_password0s1_0B9_
FN:598,_RNCNCNvNtNtCs2oPl7zguF9n_18timekeeper_backend8handlers4auth14reset_password0s2_0B9_
FN:611,_RNCNCNvNtNtCs2oPl7zguF9n_18timekeeper_backend8handlers4auth14reset_password0s3_0B9_
FN:614,_RNCNCNvNtNtCs2oPl7zguF9n_18timekeeper_backend8handlers4auth14reset_password0s4_0B9_
FN:615,_RNCNCNvNtNtCs2oPl7zguF9n_18timekeeper_backend8handlers4auth14reset_password0s5_0B9_
FN:625,_RNCNCNvNtNtCs2oPl7zguF9n_18timekeeper_backend8handlers4auth14reset_password0s6_0B9_
FN:629,_RNCNCNvNtNtCs2oPl7zguF9n_18timekeeper_backend8handlers4auth14reset_password0s7_0B9_
FN:633,_RNCNCNvNtNtCs2oPl7zguF9n_18timekeeper_backend8handlers4auth14reset_password0s8_0B9_
FN:637,_RNCNCNvNtNtCs2oPl7zguF9n_18timekeeper_backend8handlers4auth14reset_password0s9_0B9_
FN:592,_RNCNCNvNtNtCs2oPl7zguF9n_18timekeeper_backend8handlers4auth14reset_password0s_0B9_
FN:643,_RNCNCNvNtNtCs2oPl7zguF9n_18timekeeper_backend8handlers4auth14reset_password0sa_0B9_
FN:370,_RNCNCNvNtNtCs2oPl7zguF9n_18timekeeper_backend8handlers4auth14update_profile00B9_
FN:383,_RNCNCNvNtNtCs2oPl7zguF9n_18timekeeper_backend8handlers4auth14update_profile0s_0B9_
FN:498,_RNCNCNvNtNtCs2oPl7zguF9n_18timekeeper_backend8handlers4auth15change_password00B9_
FN:526,_RNCNCNvNtNtCs2oPl7zguF9n_18timekeeper_backend8handlers4auth15change_password0s0_0B9_
FN:527,_RNCNCNvNtNtCs2oPl7zguF9n_18timekeeper_backend8handlers4auth15change_password0s1_0B9_
FN:537,_RNCNCNvNtNtCs2oPl7zguF9n_18timekeeper_backend8handlers4auth15change_password0s2_0B9_
FN:541,_RNCNCNvNtNtCs2oPl7zguF9n_18timekeeper_backend8handlers4auth15change_password0s3_0B9_
FN:544,_RNCNCNvNtNtCs2oPl7zguF9n_18timekeeper_backend8handlers4auth15change_password0s4_0B9_
FN:523,_RNCNCNvNtNtCs2oPl7zguF9n_18timekeeper_backend8handlers4auth15change_password0s_0B9_
FN:663,_RNCNCNvNtNtCs2oPl7zguF9n_18timekeeper_backend8handlers4auth19create_auth_session00B9_
FN:667,_RNCNCNvNtNtCs2oPl7zguF9n_18timekeeper_backend8handlers4auth19create_auth_session0s_0B9_
FN:688,_RNCNCNvNtNtCs2oPl7zguF9n_18timekeeper_backend8handlers4auth20begin_mfa_enrollment00B9_
FN:692,_RNCNCNvNtNtCs2oPl7zguF9n_18timekeeper_backend8handlers4auth20begin_mfa_enrollment0s_0B9_
FN:868,_RNCNCNvNtNtCs2oPl7zguF9n_18timekeeper_backend8handlers4auth21enforce_session_limit00B9_
FN:766,_RNCNCNvNtNtCs2oPl7zguF9n_18timekeeper_backend8handlers4auth21persist_refresh_token00B9_
FN:899,_RNCNCNvNtNtCs2oPl7zguF9n_18timekeeper_backend8handlers4auth21revoke_active_session00B9_
FN:907,_RNCNCNvNtNtCs2oPl7zguF9n_18timekeeper_backend8handlers4auth21revoke_active_session0s_0B9_
FN:561,_RNCNCNvNtNtCs2oPl7zguF9n_18timekeeper_backend8handlers4auth22request_password_reset00B9_
FN:570,_RNCNCNvNtNtCs2oPl7zguF9n_18timekeeper_backend8handlers4auth22request_password_reset0s0_0B9_
FN:567,_RNCNCNvNtNtCs2oPl7zguF9n_18timekeeper_backend8handlers4auth22request_password_reset0s_0B9_
FN:1069,_RNCNCNvNtNtCs2oPl7zguF9n_18timekeeper_backend8handlers4auth23ensure_password_matches00B9_
FN:1072,_RNCNCNvNtNtCs2oPl7zguF9n_18timekeeper_backend8handlers4auth23ensure_password_matches0s0_0B9_
FN:1071,_RNCNCNvNtNtCs2oPl7zguF9n_18timekeeper_backend8handlers4auth23ensure_password_matches0s_0B9_
FN:828,_RNCNCNvNtNtCs2oPl7zguF9n_18timekeeper_backend8handlers4auth23register_active_session00B9_
FN:1132,_RNCNCNvNtNtCs2oPl7zguF9n_18timekeeper_backend8handlers4auth26ensure_password_not_reused00B9_
FN:1141,_RNCNCNvNtNtCs2oPl7zguF9n_18timekeeper_backend8handlers4auth26ensure_password_not_reused0s0_0B9_
FN:1142,_RNCNCNvNtNtCs2oPl7zguF9n_18timekeeper_backend8handlers4auth26ensure_password_not_reused0s1_0B9_
FN:1135,_RNCNCNvNtNtCs2oPl7zguF9n_18timekeeper_backend8handlers4auth26ensure_password_not_reused0s_0B9_
FN:786,_RNCNCNvNtNtCs2oPl7zguF9n_18timekeeper_backend8handlers4auth27persist_active_access_token00B9_
FN:794,_RNCNCNvNtNtCs2oPl7zguF9n_18timekeeper_backend8handlers4auth27persist_active_access_token0s0_0B9_
FN:803,_RNCNCNvNtNtCs2oPl7zguF9n_18timekeeper_backend8handlers4auth27persist_active_access_token0s1_0B9_
FN:790,_RNCNCNvNtNtCs2oPl7zguF9n_18timekeeper_backend8handlers4auth27persist_active_access_token0s_0B9_
FN:72,_RNCNCNvNtNtCs2oPl7zguF9n_18timekeeper_backend8handlers4auth5login00B9_
FN:85,_RNCNCNvNtNtCs2oPl7zguF9n_18timekeeper_backend8handlers4auth5login0s0_0B9_
FN:99,_RNCNCNvNtNtCs2oPl7zguF9n_18timekeeper_backend8handlers4auth5login0s1_0B9_
FN:121,_RNCNCNvNtNtCs2oPl7zguF9n_18timekeeper_backend8handlers4auth5login0s2_0B9_
FN:73,_RNCNCNvNtNtCs2oPl7zguF9n_18timekeeper_backend8handlers4auth5login0s_0B9_
FN:263,_RNCNCNvNtNtCs2oPl7zguF9n_18timekeeper_backend8handlers4auth6logout00B9_
FN:271,_RNCNCNvNtNtCs2oPl7zguF9n_18timekeeper_backend8handlers4auth6logout0s0_0B9_
FN:274,_RNCNCNvNtNtCs2oPl7zguF9n_18timekeeper_backend8handlers4auth6logout0s1_0B9_
FN:277,_RNCNCNvNtNtCs2oPl7zguF9n_18timekeeper_backend8handlers4auth6logout0s2_0B9_
FN:302,_RNCNCNvNtNtCs2oPl7zguF9n_18timekeeper_backend8handlers4auth6logout0s3_0B9_
FN:303,_RNCNCNvNtNtCs2oPl7zguF9n_18timekeeper_backend8handlers4auth6logout0s4_0B9_
FN:304,_RNCNCNvNtNtCs2oPl7zguF9n_18timekeeper_backend8handlers4auth6logout0s5_0B9_
FN:312,_RNCNCNvNtNtCs2oPl7zguF9n_18timekeeper_backend8handlers4auth6logout0s6_0B9_
FN:318,_RNCNCNvNtNtCs2oPl7zguF9n_18timekeeper_backend8handlers4auth6logout0s7_0B9_
FN:322,_RNCNCNvNtNtCs2oPl7zguF9n_18timekeeper_backend8handlers4auth6logout0s8_0B9_
FN:326,_RNCNCNvNtNtCs2oPl7zguF9n_18timekeeper_backend8handlers4auth6logout0s9_0B9_
FN:268,_RNCNCNvNtNtCs2oPl7zguF9n_18timekeeper_backend8handlers4auth6logout0s_0B9_
FN:141,_RNCNCNvNtNtCs2oPl7zguF9n_18timekeeper_backend8handlers4auth7refresh00B9_
FN:150,_RNCNCNvNtNtCs2oPl7zguF9n_18timekeeper_backend8handlers4auth7refresh0s0_0B9_
FN:154,_RNCNCNvNtNtCs2oPl7zguF9n_18timekeeper_backend8handlers4auth7refresh0s1_0B9_
FN:155,_RNCNCNvNtNtCs2oPl7zguF9n_18timekeeper_backend8handlers4auth7refresh0s2_0B9_
FN:158,_RNCNCNvNtNtCs2oPl7zguF9n_18timekeeper_backend8handlers4auth7refresh0s3_0B9_
FN:165,_RNCNCNvNtNtCs2oPl7zguF9n_18timekeeper_backend8handlers4auth7refresh0s4_0B9_
FN:166,_RNCNCNvNtNtCs2oPl7zguF9n_18timekeeper_backend8handlers4auth7refresh0s5_0B9_
FN:179,_RNCNCNvNtNtCs2oPl7zguF9n_18timekeeper_backend8handlers4auth7refresh0s6_0B9_
FN:182,_RNCNCNvNtNtCs2oPl7zguF9n_18timekeeper_backend8handlers4auth7refresh0s7_0B9_
FN:185,_RNCNCNvNtNtCs2oPl7zguF9n_18timekeeper_backend8handlers4auth7refresh0s8_0B9_
FN:209,_RNCNCNvNtNtCs2oPl7zguF9n_18timekeeper_backend8handlers4auth7refresh0s9_0B9_
FN:147,_RNCNCNvNtNtCs2oPl7zguF9n_18timekeeper_backend8handlers4auth7refresh0s_0B9_
FN:230,_RNCNCNvNtNtCs2oPl7zguF9n_18timekeeper_backend8handlers4auth7refresh0sa_0B9_
FN:238,_RNCNCNvNtNtCs2oPl7zguF9n_18timekeeper_backend8handlers4auth7refresh0sb_0B9_
FN:242,_RNCNCNvNtNtCs2oPl7zguF9n_18timekeeper_backend8handlers4auth7refresh0sc_0B9_
FN:933,_RNCNvMNtNtCs2oPl7zguF9n_18timekeeper_backend8handlers4authNtB4_12AuditContext3new0B8_
FN:1000,_RNCNvMs_NtNtCs2oPl7zguF9n_18timekeeper_backend8handlers4authNtB6_11AuthSession13access_claims0Ba_
FN:1005,_RNCNvMs_NtNtCs2oPl7zguF9n_18timekeeper_backend8handlers4authNtB6_11AuthSession18refresh_token_data0Ba_
FN:1010,_RNCNvMs_NtNtCs2oPl7zguF9n_18timekeeper_backend8handlers4authNtB6_11AuthSession18refresh_token_datas0_0Ba_
FN:1007,_RNCNvMs_NtNtCs2oPl7zguF9n_18timekeeper_backend8handlers4authNtB6_11AuthSession18refresh_token_datas_0Ba_
FN:975,_RNCNvNtNtCs2oPl7zguF9n_18timekeeper_backend8handlers4auth10extract_ip0B7_
FN:980,_RNCNvNtNtCs2oPl7zguF9n_18timekeeper_backend8handlers4auth10extract_ips0_0B7_
FN:984,_RNCNvNtNtCs2oPl7zguF9n_18timekeeper_backend8handlers4auth10extract_ips1_0B7_
FN:985,_RNCNvNtNtCs2oPl7zguF9n_18timekeeper_backend8handlers4auth10extract_ips2_0B7_
FN:986,_RNCNvNtNtCs2oPl7zguF9n_18timekeeper_backend8handlers4auth10extract_ips3_0B7_
FN:979,_RNCNvNtNtCs2oPl7zguF9n_18timekeeper_backend8handlers4auth10extract_ips_0B7_
FN:352,_RNCNvNtNtCs2oPl7zguF9n_18timekeeper_backend8handlers4auth10mfa_status0B7_
FN:1085,_RNCNvNtNtCs2oPl7zguF9n_18timekeeper_backend8handlers4auth11enforce_mfa0B7_
FN:1091,_RNCNvNtNtCs2oPl7zguF9n_18timekeeper_backend8handlers4auth11enforce_mfas0_0B7_
FN:1095,_RNCNvNtNtCs2oPl7zguF9n_18timekeeper_backend8handlers4auth11enforce_mfas1_0B7_
FN:1096,_RNCNvNtNtCs2oPl7zguF9n_18timekeeper_backend8handlers4auth11enforce_mfas2_0B7_
FN:1090,_RNCNvNtNtCs2oPl7zguF9n_18timekeeper_backend8handlers4auth11enforce_mfas_0B7_
FN:452,_RNCNvNtNtCs2oPl7zguF9n_18timekeeper_backend8handlers4auth11mfa_disable0B7_
FN:413,_RNCNvNtNtCs2oPl7zguF9n_18timekeeper_backend8handlers4auth12mfa_activate0B7_
FN:392,_RNCNvNtNtCs2oPl7zguF9n_18timekeeper_backend8handlers4auth12mfa_register0B7_
FN:584,_RNCNvNtNtCs2oPl7zguF9n_18timekeeper_backend8handlers4auth14reset_password0B7_
FN:363,_RNCNvNtNtCs2oPl7zguF9n_18timekeeper_backend8handlers4auth14update_profile0B7_
FN:494,_RNCNvNtNtCs2oPl7zguF9n_18timekeeper_backend8handlers4auth15change_password0B7_
FN:992,_RNCNvNtNtCs2oPl7zguF9n_18timekeeper_backend8handlers4auth18extract_user_agent0B7_
FN:994,_RNCNvNtNtCs2oPl7zguF9n_18timekeeper_backend8handlers4auth18extract_user_agents0_0B7_
FN:993,_RNCNvNtNtCs2oPl7zguF9n_18timekeeper_backend8handlers4auth18extract_user_agents_0B7_
FN:1059,_RNCNvNtNtCs2oPl7zguF9n_18timekeeper_backend8handlers4auth19cookie_header_value0B7_
FN:655,_RNCNvNtNtCs2oPl7zguF9n_18timekeeper_backend8handlers4auth19create_auth_session0B7_
FN:681,_RNCNvNtNtCs2oPl7zguF9n_18timekeeper_backend8handlers4auth20begin_mfa_enrollment0B7_
FN:860,_RNCNvNtNtCs2oPl7zguF9n_18timekeeper_backend8handlers4auth21enforce_session_limit0B7_
FN:763,_RNCNvNtNtCs2oPl7zguF9n_18timekeeper_backend8handlers4auth21persist_refresh_token0B7_
FN:895,_RNCNvNtNtCs2oPl7zguF9n_18timekeeper_backend8handlers4auth21revoke_active_session0B7_
FN:770,_RNCNvNtNtCs2oPl7zguF9n_18timekeeper_backend8handlers4auth21sanitize_device_label0B7_
FN:556,_RNCNvNtNtCs2oPl7zguF9n_18timekeeper_backend8handlers4auth22request_password_reset0B7_
FN:1066,_RNCNvNtNtCs2oPl7zguF9n_18timekeeper_backend8handlers4auth23ensure_password_matches0B7_
FN:817,_RNCNvNtNtCs2oPl7zguF9n_18timekeeper_backend8handlers4auth23register_active_session0B7_
FN:1126,_RNCNvNtNtCs2oPl7zguF9n_18timekeeper_backend8handlers4auth26ensure_password_not_reused0B7_
FN:963,_RNCNvNtNtCs2oPl7zguF9n_18timekeeper_backend8handlers4auth26record_session_audit_event0B7_
FN:1112,_RNCNvNtNtCs2oPl7zguF9n_18timekeeper_backend8handlers4auth27enforce_password_expiration0B7_
FN:784,_RNCNvNtNtCs2oPl7zguF9n_18timekeeper_backend8handlers4auth27persist_active_access_token0B7_
FN:346,_RNCNvNtNtCs2oPl7zguF9n_18timekeeper_backend8handlers4auth2me0B7_
FN:67,_RNCNvNtNtCs2oPl7zguF9n_18timekeeper_backend8handlers4auth5login0B7_
FN:260,_RNCNvNtNtCs2oPl7zguF9n_18timekeeper_backend8handlers4auth6logout0B7_
FN:137,_RNCNvNtNtCs2oPl7zguF9n_18timekeeper_backend8handlers4auth7refresh0B7_
FN:402,_RNCNvNtNtCs2oPl7zguF9n_18timekeeper_backend8handlers4auth9mfa_setup0B7_
FN:922,_RNvMNtNtCs2oPl7zguF9n_18timekeeper_backend8handlers4authNtB2_12AuditContext3new
FN:998,_RNvMs_NtNtCs2oPl7zguF9n_18timekeeper_backend8handlers4authNtB4_11AuthSession13access_claims
FN:1003,_RNvMs_NtNtCs2oPl7zguF9n_18timekeeper_backend8handlers4authNtB4_11AuthSession18refresh_token_data
FN:974,_RNvNtNtCs2oPl7zguF9n_18timekeeper_backend8handlers4auth10extract_ip
FN:350,_RNvNtNtCs2oPl7zguF9n_18timekeeper_backend8handlers4auth10mfa_status
FN:1080,_RNvNtNtCs2oPl7zguF9n_18timekeeper_backend8handlers4auth11enforce_mfa
FN:447,_RNvNtNtCs2oPl7zguF9n_18timekeeper_backend8handlers4auth11mfa_disable
FN:408,_RNvNtNtCs2oPl7zguF9n_18timekeeper_backend8handlers4auth12mfa_activate
FN:388,_RNvNtNtCs2oPl7zguF9n_18timekeeper_backend8handlers4auth12mfa_register
FN:581,_RNvNtNtCs2oPl7zguF9n_18timekeeper_backend8handlers4auth14reset_password
FN:359,_RNvNtNtCs2oPl7zguF9n_18timekeeper_backend8handlers4auth14update_profile
FN:489,_RNvNtNtCs2oPl7zguF9n_18timekeeper_backend8handlers4auth15change_password
FN:1021,_RNvNtNtCs2oPl7zguF9n_18timekeeper_backend8handlers4auth16set_auth_cookies
FN:1047,_RNvNtNtCs2oPl7zguF9n_18timekeeper_backend8handlers4auth18clear_auth_cookies
FN:989,_RNvNtNtCs2oPl7zguF9n_18timekeeper_backend8handlers4auth18extract_user_agent
FN:1058,_RNvNtNtCs2oPl7zguF9n_18timekeeper_backend8handlers4auth19cookie_header_value
FN:655,_RNvNtNtCs2oPl7zguF9n_18timekeeper_backend8handlers4auth19create_auth_session
FN:677,_RNvNtNtCs2oPl7zguF9n_18timekeeper_backend8handlers4auth20begin_mfa_enrollment
FN:853,_RNvNtNtCs2oPl7zguF9n_18timekeeper_backend8handlers4auth21enforce_session_limit
FN:759,_RNvNtNtCs2oPl7zguF9n_18timekeeper_backend8handlers4auth21persist_refresh_token
FN:891,_RNvNtNtCs2oPl7zguF9n_18timekeeper_backend8handlers4auth21revoke_active_session
FN:769,_RNvNtNtCs2oPl7zguF9n_18timekeeper_backend8handlers4auth21sanitize_device_label
FN:553,_RNvNtNtCs2oPl7zguF9n_18timekeeper_backend8handlers4auth22request_password_reset
FN:1062,_RNvNtNtCs2oPl7zguF9n_18timekeeper_backend8handlers4auth23ensure_password_matches
FN:806,_RNvNtNtCs2oPl7zguF9n_18timekeeper_backend8handlers4auth23register_active_session
FN:1120,_RNvNtNtCs2oPl7zguF9n_18timekeeper_backend8handlers4auth26ensure_password_not_reused
FN:938,_RNvNtNtCs2oPl7zguF9n_18timekeeper_backend8handlers4auth26record_session_audit_event
FN:1103,_RNvNtNtCs2oPl7zguF9n_18timekeeper_backend8handlers4auth27enforce_password_expiration
FN:780,_RNvNtNtCs2oPl7zguF9n_18timekeeper_backend8handlers4auth27persist_active_access_token
FN:346,_RNvNtNtCs2oPl7zguF9n_18timekeeper_backend8handlers4auth2me
FN:61,_RNvNtNtCs2oPl7zguF9n_18timekeeper_backend8handlers4auth5login
FN:252,_RNvNtNtCs2oPl7zguF9n_18timekeeper_backend8handlers4auth6logout
FN:131,_RNvNtNtCs2oPl7zguF9n_18timekeeper_backend8handlers4auth7refresh
FN:398,_RNvNtNtCs2oPl7zguF9n_18timekeeper_backend8handlers4auth9mfa_setup
FN:703,_RINvNtNtCs2oPl7zguF9n_18timekeeper_backend8handlers4auth22process_login_for_userNCNvCs11XoOfbnZWl_8auth_apis_41login_rejects_invalid_password_without_db0NCB1i_s_0NCB1i_s0_0NCNCB1i_00NCNCB1i_s_00NCNCB1i_s0_00EB1k_
FN:703,_RINvNtNtCs2oPl7zguF9n_18timekeeper_backend8handlers4auth22process_login_for_userNCNvCs11XoOfbnZWl_8auth_apis_44login_requires_totp_code_when_mfa_is_enabled0NCB1i_s_0NCB1i_s0_0NCNCB1i_00NCNCB1i_s_00NCNCB1i_s0_00EB1k_
FN:703,_RINvNtNtCs2oPl7zguF9n_18timekeeper_backend8handlers4auth22process_login_for_userNCNvCs11XoOfbnZWl_8auth_apis_47login_succeeds_when_password_matches_without_db0NCB1i_s_0NCB1i_s0_0NCNCB1i_00NCNCB1i_s_00NCNCB1i_s0_00EB1k_
FN:703,_RINvNtNtCs2oPl7zguF9n_18timekeeper_backend8handlers4auth22process_login_for_userNCNvCs11XoOfbnZWl_8auth_apis_49login_accepts_valid_totp_code_when_mfa_is_enabled0NCB1i_s_0NCB1i_s0_0NCNCB1i_00NCNCB1i_s_00NCNCB1i_s0_00EB1k_
FN:703,_RINvNtNtCs2oPl7zguF9n_18timekeeper_backend8handlers4auth22process_login_for_userNCNvCs11XoOfbnZWl_8auth_apis_51login_rejects_invalid_totp_code_when_mfa_is_enabled0NCB1i_s_0NCB1i_s0_0NCNCB1i_00NCNCB1i_s_00NCNCB1i_s0_00EB1k_
FN:718,_RNCINvNtNtCs2oPl7zguF9n_18timekeeper_backend8handlers4auth22process_login_for_userNCNvCs11XoOfbnZWl_8auth_apis_41login_rejects_invalid_password_without_db0NCB1k_s_0NCB1k_s0_0NCNCB1k_00NCNCB1k_s_00NCNCB1k_s0_00E0B1m_
FN:718,_RNCINvNtNtCs2oPl7zguF9n_18timekeeper_backend8handlers4auth22process_login_for_userNCNvCs11XoOfbnZWl_8auth_apis_44login_requires_totp_code_when_mfa_is_enabled0NCB1k_s_0NCB1k_s0_0NCNCB1k_00NCNCB1k_s_00NCNCB1k_s0_00E0B1m_
FN:718,_RNCINvNtNtCs2oPl7zguF9n_18timekeeper_backend8handlers4auth22process_login_for_userNCNvCs11XoOfbnZWl_8auth_apis_47login_succeeds_when_password_matches_without_db0NCB1k_s_0NCB1k_s0_0NCNCB1k_00NCNCB1k_s_00NCNCB1k_s0_00E0B1m_
FN:718,_RNCINvNtNtCs2oPl7zguF9n_18timekeeper_backend8handlers4auth22process_login_for_userNCNvCs11XoOfbnZWl_8auth_apis_49login_accepts_valid_totp_code_when_mfa_is_enabled0NCB1k_s_0NCB1k_s0_0NCNCB1k_00NCNCB1k_s_00NCNCB1k_s0_00E0B1m_
FN:718,_RNCINvNtNtCs2oPl7zguF9n_18timekeeper_backend8handlers4auth22process_login_for_userNCNvCs11XoOfbnZWl_8auth_apis_51login_rejects_invalid_totp_code_when_mfa_is_enabled0NCB1k_s_0NCB1k_s0_0NCNCB1k_00NCNCB1k_s_00NCNCB1k_s0_00E0B1m_
FN:735,_RNCNCINvNtNtCs2oPl7zguF9n_18timekeeper_backend8handlers4auth22process_login_for_userNCNvCs11XoOfbnZWl_8auth_apis_41login_rejects_invalid_password_without_db0NCB1m_s_0NCB1m_s0_0NCNCB1m_00NCNCB1m_s_00NCNCB1m_s0_00E00B1o_
FN:746,_RNCNCINvNtNtCs2oPl7zguF9n_18timekeeper_backend8handlers4auth22process_login_for_userNCNvCs11XoOfbnZWl_8auth_apis_41login_rejects_invalid_password_without_db0NCB1m_s_0NCB1m_s0_0NCNCB1m_00NCNCB1m_s_00NCNCB1m_s0_00E0s0_0B1o_
FN:739,_RNCNCINvNtNtCs2oPl7zguF9n_18timekeeper_backend8handlers4auth22process_login_for_userNCNvCs11XoOfbnZWl_8auth_apis_41login_rejects_invalid_password_without_db0NCB1m_s_0NCB1m_s0_0NCNCB1m_00NCNCB1m_s_00NCNCB1m_s0_00E0s_0B1o_
FN:735,_RNCNCINvNtNtCs2oPl7zguF9n_18timekeeper_backend8handlers4auth22process_login_for_userNCNvCs11XoOfbnZWl_8auth_apis_44login_requires_totp_code_when_mfa_is_enabled0NCB1m_s_0NCB1m_s0_0NCNCB1m_00NCNCB1m_s_00NCNCB1m_s0_00E00B1o_
FN:746,_RNCNCINvNtNtCs2oPl7zguF9n_18timekeeper_backend8handlers4auth22process_login_for_userNCNvCs11XoOfbnZWl_8auth_apis_44login_requires_totp_code_when_mfa_is_enabled0NCB1m_s_0NCB1m_s0_0NCNCB1m_00NCNCB1m_s_00NCNCB1m_s0_00E0s0_0B1o_
FN:739,_RNCNCINvNtNtCs2oPl7zguF9n_18timekeeper_backend8handlers4auth22process_login_for_userNCNvCs11XoOfbnZWl_8auth_apis_44login_requires_totp_code_when_mfa_is_enabled0NCB1m_s_0NCB1m_s0_0NCNCB1m_00NCNCB1m_s_00NCNCB1m_s0_00E0s_0B1o_
FN:735,_RNCNCINvNtNtCs2oPl7zguF9n_18timekeeper_backend8handlers4auth22process_login_for_userNCNvCs11XoOfbnZWl_8auth_apis_47login_succeeds_when_password_matches_without_db0NCB1m_s_0NCB1m_s0_0NCNCB1m_00NCNCB1m_s_00NCNCB1m_s0_00E00B1o_
FN:746,_RNCNCINvNtNtCs2oPl7zguF9n_18timekeeper_backend8handlers4auth22process_login_for_userNCNvCs11XoOfbnZWl_8auth_apis_47login_succeeds_when_password_matches_without_db0NCB1m_s_0NCB1m_s0_0NCNCB1m_00NCNCB1m_s_00NCNCB1m_s0_00E0s0_0B1o_
FN:739,_RNCNCINvNtNtCs2oPl7zguF9n_18timekeeper_backend8handlers4auth22process_login_for_userNCNvCs11XoOfbnZWl_8auth_apis_47login_succeeds_when_password_matches_without_db0NCB1m_s_0NCB1m_s0_0NCNCB1m_00NCNCB1m_s_00NCNCB1m_s0_00E0s_0B1o_
FN:735,_RNCNCINvNtNtCs2oPl7zguF9n_18timekeeper_backend8handlers4auth22process_login_for_userNCNvCs11XoOfbnZWl_8auth_apis_49login_accepts_valid_totp_code_when_mfa_is_enabled0NCB1m_s_0NCB1m_s0_0NCNCB1m_00NCNCB1m_s_00NCNCB1m_s0_00E00B1o_
FN:746,_RNCNCINvNtNtCs2oPl7zguF9n_18timekeeper_backend8handlers4auth22process_login_for_userNCNvCs11XoOfbnZWl_8auth_apis_49login_accepts_valid_totp_code_when_mfa_is_enabled0NCB1m_s_0NCB1m_s0_0NCNCB1m_00NCNCB1m_s_00NCNCB1m_s0_00E0s0_0B1o_
FN:739,_RNCNCINvNtNtCs2oPl7zguF9n_18timekeeper_backend8handlers4auth22process_login_for_userNCNvCs11XoOfbnZWl_8auth_apis_49login_accepts_valid_totp_code_when_mfa_is_enabled0NCB1m_s_0NCB1m_s0_0NCNCB1m_00NCNCB1m_s_00NCNCB1m_s0_00E0s_0B1o_
FN:735,_RNCNCINvNtNtCs2oPl7zguF9n_18timekeeper_backend8handlers4auth22process_login_for_userNCNvCs11XoOfbnZWl_8auth_apis_51login_rejects_invalid_totp_code_when_mfa_is_enabled0NCB1m_s_0NCB1m_s0_0NCNCB1m_00NCNCB1m_s_00NCNCB1m_s0_00E00B1o_
FN:746,_RNCNCINvNtNtCs2oPl7zguF9n_18timekeeper_backend8handlers4auth22process_login_for_userNCNvCs11XoOfbnZWl_8auth_apis_51login_rejects_invalid_totp_code_when_mfa_is_enabled0NCB1m_s_0NCB1m_s0_0NCNCB1m_00NCNCB1m_s_00NCNCB1m_s0_00E0s0_0B1o_
FN:739,_RNCNCINvNtNtCs2oPl7zguF9n_18timekeeper_backend8handlers4auth22process_login_for_userNCNvCs11XoOfbnZWl_8auth_apis_51login_rejects_invalid_totp_code_when_mfa_is_enabled0NCB1m_s_0NCB1m_s0_0NCNCB1m_00NCNCB1m_s_00NCNCB1m_s0_00E0s_0B1o_
FN:350,_RNvNtNtCsjEFxG0ag9NF_18timekeeper_backend8handlers4auth10mfa_status
FN:447,_RNvNtNtCsjEFxG0ag9NF_18timekeeper_backend8handlers4auth11mfa_disable
FN:408,_RNvNtNtCsjEFxG0ag9NF_18timekeeper_backend8handlers4auth12mfa_activate
FN:388,_RNvNtNtCsjEFxG0ag9NF_18timekeeper_backend8handlers4auth12mfa_register
FN:359,_RNvNtNtCsjEFxG0ag9NF_18timekeeper_backend8handlers4auth14update_profile
FN:489,_RNvNtNtCsjEFxG0ag9NF_18timekeeper_backend8handlers4auth15change_password
FN:346,_RNvNtNtCsjEFxG0ag9NF_18timekeeper_backend8handlers4auth2me
FN:252,_RNvNtNtCsjEFxG0ag9NF_18timekeeper_backend8handlers4auth6logout
FN:398,_RNvNtNtCsjEFxG0ag9NF_18timekeeper_backend8handlers4auth9mfa_setup
FN:1390,_RINvNtNtCsjEFxG0ag9NF_18timekeeper_backend8handlers4auth11bad_requestNtNtCshQKOepsJxml_5alloc6string6StringEB6_
FN:1390,_RINvNtNtCsjEFxG0ag9NF_18timekeeper_backend8handlers4auth11bad_requestReEB6_
FN:1394,_RINvNtNtCsjEFxG0ag9NF_18timekeeper_backend8handlers4auth12unauthorizedReEB6_
FN:1398,_RINvNtNtCsjEFxG0ag9NF_18timekeeper_backend8handlers4auth14internal_errorReEB6_
FN:703,_RINvNtNtCsjEFxG0ag9NF_18timekeeper_backend8handlers4auth22process_login_for_userNCNCNvB2_5login0s0_0NCB1i_s1_0NCB1i_s2_0NCNCB1i_s0_00NCNCB1i_s1_00NCNCB1i_s2_00EB6_
FN:718,_RNCINvNtNtCsjEFxG0ag9NF_18timekeeper_backend8handlers4auth22process_login_for_userNCNCNvB4_5login0s0_0NCB1k_s1_0NCB1k_s2_0NCNCB1k_s0_00NCNCB1k_s1_00NCNCB1k_s2_00E0B8_
FN:735,_RNCNCINvNtNtCsjEFxG0ag9NF_18timekeeper_backend8handlers4auth22process_login_for_userNCNCNvB6_5login0s0_0NCB1m_s1_0NCB1m_s2_0NCNCB1m_s0_00NCNCB1m_s1_00NCNCB1m_s2_00E00Ba_
FN:746,_RNCNCINvNtNtCsjEFxG0ag9NF_18timekeeper_backend8handlers4auth22process_login_for_userNCNCNvB6_5login0s0_0NCB1m_s1_0NCB1m_s2_0NCNCB1m_s0_00NCNCB1m_s1_00NCNCB1m_s2_00E0s0_0Ba_
FN:739,_RNCNCINvNtNtCsjEFxG0ag9NF_18timekeeper_backend8handlers4auth22process_login_for_userNCNCNvB6_5login0s0_0NCB1m_s1_0NCB1m_s2_0NCNCB1m_s0_00NCNCB1m_s1_00NCNCB1m_s2_00E0s_0Ba_
FN:94,_RNCNCNCNCNvNtNtCsjEFxG0ag9NF_18timekeeper_backend8handlers4auth5login0s1_000Bd_
FN:83,_RNCNCNCNvNtNtCsjEFxG0ag9NF_18timekeeper_backend8handlers4auth5login0s0_00Bb_
FN:90,_RNCNCNCNvNtNtCsjEFxG0ag9NF_18timekeeper_backend8handlers4auth5login0s1_00Bb_
FN:107,_RNCNCNCNvNtNtCsjEFxG0ag9NF_18timekeeper_backend8handlers4auth5login0s2_00Bb_
FN:306,_RNCNCNCNvNtNtCsjEFxG0ag9NF_18timekeeper_backend8handlers4auth6logout0s5_00Bb_
FN:144,_RNCNCNCNvNtNtCsjEFxG0ag9NF_18timekeeper_backend8handlers4auth7refresh000Bb_
FN:145,_RNCNCNCNvNtNtCsjEFxG0ag9NF_18timekeeper_backend8handlers4auth7refresh00s_0Bb_
FN:1087,_RNCNCNvNtNtCsjEFxG0ag9NF_18timekeeper_backend8handlers4auth11enforce_mfa00B9_
FN:461,_RNCNCNvNtNtCsjEFxG0ag9NF_18timekeeper_backend8handlers4auth11mfa_disable00B9_
FN:470,_RNCNCNvNtNtCsjEFxG0ag9NF_18timekeeper_backend8handlers4auth11mfa_disable0s0_0B9_
FN:477,_RNCNCNvNtNtCsjEFxG0ag9NF_18timekeeper_backend8handlers4auth11mfa_disable0s1_0B9_
FN:480,_RNCNCNvNtNtCsjEFxG0ag9NF_18timekeeper_backend8handlers4auth11mfa_disable0s2_0B9_
FN:464,_RNCNCNvNtNtCsjEFxG0ag9NF_18timekeeper_backend8handlers4auth11mfa_disable0s_0B9_
FN:418,_RNCNCNvNtNtCsjEFxG0ag9NF_18timekeeper_backend8handlers4auth12mfa_activate00B9_
FN:428,_RNCNCNvNtNtCsjEFxG0ag9NF_18timekeeper_backend8handlers4auth12mfa_activate0s0_0B9_
FN:435,_RNCNCNvNtNtCsjEFxG0ag9NF_18timekeeper_backend8handlers4auth12mfa_activate0s1_0B9_
FN:438,_RNCNCNvNtNtCsjEFxG0ag9NF_18timekeeper_backend8handlers4auth12mfa_activate0s2_0B9_
FN:421,_RNCNCNvNtNtCsjEFxG0ag9NF_18timekeeper_backend8handlers4auth12mfa_activate0s_0B9_
FN:587,_RNCNCNvNtNtCsjEFxG0ag9NF_18timekeeper_backend8handlers4auth14reset_password00B9_
FN:593,_RNCNCNvNtNtCsjEFxG0ag9NF_18timekeeper_backend8handlers4auth14reset_password0s0_0B9_
FN:597,_RNCNCNvNtNtCsjEFxG0ag9NF_18timekeeper_backend8handlers4auth14reset_password0s1_0B9_
FN:598,_RNCNCNvNtNtCsjEFxG0ag9NF_18timekeeper_backend8handlers4auth14reset_password0s2_0B9_
FN:611,_RNCNCNvNtNtCsjEFxG0ag9NF_18timekeeper_backend8handlers4auth14reset_password0s3_0B9_
FN:614,_RNCNCNvNtNtCsjEFxG0ag9NF_18timekeeper_backend8handlers4auth14reset_password0s4_0B9_
FN:615,_RNCNCNvNtNtCsjEFxG0ag9NF_18timekeeper_backend8handlers4auth14reset_password0s5_0B9_
FN:625,_RNCNCNvNtNtCsjEFxG0ag9NF_18timekeeper_backend8handlers4auth14reset_password0s6_0B9_
FN:629,_RNCNCNvNtNtCsjEFxG0ag9NF_18timekeeper_backend8handlers4auth14reset_password0s7_0B9_
FN:633,_RNCNCNvNtNtCsjEFxG0ag9NF_18timekeeper_backend8handlers4auth14reset_password0s8_0B9_
FN:637,_RNCNCNvNtNtCsjEFxG0ag9NF_18timekeeper_backend8handlers4auth14reset_password0s9_0B9_
FN:592,_RNCNCNvNtNtCsjEFxG0ag9NF_18timekeeper_backend8handlers4auth14reset_password0s_0B9_
FN:643,_RNCNCNvNtNtCsjEFxG0ag9NF_18timekeeper_backend8handlers4auth14reset_password0sa_0B9_
FN:370,_RNCNCNvNtNtCsjEFxG0ag9NF_18timekeeper_backend8handlers4auth14update_profile00B9_
FN:383,_RNCNCNvNtNtCsjEFxG0ag9NF_18timekeeper_backend8handlers4auth14update_profile0s_0B9_
FN:498,_RNCNCNvNtNtCsjEFxG0ag9NF_18timekeeper_backend8handlers4auth15change_password00B9_
FN:526,_RNCNCNvNtNtCsjEFxG0ag9NF_18timekeeper_backend8handlers4auth15change_password0s0_0B9_
FN:527,_RNCNCNvNtNtCsjEFxG0ag9NF_18timekeeper_backend8handlers4auth15change_password0s1_0B9_
FN:537,_RNCNCNvNtNtCsjEFxG0ag9NF_18timekeeper_backend8handlers4auth15change_password0s2_0B9_
FN:541,_RNCNCNvNtNtCsjEFxG0ag9NF_18timekeeper_backend8handlers4auth15change_password0s3_0B9_
FN:544,_RNCNCNvNtNtCsjEFxG0ag9NF_18timekeeper_backend8handlers4auth15change_password0s4_0B9_
FN:523,_RNCNCNvNtNtCsjEFxG0ag9NF_18timekeeper_backend8handlers4auth15change_password0s_0B9_
FN:663,_RNCNCNvNtNtCsjEFxG0ag9NF_18timekeeper_backend8handlers4auth19create_auth_session00B9_
FN:667,_RNCNCNvNtNtCsjEFxG0ag9NF_18timekeeper_backend8handlers4auth19create_auth_session0s_0B9_
FN:688,_RNCNCNvNtNtCsjEFxG0ag9NF_18timekeeper_backend8handlers4auth20begin_mfa_enrollment00B9_
FN:692,_RNCNCNvNtNtCsjEFxG0ag9NF_18timekeeper_backend8handlers4auth20begin_mfa_enrollment0s_0B9_
FN:868,_RNCNCNvNtNtCsjEFxG0ag9NF_18timekeeper_backend8handlers4auth21enforce_session_limit00B9_
FN:766,_RNCNCNvNtNtCsjEFxG0ag9NF_18timekeeper_backend8handlers4auth21persist_refresh_token00B9_
FN:899,_RNCNCNvNtNtCsjEFxG0ag9NF_18timekeeper_backend8handlers4auth21revoke_active_session00B9_
FN:907,_RNCNCNvNtNtCsjEFxG0ag9NF_18timekeeper_backend8handlers4auth21revoke_active_session0s_0B9_
FN:561,_RNCNCNvNtNtCsjEFxG0ag9NF_18timekeeper_backend8handlers4auth22request_password_reset00B9_
FN:570,_RNCNCNvNtNtCsjEFxG0ag9NF_18timekeeper_backend8handlers4auth22request_password_reset0s0_0B9_
FN:567,_RNCNCNvNtNtCsjEFxG0ag9NF_18timekeeper_backend8handlers4auth22request_password_reset0s_0B9_
FN:1069,_RNCNCNvNtNtCsjEFxG0ag9NF_18timekeeper_backend8handlers4auth23ensure_password_matches00B9_
FN:1072,_RNCNCNvNtNtCsjEFxG0ag9NF_18timekeeper_backend8handlers4auth23ensure_password_matches0s0_0B9_
FN:1071,_RNCNCNvNtNtCsjEFxG0ag9NF_18timekeeper_backend8handlers4auth23ensure_password_matches0s_0B9_
FN:828,_RNCNCNvNtNtCsjEFxG0ag9NF_18timekeeper_backend8handlers4auth23register_active_session00B9_
FN:1132,_RNCNCNvNtNtCsjEFxG0ag9NF_18timekeeper_backend8handlers4auth26ensure_password_not_reused00B9_
FN:1141,_RNCNCNvNtNtCsjEFxG0ag9NF_18timekeeper_backend8handlers4auth26ensure_password_not_reused0s0_0B9_
FN:1142,_RNCNCNvNtNtCsjEFxG0ag9NF_18timekeeper_backend8handlers4auth26ensure_password_not_reused0s1_0B9_
FN:1135,_RNCNCNvNtNtCsjEFxG0ag9NF_18timekeeper_backend8handlers4auth26ensure_password_not_reused0s_0B9_
FN:786,_RNCNCNvNtNtCsjEFxG0ag9NF_18timekeeper_backend8handlers4auth27persist_active_access_token00B9_
FN:794,_RNCNCNvNtNtCsjEFxG0ag9NF_18timekeeper_backend8handlers4auth27persist_active_access_token0s0_0B9_
FN:803,_RNCNCNvNtNtCsjEFxG0ag9NF_18timekeeper_backend8handlers4auth27persist_active_access_token0s1_0B9_
FN:790,_RNCNCNvNtNtCsjEFxG0ag9NF_18timekeeper_backend8handlers4auth27persist_active_access_token0s_0B9_
FN:72,_RNCNCNvNtNtCsjEFxG0ag9NF_18timekeeper_backend8handlers4auth5login00B9_
FN:85,_RNCNCNvNtNtCsjEFxG0ag9NF_18timekeeper_backend8handlers4auth5login0s0_0B9_
FN:99,_RNCNCNvNtNtCsjEFxG0ag9NF_18timekeeper_backend8handlers4auth5login0s1_0B9_
FN:121,_RNCNCNvNtNtCsjEFxG0ag9NF_18timekeeper_backend8handlers4auth5login0s2_0B9_
FN:73,_RNCNCNvNtNtCsjEFxG0ag9NF_18timekeeper_backend8handlers4auth5login0s_0B9_
FN:263,_RNCNCNvNtNtCsjEFxG0ag9NF_18timekeeper_backend8handlers4auth6logout00B9_
FN:271,_RNCNCNvNtNtCsjEFxG0ag9NF_18timekeeper_backend8handlers4auth6logout0s0_0B9_
FN:274,_RNCNCNvNtNtCsjEFxG0ag9NF_18timekeeper_backend8handlers4auth6logout0s1_0B9_
FN:277,_RNCNCNvNtNtCsjEFxG0ag9NF_18timekeeper_backend8handlers4auth6logout0s2_0B9_
FN:302,_RNCNCNvNtNtCsjEFxG0ag9NF_18timekeeper_backend8handlers4auth6logout0s3_0B9_
FN:303,_RNCNCNvNtNtCsjEFxG0ag9NF_18timekeeper_backend8handlers4auth6logout0s4_0B9_
FN:304,_RNCNCNvNtNtCsjEFxG0ag9NF_18timekeeper_backend8handlers4auth6logout0s5_0B9_
FN:312,_RNCNCNvNtNtCsjEFxG0ag9NF_18timekeeper_backend8handlers4auth6logout0s6_0B9_
FN:318,_RNCNCNvNtNtCsjEFxG0ag9NF_18timekeeper_backend8handlers4auth6logout0s7_0B9_
FN:322,_RNCNCNvNtNtCsjEFxG0ag9NF_18timekeeper_backend8handlers4auth6logout0s8_0B9_
FN:326,_RNCNCNvNtNtCsjEFxG0ag9NF_18timekeeper_backend8handlers4auth6logout0s9_0B9_
FN:268,_RNCNCNvNtNtCsjEFxG0ag9NF_18timekeeper_backend8handlers4auth6logout0s_0B9_
FN:141,_RNCNCNvNtNtCsjEFxG0ag9NF_18timekeeper_backend8handlers4auth7refresh00B9_
FN:150,_RNCNCNvNtNtCsjEFxG0ag9NF_18timekeeper_backend8handlers4auth7refresh0s0_0B9_
FN:154,_RNCNCNvNtNtCsjEFxG0ag9NF_18timekeeper_backend8handlers4auth7refresh0s1_0B9_
FN:155,_RNCNCNvNtNtCsjEFxG0ag9NF_18timekeeper_backend8handlers4auth7refresh0s2_0B9_
FN:158,_RNCNCNvNtNtCsjEFxG0ag9NF_18timekeeper_backend8handlers4auth7refresh0s3_0B9_
FN:165,_RNCNCNvNtNtCsjEFxG0ag9NF_18timekeeper_backend8handlers4auth7refresh0s4_0B9_
FN:166,_RNCNCNvNtNtCsjEFxG0ag9NF_18timekeeper_backend8handlers4auth7refresh0s5_0B9_
FN:179,_RNCNCNvNtNtCsjEFxG0ag9NF_18timekeeper_backend8handlers4auth7refresh0s6_0B9_
FN:182,_RNCNCNvNtNtCsjEFxG0ag9NF_18timekeeper_backend8handlers4auth7refresh0s7_0B9_
FN:185,_RNCNCNvNtNtCsjEFxG0ag9NF_18timekeeper_backend8handlers4auth7refresh0s8_0B9_
FN:209,_RNCNCNvNtNtCsjEFxG0ag9NF_18timekeeper_backend8handlers4auth7refresh0s9_0B9_
FN:147,_RNCNCNvNtNtCsjEFxG0ag9NF_18timekeeper_backend8handlers4auth7refresh0s_0B9_
FN:230,_RNCNCNvNtNtCsjEFxG0ag9NF_18timekeeper_backend8handlers4auth7refresh0sa_0B9_
FN:238,_RNCNCNvNtNtCsjEFxG0ag9NF_18timekeeper_backend8handlers4auth7refresh0sb_0B9_
FN:242,_RNCNCNvNtNtCsjEFxG0ag9NF_18timekeeper_backend8handlers4auth7refresh0sc_0B9_
FN:933,_RNCNvMNtNtCsjEFxG0ag9NF_18timekeeper_backend8handlers4authNtB4_12AuditContext3new0B8_
FN:1000,_RNCNvMs_NtNtCsjEFxG0ag9NF_18timekeeper_backend8handlers4authNtB6_11AuthSession13access_claims0Ba_
FN:1005,_RNCNvMs_NtNtCsjEFxG0ag9NF_18timekeeper_backend8handlers4authNtB6_11AuthSession18refresh_token_data0Ba_
FN:1010,_RNCNvMs_NtNtCsjEFxG0ag9NF_18timekeeper_backend8handlers4authNtB6_11AuthSession18refresh_token_datas0_0Ba_
FN:1007,_RNCNvMs_NtNtCsjEFxG0ag9NF_18timekeeper_backend8handlers4authNtB6_11AuthSession18refresh_token_datas_0Ba_
FN:975,_RNCNvNtNtCsjEFxG0ag9NF_18timekeeper_backend8handlers4auth10extract_ip0B7_
FN:980,_RNCNvNtNtCsjEFxG0ag9NF_18timekeeper_backend8handlers4auth10extract_ips0_0B7_
FN:984,_RNCNvNtNtCsjEFxG0ag9NF_18timekeeper_backend8handlers4auth10extract_ips1_0B7_
FN:985,_RNCNvNtNtCsjEFxG0ag9NF_18timekeeper_backend8handlers4auth10extract_ips2_0B7_
FN:986,_RNCNvNtNtCsjEFxG0ag9NF_18timekeeper_backend8handlers4auth10extract_ips3_0B7_
FN:979,_RNCNvNtNtCsjEFxG0ag9NF_18timekeeper_backend8handlers4auth10extract_ips_0B7_
FN:352,_RNCNvNtNtCsjEFxG0ag9NF_18timekeeper_backend8handlers4auth10mfa_status0B7_
FN:1085,_RNCNvNtNtCsjEFxG0ag9NF_18timekeeper_backend8handlers4auth11enforce_mfa0B7_
FN:1091,_RNCNvNtNtCsjEFxG0ag9NF_18timekeeper_backend8handlers4auth11enforce_mfas0_0B7_
FN:1095,_RNCNvNtNtCsjEFxG0ag9NF_18timekeeper_backend8handlers4auth11enforce_mfas1_0B7_
FN:1096,_RNCNvNtNtCsjEFxG0ag9NF_18timekeeper_backend8handlers4auth11enforce_mfas2_0B7_
FN:1090,_RNCNvNtNtCsjEFxG0ag9NF_18timekeeper_backend8handlers4auth11enforce_mfas_0B7_
FN:452,_RNCNvNtNtCsjEFxG0ag9NF_18timekeeper_backend8handlers4auth11mfa_disable0B7_
FN:413,_RNCNvNtNtCsjEFxG0ag9NF_18timekeeper_backend8handlers4auth12mfa_activate0B7_
FN:392,_RNCNvNtNtCsjEFxG0ag9NF_18timekeeper_backend8handlers4auth12mfa_register0B7_
FN:584,_RNCNvNtNtCsjEFxG0ag9NF_18timekeeper_backend8handlers4auth14reset_password0B7_
FN:363,_RNCNvNtNtCsjEFxG0ag9NF_18timekeeper_backend8handlers4auth14update_profile0B7_
FN:494,_RNCNvNtNtCsjEFxG0ag9NF_18timekeeper_backend8handlers4auth15change_password0B7_
FN:992,_RNCNvNtNtCsjEFxG0ag9NF_18timekeeper_backend8handlers4auth18extract_user_agent0B7_
FN:994,_RNCNvNtNtCsjEFxG0ag9NF_18timekeeper_backend8handlers4auth18extract_user_agents0_0B7_
FN:993,_RNCNvNtNtCsjEFxG0ag9NF_18timekeeper_backend8handlers4auth18extract_user_agents_0B7_
FN:1059,_RNCNvNtNtCsjEFxG0ag9NF_18timekeeper_backend8handlers4auth19cookie_header_value0B7_
FN:655,_RNCNvNtNtCsjEFxG0ag9NF_18timekeeper_backend8handlers4auth19create_auth_session0B7_
FN:681,_RNCNvNtNtCsjEFxG0ag9NF_18timekeeper_backend8handlers4auth20begin_mfa_enrollment0B7_
FN:860,_RNCNvNtNtCsjEFxG0ag9NF_18timekeeper_backend8handlers4auth21enforce_session_limit0B7_
FN:763,_RNCNvNtNtCsjEFxG0ag9NF_18timekeeper_backend8handlers4auth21persist_refresh_token0B7_
FN:895,_RNCNvNtNtCsjEFxG0ag9NF_18timekeeper_backend8handlers4auth21revoke_active_session0B7_
FN:770,_RNCNvNtNtCsjEFxG0ag9NF_18timekeeper_backend8handlers4auth21sanitize_device_label0B7_
FN:556,_RNCNvNtNtCsjEFxG0ag9NF_18timekeeper_backend8handlers4auth22request_password_reset0B7_
FN:1066,_RNCNvNtNtCsjEFxG0ag9NF_18timekeeper_backend8handlers4auth23ensure_password_matches0B7_
FN:817,_RNCNvNtNtCsjEFxG0ag9NF_18timekeeper_backend8handlers4auth23register_active_session0B7_
FN:1126,_RNCNvNtNtCsjEFxG0ag9NF_18timekeeper_backend8handlers4auth26ensure_password_not_reused0B7_
FN:963,_RNCNvNtNtCsjEFxG0ag9NF_18timekeeper_backend8handlers4auth26record_session_audit_event0B7_
FN:1112,_RNCNvNtNtCsjEFxG0ag9NF_18timekeeper_backend8handlers4auth27enforce_password_expiration0B7_
FN:784,_RNCNvNtNtCsjEFxG0ag9NF_18timekeeper_backend8handlers4auth27persist_active_access_token0B7_
FN:346,_RNCNvNtNtCsjEFxG0ag9NF_18timekeeper_backend8handlers4auth2me0B7_
FN:67,_RNCNvNtNtCsjEFxG0ag9NF_18timekeeper_backend8handlers4auth5login0B7_
FN:260,_RNCNvNtNtCsjEFxG0ag9NF_18timekeeper_backend8handlers4auth6logout0B7_
FN:137,_RNCNvNtNtCsjEFxG0ag9NF_18timekeeper_backend8handlers4auth7refresh0B7_
FN:402,_RNCNvNtNtCsjEFxG0ag9NF_18timekeeper_backend8handlers4auth9mfa_setup0B7_
FN:1246,_RNCNvNtNtNtCsjEFxG0ag9NF_18timekeeper_backend8handlers4auth5testss_46ensure_password_matches_rejects_wrong_password0B9_
FN:1287,_RNCNvNtNtNtCsjEFxG0ag9NF_18timekeeper_backend8handlers4auth5testss_46ensure_password_not_reused_allows_history_zero0B9_
FN:1238,_RNCNvNtNtNtCsjEFxG0ag9NF_18timekeeper_backend8handlers4auth5testss_48ensure_password_matches_accepts_correct_password0B9_
FN:1304,_RNCNvNtNtNtCsjEFxG0ag9NF_18timekeeper_backend8handlers4auth5testss_50auth_session_exposes_claims_and_refresh_token_data0B9_
FN:1376,_RNCNvNtNtNtCsjEFxG0ag9NF_18timekeeper_backend8handlers4auth5testss_50set_and_clear_auth_cookies_append_expected_headers0B9_
FN:1203,_RNvNtNtNtCsjEFxG0ag9NF_18timekeeper_backend8handlers4auth5tests10build_user
FN:1162,_RNvNtNtNtCsjEFxG0ag9NF_18timekeeper_backend8handlers4auth5tests11config_stub
FN:1216,_RNvNtNtNtCsjEFxG0ag9NF_18timekeeper_backend8handlers4auth5tests17current_totp_code
FN:1255,_RNvNtNtNtCsjEFxG0ag9NF_18timekeeper_backend8handlers4auth5testss_30enforce_mfa_accepts_valid_code
FN:1350,_RNvNtNtNtCsjEFxG0ag9NF_18timekeeper_backend8handlers4auth5testss_30extract_user_agent_trims_value
FN:1265,_RNvNtNtNtCsjEFxG0ag9NF_18timekeeper_backend8handlers4auth5testss_32enforce_mfa_rejects_missing_code
FN:1363,_RNvNtNtNtCsjEFxG0ag9NF_18timekeeper_backend8handlers4auth5testss_39cookie_header_value_reads_cookie_string
FN:1323,_RNvNtNtNtCsjEFxG0ag9NF_18timekeeper_backend8handlers4auth5testss_45sanitize_device_label_trims_and_limits_length
FN:1246,_RNvNtNtNtCsjEFxG0ag9NF_18timekeeper_backend8handlers4auth5testss_46ensure_password_matches_rejects_wrong_password
FN:1287,_RNvNtNtNtCsjEFxG0ag9NF_18timekeeper_backend8handlers4auth5testss_46ensure_password_not_reused_allows_history_zero
FN:1274,_RNvNtNtNtCsjEFxG0ag9NF_18timekeeper_backend8handlers4auth5testss_47enforce_password_expiration_behaves_as_expected
FN:1238,_RNvNtNtNtCsjEFxG0ag9NF_18timekeeper_backend8handlers4auth5testss_48ensure_password_matches_accepts_correct_password
FN:1304,_RNvNtNtNtCsjEFxG0ag9NF_18timekeeper_backend8handlers4auth5testss_50auth_session_exposes_claims_and_refresh_token_data
FN:1376,_RNvNtNtNtCsjEFxG0ag9NF_18timekeeper_backend8handlers4auth5testss_50set_and_clear_auth_cookies_append_expected_headers
FN:1337,_RNvNtNtNtCsjEFxG0ag9NF_18timekeeper_backend8handlers4auth5testss_58extract_ip_prefers_forwarded_for_and_falls_back_to_real_ip
FN:922,_RNvMNtNtCsjEFxG0ag9NF_18timekeeper_backend8handlers4authNtB2_12AuditContext3new
FN:998,_RNvMs_NtNtCsjEFxG0ag9NF_18timekeeper_backend8handlers4authNtB4_11AuthSession13access_claims
FN:1003,_RNvMs_NtNtCsjEFxG0ag9NF_18timekeeper_backend8handlers4authNtB4_11AuthSession18refresh_token_data
FN:974,_RNvNtNtCsjEFxG0ag9NF_18timekeeper_backend8handlers4auth10extract_ip
FN:1080,_RNvNtNtCsjEFxG0ag9NF_18timekeeper_backend8handlers4auth11enforce_mfa
FN:581,_RNvNtNtCsjEFxG0ag9NF_18timekeeper_backend8handlers4auth14reset_password
FN:1021,_RNvNtNtCsjEFxG0ag9NF_18timekeeper_backend8handlers4auth16set_auth_cookies
FN:1047,_RNvNtNtCsjEFxG0ag9NF_18timekeeper_backend8handlers4auth18clear_auth_cookies
FN:989,_RNvNtNtCsjEFxG0ag9NF_18timekeeper_backend8handlers4auth18extract_user_agent
FN:1058,_RNvNtNtCsjEFxG0ag9NF_18timekeeper_backend8handlers4auth19cookie_header_value
FN:655,_RNvNtNtCsjEFxG0ag9NF_18timekeeper_backend8handlers4auth19create_auth_session
FN:677,_RNvNtNtCsjEFxG0ag9NF_18timekeeper_backend8handlers4auth20begin_mfa_enrollment
FN:853,_RNvNtNtCsjEFxG0ag9NF_18timekeeper_backend8handlers4auth21enforce_session_limit
FN:759,_RNvNtNtCsjEFxG0ag9NF_18timekeeper_backend8handlers4auth21persist_refresh_token
FN:891,_RNvNtNtCsjEFxG0ag9NF_18timekeeper_backend8handlers4auth21revoke_active_session
FN:769,_RNvNtNtCsjEFxG0ag9NF_18timekeeper_backend8handlers4auth21sanitize_device_label
FN:553,_RNvNtNtCsjEFxG0ag9NF_18timekeeper_backend8handlers4auth22request_password_reset
FN:1062,_RNvNtNtCsjEFxG0ag9NF_18timekeeper_backend8handlers4auth23ensure_password_matches
FN:806,_RNvNtNtCsjEFxG0ag9NF_18timekeeper_backend8handlers4auth23register_active_session
FN:1120,_RNvNtNtCsjEFxG0ag9NF_18timekeeper_backend8handlers4auth26ensure_password_not_reused
FN:938,_RNvNtNtCsjEFxG0ag9NF_18timekeeper_backend8handlers4auth26record_session_audit_event
FN:1103,_RNvNtNtCsjEFxG0ag9NF_18timekeeper_backend8handlers4auth27enforce_password_expiration
FN:780,_RNvNtNtCsjEFxG0ag9NF_18timekeeper_backend8handlers4auth27persist_active_access_token
FN:61,_RNvNtNtCsjEFxG0ag9NF_18timekeeper_backend8handlers4auth5login
FN:131,_RNvNtNtCsjEFxG0ag9NF_18timekeeper_backend8handlers4auth7refresh
FN:922,_RNvMNtNtCsiqn6J3Zmf7c_18timekeeper_backend8handlers4authNtB2_12AuditContext3new
FN:998,_RNvMs_NtNtCsiqn6J3Zmf7c_18timekeeper_backend8handlers4authNtB4_11AuthSession13access_claims
FN:1003,_RNvMs_NtNtCsiqn6J3Zmf7c_18timekeeper_backend8handlers4authNtB4_11AuthSession18refresh_token_data
FN:974,_RNvNtNtCsiqn6J3Zmf7c_18timekeeper_backend8handlers4auth10extract_ip
FN:350,_RNvNtNtCsiqn6J3Zmf7c_18timekeeper_backend8handlers4auth10mfa_status
FN:1080,_RNvNtNtCsiqn6J3Zmf7c_18timekeeper_backend8handlers4auth11enforce_mfa
FN:447,_RNvNtNtCsiqn6J3Zmf7c_18timekeeper_backend8handlers4auth11mfa_disable
FN:408,_RNvNtNtCsiqn6J3Zmf7c_18timekeeper_backend8handlers4auth12mfa_activate
FN:388,_RNvNtNtCsiqn6J3Zmf7c_18timekeeper_backend8handlers4auth12mfa_register
FN:581,_RNvNtNtCsiqn6J3Zmf7c_18timekeeper_backend8handlers4auth14reset_password
FN:359,_RNvNtNtCsiqn6J3Zmf7c_18timekeeper_backend8handlers4auth14update_profile
FN:489,_RNvNtNtCsiqn6J3Zmf7c_18timekeeper_backend8handlers4auth15change_password
FN:1021,_RNvNtNtCsiqn6J3Zmf7c_18timekeeper_backend8handlers4auth16set_auth_cookies
FN:1047,_RNvNtNtCsiqn6J3Zmf7c_18timekeeper_backend8handlers4auth18clear_auth_cookies
FN:989,_RNvNtNtCsiqn6J3Zmf7c_18timekeeper_backend8handlers4auth18extract_user_agent
FN:1058,_RNvNtNtCsiqn6J3Zmf7c_18timekeeper_backend8handlers4auth19cookie_header_value
FN:655,_RNvNtNtCsiqn6J3Zmf7c_18timekeeper_backend8handlers4auth19create_auth_session
FN:677,_RNvNtNtCsiqn6J3Zmf7c_18timekeeper_backend8handlers4auth20begin_mfa_enrollment
FN:853,_RNvNtNtCsiqn6J3Zmf7c_18timekeeper_backend8handlers4auth21enforce_session_limit
FN:759,_RNvNtNtCsiqn6J3Zmf7c_18timekeeper_backend8handlers4auth21persist_refresh_token
FN:891,_RNvNtNtCsiqn6J3Zmf7c_18timekeeper_backend8handlers4auth21revoke_active_session
FN:769,_RNvNtNtCsiqn6J3Zmf7c_18timekeeper_backend8handlers4auth21sanitize_device_label
FN:553,_RNvNtNtCsiqn6J3Zmf7c_18timekeeper_backend8handlers4auth22request_password_reset
FN:1062,_RNvNtNtCsiqn6J3Zmf7c_18timekeeper_backend8handlers4auth23ensure_password_matches
FN:806,_RNvNtNtCsiqn6J3Zmf7c_18timekeeper_backend8handlers4auth23register_active_session
FN:1120,_RNvNtNtCsiqn6J3Zmf7c_18timekeeper_backend8handlers4auth26ensure_password_not_reused
FN:938,_RNvNtNtCsiqn6J3Zmf7c_18timekeeper_backend8handlers4auth26record_session_audit_event
FN:1103,_RNvNtNtCsiqn6J3Zmf7c_18timekeeper_backend8handlers4auth27enforce_password_expiration
FN:780,_RNvNtNtCsiqn6J3Zmf7c_18timekeeper_backend8handlers4auth27persist_active_access_token
FN:346,_RNvNtNtCsiqn6J3Zmf7c_18timekeeper_backend8handlers4auth2me
FN:61,_RNvNtNtCsiqn6J3Zmf7c_18timekeeper_backend8handlers4auth5login
FN:252,_RNvNtNtCsiqn6J3Zmf7c_18timekeeper_backend8handlers4auth6logout
FN:131,_RNvNtNtCsiqn6J3Zmf7c_18timekeeper_backend8handlers4auth7refresh
FN:398,_RNvNtNtCsiqn6J3Zmf7c_18timekeeper_backend8handlers4auth9mfa_setup
FN:1390,_RINvNtNtCsiqn6J3Zmf7c_18timekeeper_backend8handlers4auth11bad_requestNtNtCshQKOepsJxml_5alloc6string6StringEB6_
FN:1390,_RINvNtNtCsiqn6J3Zmf7c_18timekeeper_backend8handlers4auth11bad_requestReEB6_
FN:1394,_RINvNtNtCsiqn6J3Zmf7c_18timekeeper_backend8handlers4auth12unauthorizedReEB6_
FN:1398,_RINvNtNtCsiqn6J3Zmf7c_18timekeeper_backend8handlers4auth14internal_errorReEB6_
FN:703,_RINvNtNtCsiqn6J3Zmf7c_18timekeeper_backend8handlers4auth22process_login_for_userNCNCNvB2_5login0s0_0NCB1i_s1_0NCB1i_s2_0NCNCB1i_s0_00NCNCB1i_s1_00NCNCB1i_s2_00EB6_
FN:718,_RNCINvNtNtCsiqn6J3Zmf7c_18timekeeper_backend8handlers4auth22process_login_for_userNCNCNvB4_5login0s0_0NCB1k_s1_0NCB1k_s2_0NCNCB1k_s0_00NCNCB1k_s1_00NCNCB1k_s2_00E0B8_
FN:735,_RNCNCINvNtNtCsiqn6J3Zmf7c_18timekeeper_backend8handlers4auth22process_login_for_userNCNCNvB6_5login0s0_0NCB1m_s1_0NCB1m_s2_0NCNCB1m_s0_00NCNCB1m_s1_00NCNCB1m_s2_00E00Ba_
FN:746,_RNCNCINvNtNtCsiqn6J3Zmf7c_18timekeeper_backend8handlers4auth22process_login_for_userNCNCNvB6_5login0s0_0NCB1m_s1_0NCB1m_s2_0NCNCB1m_s0_00NCNCB1m_s1_00NCNCB1m_s2_00E0s0_0Ba_
FN:739,_RNCNCINvNtNtCsiqn6J3Zmf7c_18timekeeper_backend8handlers4auth22process_login_for_userNCNCNvB6_5login0s0_0NCB1m_s1_0NCB1m_s2_0NCNCB1m_s0_00NCNCB1m_s1_00NCNCB1m_s2_00E0s_0Ba_
FN:94,_RNCNCNCNCNvNtNtCsiqn6J3Zmf7c_18timekeeper_backend8handlers4auth5login0s1_000Bd_
FN:83,_RNCNCNCNvNtNtCsiqn6J3Zmf7c_18timekeeper_backend8handlers4auth5login0s0_00Bb_
FN:90,_RNCNCNCNvNtNtCsiqn6J3Zmf7c_18timekeeper_backend8handlers4auth5login0s1_00Bb_
FN:107,_RNCNCNCNvNtNtCsiqn6J3Zmf7c_18timekeeper_backend8handlers4auth5login0s2_00Bb_
FN:306,_RNCNCNCNvNtNtCsiqn6J3Zmf7c_18timekeeper_backend8handlers4auth6logout0s5_00Bb_
FN:144,_RNCNCNCNvNtNtCsiqn6J3Zmf7c_18timekeeper_backend8handlers4auth7refresh000Bb_
FN:145,_RNCNCNCNvNtNtCsiqn6J3Zmf7c_18timekeeper_backend8handlers4auth7refresh00s_0Bb_
FN:1087,_RNCNCNvNtNtCsiqn6J3Zmf7c_18timekeeper_backend8handlers4auth11enforce_mfa00B9_
FN:461,_RNCNCNvNtNtCsiqn6J3Zmf7c_18timekeeper_backend8handlers4auth11mfa_disable00B9_
FN:470,_RNCNCNvNtNtCsiqn6J3Zmf7c_18timekeeper_backend8handlers4auth11mfa_disable0s0_0B9_
FN:477,_RNCNCNvNtNtCsiqn6J3Zmf7c_18timekeeper_backend8handlers4auth11mfa_disable0s1_0B9_
FN:480,_RNCNCNvNtNtCsiqn6J3Zmf7c_18timekeeper_backend8handlers4auth11mfa_disable0s2_0B9_
FN:464,_RNCNCNvNtNtCsiqn6J3Zmf7c_18timekeeper_backend8handlers4auth11mfa_disable0s_0B9_
FN:418,_RNCNCNvNtNtCsiqn6J3Zmf7c_18timekeeper_backend8handlers4auth12mfa_activate00B9_
FN:428,_RNCNCNvNtNtCsiqn6J3Zmf7c_18timekeeper_backend8handlers4auth12mfa_activate0s0_0B9_
FN:435,_RNCNCNvNtNtCsiqn6J3Zmf7c_18timekeeper_backend8handlers4auth12mfa_activate0s1_0B9_
FN:438,_RNCNCNvNtNtCsiqn6J3Zmf7c_18timekeeper_backend8handlers4auth12mfa_activate0s2_0B9_
FN:421,_RNCNCNvNtNtCsiqn6J3Zmf7c_18timekeeper_backend8handlers4auth12mfa_activate0s_0B9_
FN:587,_RNCNCNvNtNtCsiqn6J3Zmf7c_18timekeeper_backend8handlers4auth14reset_password00B9_
FN:593,_RNCNCNvNtNtCsiqn6J3Zmf7c_18timekeeper_backend8handlers4auth14reset_password0s0_0B9_
FN:597,_RNCNCNvNtNtCsiqn6J3Zmf7c_18timekeeper_backend8handlers4auth14reset_password0s1_0B9_
FN:598,_RNCNCNvNtNtCsiqn6J3Zmf7c_18timekeeper_backend8handlers4auth14reset_password0s2_0B9_
FN:611,_RNCNCNvNtNtCsiqn6J3Zmf7c_18timekeeper_backend8handlers4auth14reset_password0s3_0B9_
FN:614,_RNCNCNvNtNtCsiqn6J3Zmf7c_18timekeeper_backend8handlers4auth14reset_password0s4_0B9_
FN:615,_RNCNCNvNtNtCsiqn6J3Zmf7c_18timekeeper_backend8handlers4auth14reset_password0s5_0B9_
FN:625,_RNCNCNvNtNtCsiqn6J3Zmf7c_18timekeeper_backend8handlers4auth14reset_password0s6_0B9_
FN:629,_RNCNCNvNtNtCsiqn6J3Zmf7c_18timekeeper_backend8handlers4auth14reset_password0s7_0B9_
FN:633,_RNCNCNvNtNtCsiqn6J3Zmf7c_18timekeeper_backend8handlers4auth14reset_password0s8_0B9_
FN:637,_RNCNCNvNtNtCsiqn6J3Zmf7c_18timekeeper_backend8handlers4auth14reset_password0s9_0B9_
FN:592,_RNCNCNvNtNtCsiqn6J3Zmf7c_18timekeeper_backend8handlers4auth14reset_password0s_0B9_
FN:643,_RNCNCNvNtNtCsiqn6J3Zmf7c_18timekeeper_backend8handlers4auth14reset_password0sa_0B9_
FN:370,_RNCNCNvNtNtCsiqn6J3Zmf7c_18timekeeper_backend8handlers4auth14update_profile00B9_
FN:383,_RNCNCNvNtNtCsiqn6J3Zmf7c_18timekeeper_backend8handlers4auth14update_profile0s_0B9_
FN:498,_RNCNCNvNtNtCsiqn6J3Zmf7c_18timekeeper_backend8handlers4auth15change_password00B9_
FN:526,_RNCNCNvNtNtCsiqn6J3Zmf7c_18timekeeper_backend8handlers4auth15change_password0s0_0B9_
FN:527,_RNCNCNvNtNtCsiqn6J3Zmf7c_18timekeeper_backend8handlers4auth15change_password0s1_0B9_
FN:537,_RNCNCNvNtNtCsiqn6J3Zmf7c_18timekeeper_backend8handlers4auth15change_password0s2_0B9_
FN:541,_RNCNCNvNtNtCsiqn6J3Zmf7c_18timekeeper_backend8handlers4auth15change_password0s3_0B9_
FN:544,_RNCNCNvNtNtCsiqn6J3Zmf7c_18timekeeper_backend8handlers4auth15change_password0s4_0B9_
FN:523,_RNCNCNvNtNtCsiqn6J3Zmf7c_18timekeeper_backend8handlers4auth15change_password0s_0B9_
FN:663,_RNCNCNvNtNtCsiqn6J3Zmf7c_18timekeeper_backend8handlers4auth19create_auth_session00B9_
FN:667,_RNCNCNvNtNtCsiqn6J3Zmf7c_18timekeeper_backend8handlers4auth19create_auth_session0s_0B9_
FN:688,_RNCNCNvNtNtCsiqn6J3Zmf7c_18timekeeper_backend8handlers4auth20begin_mfa_enrollment00B9_
FN:692,_RNCNCNvNtNtCsiqn6J3Zmf7c_18timekeeper_backend8handlers4auth20begin_mfa_enrollment0s_0B9_
FN:868,_RNCNCNvNtNtCsiqn6J3Zmf7c_18timekeeper_backend8handlers4auth21enforce_session_limit00B9_
FN:766,_RNCNCNvNtNtCsiqn6J3Zmf7c_18timekeeper_backend8handlers4auth21persist_refresh_token00B9_
FN:899,_RNCNCNvNtNtCsiqn6J3Zmf7c_18timekeeper_backend8handlers4auth21revoke_active_session00B9_
FN:907,_RNCNCNvNtNtCsiqn6J3Zmf7c_18timekeeper_backend8handlers4auth21revoke_active_session0s_0B9_
FN:561,_RNCNCNvNtNtCsiqn6J3Zmf7c_18timekeeper_backend8handlers4auth22request_password_reset00B9_
FN:570,_RNCNCNvNtNtCsiqn6J3Zmf7c_18timekeeper_backend8handlers4auth22request_password_reset0s0_0B9_
FN:567,_RNCNCNvNtNtCsiqn6J3Zmf7c_18timekeeper_backend8handlers4auth22request_password_reset0s_0B9_
FN:1069,_RNCNCNvNtNtCsiqn6J3Zmf7c_18timekeeper_backend8handlers4auth23ensure_password_matches00B9_
FN:1072,_RNCNCNvNtNtCsiqn6J3Zmf7c_18timekeeper_backend8handlers4auth23ensure_password_matches0s0_0B9_
FN:1071,_RNCNCNvNtNtCsiqn6J3Zmf7c_18timekeeper_backend8handlers4auth23ensure_password_matches0s_0B9_
FN:828,_RNCNCNvNtNtCsiqn6J3Zmf7c_18timekeeper_backend8handlers4auth23register_active_session00B9_
FN:1132,_RNCNCNvNtNtCsiqn6J3Zmf7c_18timekeeper_backend8handlers4auth26ensure_password_not_reused00B9_
FN:1141,_RNCNCNvNtNtCsiqn6J3Zmf7c_18timekeeper_backend8handlers4auth26ensure_password_not_reused0s0_0B9_
FN:1142,_RNCNCNvNtNtCsiqn6J3Zmf7c_18timekeeper_backend8handlers4auth26ensure_password_not_reused0s1_0B9_
FN:1135,_RNCNCNvNtNtCsiqn6J3Zmf7c_18timekeeper_backend8handlers4auth26ensure_password_not_reused0s_0B9_
FN:786,_RNCNCNvNtNtCsiqn6J3Zmf7c_18timekeeper_backend8handlers4auth27persist_active_access_token00B9_
FN:794,_RNCNCNvNtNtCsiqn6J3Zmf7c_18timekeeper_backend8handlers4auth27persist_active_access_token0s0_0B9_
FN:803,_RNCNCNvNtNtCsiqn6J3Zmf7c_18timekeeper_backend8handlers4auth27persist_active_access_token0s1_0B9_
FN:790,_RNCNCNvNtNtCsiqn6J3Zmf7c_18timekeeper_backend8handlers4auth27persist_active_access_token0s_0B9_
FN:72,_RNCNCNvNtNtCsiqn6J3Zmf7c_18timekeeper_backend8handlers4auth5login00B9_
FN:85,_RNCNCNvNtNtCsiqn6J3Zmf7c_18timekeeper_backend8handlers4auth5login0s0_0B9_
FN:99,_RNCNCNvNtNtCsiqn6J3Zmf7c_18timekeeper_backend8handlers4auth5login0s1_0B9_
FN:121,_RNCNCNvNtNtCsiqn6J3Zmf7c_18timekeeper_backend8handlers4auth5login0s2_0B9_
FN:73,_RNCNCNvNtNtCsiqn6J3Zmf7c_18timekeeper_backend8handlers4auth5login0s_0B9_
FN:263,_RNCNCNvNtNtCsiqn6J3Zmf7c_18timekeeper_backend8handlers4auth6logout00B9_
FN:271,_RNCNCNvNtNtCsiqn6J3Zmf7c_18timekeeper_backend8handlers4auth6logout0s0_0B9_
FN:274,_RNCNCNvNtNtCsiqn6J3Zmf7c_18timekeeper_backend8handlers4auth6logout0s1_0B9_
FN:277,_RNCNCNvNtNtCsiqn6J3Zmf7c_18timekeeper_backend8handlers4auth6logout0s2_0B9_
FN:302,_RNCNCNvNtNtCsiqn6J3Zmf7c_18timekeeper_backend8handlers4auth6logout0s3_0B9_
FN:303,_RNCNCNvNtNtCsiqn6J3Zmf7c_18timekeeper_backend8handlers4auth6logout0s4_0B9_
FN:304,_RNCNCNvNtNtCsiqn6J3Zmf7c_18timekeeper_backend8handlers4auth6logout0s5_0B9_
FN:312,_RNCNCNvNtNtCsiqn6J3Zmf7c_18timekeeper_backend8handlers4auth6logout0s6_0B9_
FN:318,_RNCNCNvNtNtCsiqn6J3Zmf7c_18timekeeper_backend8handlers4auth6logout0s7_0B9_
FN:322,_RNCNCNvNtNtCsiqn6J3Zmf7c_18timekeeper_backend8handlers4auth6logout0s8_0B9_
FN:326,_RNCNCNvNtNtCsiqn6J3Zmf7c_18timekeeper_backend8handlers4auth6logout0s9_0B9_
FN:268,_RNCNCNvNtNtCsiqn6J3Zmf7c_18timekeeper_backend8handlers4auth6logout0s_0B9_
FN:141,_RNCNCNvNtNtCsiqn6J3Zmf7c_18timekeeper_backend8handlers4auth7refresh00B9_
FN:150,_RNCNCNvNtNtCsiqn6J3Zmf7c_18timekeeper_backend8handlers4auth7refresh0s0_0B9_
FN:154,_RNCNCNvNtNtCsiqn6J3Zmf7c_18timekeeper_backend8handlers4auth7refresh0s1_0B9_
FN:155,_RNCNCNvNtNtCsiqn6J3Zmf7c_18timekeeper_backend8handlers4auth7refresh0s2_0B9_
FN:158,_RNCNCNvNtNtCsiqn6J3Zmf7c_18timekeeper_backend8handlers4auth7refresh0s3_0B9_
FN:165,_RNCNCNvNtNtCsiqn6J3Zmf7c_18timekeeper_backend8handlers4auth7refresh0s4_0B9_
FN:166,_RNCNCNvNtNtCsiqn6J3Zmf7c_18timekeeper_backend8handlers4auth7refresh0s5_0B9_
FN:179,_RNCNCNvNtNtCsiqn6J3Zmf7c_18timekeeper_backend8handlers4auth7refresh0s6_0B9_
FN:182,_RNCNCNvNtNtCsiqn6J3Zmf7c_18timekeeper_backend8handlers4auth7refresh0s7_0B9_
FN:185,_RNCNCNvNtNtCsiqn6J3Zmf7c_18timekeeper_backend8handlers4auth7refresh0s8_0B9_
FN:209,_RNCNCNvNtNtCsiqn6J3Zmf7c_18timekeeper_backend8handlers4auth7refresh0s9_0B9_
FN:147,_RNCNCNvNtNtCsiqn6J3Zmf7c_18timekeeper_backend8handlers4auth7refresh0s_0B9_
FN:230,_RNCNCNvNtNtCsiqn6J3Zmf7c_18timekeeper_backend8handlers4auth7refresh0sa_0B9_
FN:238,_RNCNCNvNtNtCsiqn6J3Zmf7c_18timekeeper_backend8handlers4auth7refresh0sb_0B9_
FN:242,_RNCNCNvNtNtCsiqn6J3Zmf7c_18timekeeper_backend8handlers4auth7refresh0sc_0B9_
FN:933,_RNCNvMNtNtCsiqn6J3Zmf7c_18timekeeper_backend8handlers4authNtB4_12AuditContext3new0B8_
FN:1000,_RNCNvMs_NtNtCsiqn6J3Zmf7c_18timekeeper_backend8handlers4authNtB6_11AuthSession13access_claims0Ba_
FN:1005,_RNCNvMs_NtNtCsiqn6J3Zmf7c_18timekeeper_backend8handlers4authNtB6_11AuthSession18refresh_token_data0Ba_
FN:1010,_RNCNvMs_NtNtCsiqn6J3Zmf7c_18timekeeper_backend8handlers4authNtB6_11AuthSession18refresh_token_datas0_0Ba_
FN:1007,_RNCNvMs_NtNtCsiqn6J3Zmf7c_18timekeeper_backend8handlers4authNtB6_11AuthSession18refresh_token_datas_0Ba_
FN:975,_RNCNvNtNtCsiqn6J3Zmf7c_18timekeeper_backend8handlers4auth10extract_ip0B7_
FN:980,_RNCNvNtNtCsiqn6J3Zmf7c_18timekeeper_backend8handlers4auth10extract_ips0_0B7_
FN:984,_RNCNvNtNtCsiqn6J3Zmf7c_18timekeeper_backend8handlers4auth10extract_ips1_0B7_
FN:985,_RNCNvNtNtCsiqn6J3Zmf7c_18timekeeper_backend8handlers4auth10extract_ips2_0B7_
FN:986,_RNCNvNtNtCsiqn6J3Zmf7c_18timekeeper_backend8handlers4auth10extract_ips3_0B7_
FN:979,_RNCNvNtNtCsiqn6J3Zmf7c_18timekeeper_backend8handlers4auth10extract_ips_0B7_
FN:352,_RNCNvNtNtCsiqn6J3Zmf7c_18timekeeper_backend8handlers4auth10mfa_status0B7_
FN:1085,_RNCNvNtNtCsiqn6J3Zmf7c_18timekeeper_backend8handlers4auth11enforce_mfa0B7_
FN:1091,_RNCNvNtNtCsiqn6J3Zmf7c_18timekeeper_backend8handlers4auth11enforce_mfas0_0B7_
FN:1095,_RNCNvNtNtCsiqn6J3Zmf7c_18timekeeper_backend8handlers4auth11enforce_mfas1_0B7_
FN:1096,_RNCNvNtNtCsiqn6J3Zmf7c_18timekeeper_backend8handlers4auth11enforce_mfas2_0B7_
FN:1090,_RNCNvNtNtCsiqn6J3Zmf7c_18timekeeper_backend8handlers4auth11enforce_mfas_0B7_
FN:452,_RNCNvNtNtCsiqn6J3Zmf7c_18timekeeper_backend8handlers4auth11mfa_disable0B7_
FN:413,_RNCNvNtNtCsiqn6J3Zmf7c_18timekeeper_backend8handlers4auth12mfa_activate0B7_
FN:392,_RNCNvNtNtCsiqn6J3Zmf7c_18timekeeper_backend8handlers4auth12mfa_register0B7_
FN:584,_RNCNvNtNtCsiqn6J3Zmf7c_18timekeeper_backend8handlers4auth14reset_password0B7_
FN:363,_RNCNvNtNtCsiqn6J3Zmf7c_18timekeeper_backend8handlers4auth14update_profile0B7_
FN:494,_RNCNvNtNtCsiqn6J3Zmf7c_18timekeeper_backend8handlers4auth15change_password0B7_
FN:992,_RNCNvNtNtCsiqn6J3Zmf7c_18timekeeper_backend8handlers4auth18extract_user_agent0B7_
FN:994,_RNCNvNtNtCsiqn6J3Zmf7c_18timekeeper_backend8handlers4auth18extract_user_agents0_0B7_
FN:993,_RNCNvNtNtCsiqn6J3Zmf7c_18timekeeper_backend8handlers4auth18extract_user_agents_0B7_
FN:1059,_RNCNvNtNtCsiqn6J3Zmf7c_18timekeeper_backend8handlers4auth19cookie_header_value0B7_
FN:655,_RNCNvNtNtCsiqn6J3Zmf7c_18timekeeper_backend8handlers4auth19create_auth_session0B7_
FN:681,_RNCNvNtNtCsiqn6J3Zmf7c_18timekeeper_backend8handlers4auth20begin_mfa_enrollment0B7_
FN:860,_RNCNvNtNtCsiqn6J3Zmf7c_18timekeeper_backend8handlers4auth21enforce_session_limit0B7_
FN:763,_RNCNvNtNtCsiqn6J3Zmf7c_18timekeeper_backend8handlers4auth21persist_refresh_token0B7_
FN:895,_RNCNvNtNtCsiqn6J3Zmf7c_18timekeeper_backend8handlers4auth21revoke_active_session0B7_
FN:770,_RNCNvNtNtCsiqn6J3Zmf7c_18timekeeper_backend8handlers4auth21sanitize_device_label0B7_
FN:556,_RNCNvNtNtCsiqn6J3Zmf7c_18timekeeper_backend8handlers4auth22request_password_reset0B7_
FN:1066,_RNCNvNtNtCsiqn6J3Zmf7c_18timekeeper_backend8handlers4auth23ensure_password_matches0B7_
FN:817,_RNCNvNtNtCsiqn6J3Zmf7c_18timekeeper_backend8handlers4auth23register_active_session0B7_
FN:1126,_RNCNvNtNtCsiqn6J3Zmf7c_18timekeeper_backend8handlers4auth26ensure_password_not_reused0B7_
FN:963,_RNCNvNtNtCsiqn6J3Zmf7c_18timekeeper_backend8handlers4auth26record_session_audit_event0B7_
FN:1112,_RNCNvNtNtCsiqn6J3Zmf7c_18timekeeper_backend8handlers4auth27enforce_password_expiration0B7_
FN:784,_RNCNvNtNtCsiqn6J3Zmf7c_18timekeeper_backend8handlers4auth27persist_active_access_token0B7_
FN:346,_RNCNvNtNtCsiqn6J3Zmf7c_18timekeeper_backend8handlers4auth2me0B7_
FN:67,_RNCNvNtNtCsiqn6J3Zmf7c_18timekeeper_backend8handlers4auth5login0B7_
FN:260,_RNCNvNtNtCsiqn6J3Zmf7c_18timekeeper_backend8handlers4auth6logout0B7_
FN:137,_RNCNvNtNtCsiqn6J3Zmf7c_18timekeeper_backend8handlers4auth7refresh0B7_
FN:402,_RNCNvNtNtCsiqn6J3Zmf7c_18timekeeper_backend8handlers4auth9mfa_setup0B7_
FN:350,_RNvNtNtCs86yVScfUyun_18timekeeper_backend8handlers4auth10mfa_status
FN:447,_RNvNtNtCs86yVScfUyun_18timekeeper_backend8handlers4auth11mfa_disable
FN:408,_RNvNtNtCs86yVScfUyun_18timekeeper_backend8handlers4auth12mfa_activate
FN:388,_RNvNtNtCs86yVScfUyun_18timekeeper_backend8handlers4auth12mfa_register
FN:581,_RNvNtNtCs86yVScfUyun_18timekeeper_backend8handlers4auth14reset_password
FN:359,_RNvNtNtCs86yVScfUyun_18timekeeper_backend8handlers4auth14update_profile
FN:489,_RNvNtNtCs86yVScfUyun_18timekeeper_backend8handlers4auth15change_password
FN:553,_RNvNtNtCs86yVScfUyun_18timekeeper_backend8handlers4auth22request_password_reset
FN:346,_RNvNtNtCs86yVScfUyun_18timekeeper_backend8handlers4auth2me
FN:61,_RNvNtNtCs86yVScfUyun_18timekeeper_backend8handlers4auth5login
FN:252,_RNvNtNtCs86yVScfUyun_18timekeeper_backend8handlers4auth6logout
FN:131,_RNvNtNtCs86yVScfUyun_18timekeeper_backend8handlers4auth7refresh
FN:398,_RNvNtNtCs86yVScfUyun_18timekeeper_backend8handlers4auth9mfa_setup
FN:1390,_RINvNtNtCs86yVScfUyun_18timekeeper_backend8handlers4auth11bad_requestNtNtCshQKOepsJxml_5alloc6string6StringEB6_
FN:1390,_RINvNtNtCs86yVScfUyun_18timekeeper_backend8handlers4auth11bad_requestReEB6_
FN:1394,_RINvNtNtCs86yVScfUyun_18timekeeper_backend8handlers4auth12unauthorizedReEB6_
FN:1398,_RINvNtNtCs86yVScfUyun_18timekeeper_backend8handlers4auth14internal_errorReEB6_
FN:703,_RINvNtNtCs86yVScfUyun_18timekeeper_backend8handlers4auth22process_login_for_userNCNCNvB2_5login0s0_0NCB1i_s1_0NCB1i_s2_0NCNCB1i_s0_00NCNCB1i_s1_00NCNCB1i_s2_00EB6_
FN:718,_RNCINvNtNtCs86yVScfUyun_18timekeeper_backend8handlers4auth22process_login_for_userNCNCNvB4_5login0s0_0NCB1k_s1_0NCB1k_s2_0NCNCB1k_s0_00NCNCB1k_s1_00NCNCB1k_s2_00E0B8_
FN:735,_RNCNCINvNtNtCs86yVScfUyun_18timekeeper_backend8handlers4auth22process_login_for_userNCNCNvB6_5login0s0_0NCB1m_s1_0NCB1m_s2_0NCNCB1m_s0_00NCNCB1m_s1_00NCNCB1m_s2_00E00Ba_
FN:746,_RNCNCINvNtNtCs86yVScfUyun_18timekeeper_backend8handlers4auth22process_login_for_userNCNCNvB6_5login0s0_0NCB1m_s1_0NCB1m_s2_0NCNCB1m_s0_00NCNCB1m_s1_00NCNCB1m_s2_00E0s0_0Ba_
FN:739,_RNCNCINvNtNtCs86yVScfUyun_18timekeeper_backend8handlers4auth22process_login_for_userNCNCNvB6_5login0s0_0NCB1m_s1_0NCB1m_s2_0NCNCB1m_s0_00NCNCB1m_s1_00NCNCB1m_s2_00E0s_0Ba_
FN:94,_RNCNCNCNCNvNtNtCs86yVScfUyun_18timekeeper_backend8handlers4auth5login0s1_000Bd_
FN:83,_RNCNCNCNvNtNtCs86yVScfUyun_18timekeeper_backend8handlers4auth5login0s0_00Bb_
FN:90,_RNCNCNCNvNtNtCs86yVScfUyun_18timekeeper_backend8handlers4auth5login0s1_00Bb_
FN:107,_RNCNCNCNvNtNtCs86yVScfUyun_18timekeeper_backend8handlers4auth5login0s2_00Bb_
FN:306,_RNCNCNCNvNtNtCs86yVScfUyun_18timekeeper_backend8handlers4auth6logout0s5_00Bb_
FN:144,_RNCNCNCNvNtNtCs86yVScfUyun_18timekeeper_backend8handlers4auth7refresh000Bb_
FN:145,_RNCNCNCNvNtNtCs86yVScfUyun_18timekeeper_backend8handlers4auth7refresh00s_0Bb_
FN:1087,_RNCNCNvNtNtCs86yVScfUyun_18timekeeper_backend8handlers4auth11enforce_mfa00B9_
FN:461,_RNCNCNvNtNtCs86yVScfUyun_18timekeeper_backend8handlers4auth11mfa_disable00B9_
FN:470,_RNCNCNvNtNtCs86yVScfUyun_18timekeeper_backend8handlers4auth11mfa_disable0s0_0B9_
FN:477,_RNCNCNvNtNtCs86yVScfUyun_18timekeeper_backend8handlers4auth11mfa_disable0s1_0B9_
FN:480,_RNCNCNvNtNtCs86yVScfUyun_18timekeeper_backend8handlers4auth11mfa_disable0s2_0B9_
FN:464,_RNCNCNvNtNtCs86yVScfUyun_18timekeeper_backend8handlers4auth11mfa_disable0s_0B9_
FN:418,_RNCNCNvNtNtCs86yVScfUyun_18timekeeper_backend8handlers4auth12mfa_activate00B9_
FN:428,_RNCNCNvNtNtCs86yVScfUyun_18timekeeper_backend8handlers4auth12mfa_activate0s0_0B9_
FN:435,_RNCNCNvNtNtCs86yVScfUyun_18timekeeper_backend8handlers4auth12mfa_activate0s1_0B9_
FN:438,_RNCNCNvNtNtCs86yVScfUyun_18timekeeper_backend8handlers4auth12mfa_activate0s2_0B9_
FN:421,_RNCNCNvNtNtCs86yVScfUyun_18timekeeper_backend8handlers4auth12mfa_activate0s_0B9_
FN:587,_RNCNCNvNtNtCs86yVScfUyun_18timekeeper_backend8handlers4auth14reset_password00B9_
FN:593,_RNCNCNvNtNtCs86yVScfUyun_18timekeeper_backend8handlers4auth14reset_password0s0_0B9_
FN:597,_RNCNCNvNtNtCs86yVScfUyun_18timekeeper_backend8handlers4auth14reset_password0s1_0B9_
FN:598,_RNCNCNvNtNtCs86yVScfUyun_18timekeeper_backend8handlers4auth14reset_password0s2_0B9_
FN:611,_RNCNCNvNtNtCs86yVScfUyun_18timekeeper_backend8handlers4auth14reset_password0s3_0B9_
FN:614,_RNCNCNvNtNtCs86yVScfUyun_18timekeeper_backend8handlers4auth14reset_password0s4_0B9_
FN:615,_RNCNCNvNtNtCs86yVScfUyun_18timekeeper_backend8handlers4auth14reset_password0s5_0B9_
FN:625,_RNCNCNvNtNtCs86yVScfUyun_18timekeeper_backend8handlers4auth14reset_password0s6_0B9_
FN:629,_RNCNCNvNtNtCs86yVScfUyun_18timekeeper_backend8handlers4auth14reset_password0s7_0B9_
FN:633,_RNCNCNvNtNtCs86yVScfUyun_18timekeeper_backend8handlers4auth14reset_password0s8_0B9_
FN:637,_RNCNCNvNtNtCs86yVScfUyun_18timekeeper_backend8handlers4auth14reset_password0s9_0B9_
FN:592,_RNCNCNvNtNtCs86yVScfUyun_18timekeeper_backend8handlers4auth14reset_password0s_0B9_
FN:643,_RNCNCNvNtNtCs86yVScfUyun_18timekeeper_backend8handlers4auth14reset_password0sa_0B9_
FN:370,_RNCNCNvNtNtCs86yVScfUyun_18timekeeper_backend8handlers4auth14update_profile00B9_
FN:383,_RNCNCNvNtNtCs86yVScfUyun_18timekeeper_backend8handlers4auth14update_profile0s_0B9_
FN:498,_RNCNCNvNtNtCs86yVScfUyun_18timekeeper_backend8handlers4auth15change_password00B9_
FN:526,_RNCNCNvNtNtCs86yVScfUyun_18timekeeper_backend8handlers4auth15change_password0s0_0B9_
FN:527,_RNCNCNvNtNtCs86yVScfUyun_18timekeeper_backend8handlers4auth15change_password0s1_0B9_
FN:537,_RNCNCNvNtNtCs86yVScfUyun_18timekeeper_backend8handlers4auth15change_password0s2_0B9_
FN:541,_RNCNCNvNtNtCs86yVScfUyun_18timekeeper_backend8handlers4auth15change_password0s3_0B9_
FN:544,_RNCNCNvNtNtCs86yVScfUyun_18timekeeper_backend8handlers4auth15change_password0s4_0B9_
FN:523,_RNCNCNvNtNtCs86yVScfUyun_18timekeeper_backend8handlers4auth15change_password0s_0B9_
FN:663,_RNCNCNvNtNtCs86yVScfUyun_18timekeeper_backend8handlers4auth19create_auth_session00B9_
FN:667,_RNCNCNvNtNtCs86yVScfUyun_18timekeeper_backend8handlers4auth19create_auth_session0s_0B9_
FN:688,_RNCNCNvNtNtCs86yVScfUyun_18timekeeper_backend8handlers4auth20begin_mfa_enrollment00B9_
FN:692,_RNCNCNvNtNtCs86yVScfUyun_18timekeeper_backend8handlers4auth20begin_mfa_enrollment0s_0B9_
FN:868,_RNCNCNvNtNtCs86yVScfUyun_18timekeeper_backend8handlers4auth21enforce_session_limit00B9_
FN:766,_RNCNCNvNtNtCs86yVScfUyun_18timekeeper_backend8handlers4auth21persist_refresh_token00B9_
FN:899,_RNCNCNvNtNtCs86yVScfUyun_18timekeeper_backend8handlers4auth21revoke_active_session00B9_
FN:907,_RNCNCNvNtNtCs86yVScfUyun_18timekeeper_backend8handlers4auth21revoke_active_session0s_0B9_
FN:561,_RNCNCNvNtNtCs86yVScfUyun_18timekeeper_backend8handlers4auth22request_password_reset00B9_
FN:570,_RNCNCNvNtNtCs86yVScfUyun_18timekeeper_backend8handlers4auth22request_password_reset0s0_0B9_
FN:567,_RNCNCNvNtNtCs86yVScfUyun_18timekeeper_backend8handlers4auth22request_password_reset0s_0B9_
FN:1069,_RNCNCNvNtNtCs86yVScfUyun_18timekeeper_backend8handlers4auth23ensure_password_matches00B9_
FN:1072,_RNCNCNvNtNtCs86yVScfUyun_18timekeeper_backend8handlers4auth23ensure_password_matches0s0_0B9_
FN:1071,_RNCNCNvNtNtCs86yVScfUyun_18timekeeper_backend8handlers4auth23ensure_password_matches0s_0B9_
FN:828,_RNCNCNvNtNtCs86yVScfUyun_18timekeeper_backend8handlers4auth23register_active_session00B9_
FN:1132,_RNCNCNvNtNtCs86yVScfUyun_18timekeeper_backend8handlers4auth26ensure_password_not_reused00B9_
FN:1141,_RNCNCNvNtNtCs86yVScfUyun_18timekeeper_backend8handlers4auth26ensure_password_not_reused0s0_0B9_
FN:1142,_RNCNCNvNtNtCs86yVScfUyun_18timekeeper_backend8handlers4auth26ensure_password_not_reused0s1_0B9_
FN:1135,_RNCNCNvNtNtCs86yVScfUyun_18timekeeper_backend8handlers4auth26ensure_password_not_reused0s_0B9_
FN:786,_RNCNCNvNtNtCs86yVScfUyun_18timekeeper_backend8handlers4auth27persist_active_access_token00B9_
FN:794,_RNCNCNvNtNtCs86yVScfUyun_18timekeeper_backend8handlers4auth27persist_active_access_token0s0_0B9_
FN:803,_RNCNCNvNtNtCs86yVScfUyun_18timekeeper_backend8handlers4auth27persist_active_access_token0s1_0B9_
FN:790,_RNCNCNvNtNtCs86yVScfUyun_18timekeeper_backend8handlers4auth27persist_active_access_token0s_0B9_
FN:72,_RNCNCNvNtNtCs86yVScfUyun_18timekeeper_backend8handlers4auth5login00B9_
FN:85,_RNCNCNvNtNtCs86yVScfUyun_18timekeeper_backend8handlers4auth5login0s0_0B9_
FN:99,_RNCNCNvNtNtCs86yVScfUyun_18timekeeper_backend8handlers4auth5login0s1_0B9_
FN:121,_RNCNCNvNtNtCs86yVScfUyun_18timekeeper_backend8handlers4auth5login0s2_0B9_
FN:73,_RNCNCNvNtNtCs86yVScfUyun_18timekeeper_backend8handlers4auth5login0s_0B9_
FN:263,_RNCNCNvNtNtCs86yVScfUyun_18timekeeper_backend8handlers4auth6logout00B9_
FN:271,_RNCNCNvNtNtCs86yVScfUyun_18timekeeper_backend8handlers4auth6logout0s0_0B9_
FN:274,_RNCNCNvNtNtCs86yVScfUyun_18timekeeper_backend8handlers4auth6logout0s1_0B9_
FN:277,_RNCNCNvNtNtCs86yVScfUyun_18timekeeper_backend8handlers4auth6logout0s2_0B9_
FN:302,_RNCNCNvNtNtCs86yVScfUyun_18timekeeper_backend8handlers4auth6logout0s3_0B9_
FN:303,_RNCNCNvNtNtCs86yVScfUyun_18timekeeper_backend8handlers4auth6logout0s4_0B9_
FN:304,_RNCNCNvNtNtCs86yVScfUyun_18timekeeper_backend8handlers4auth6logout0s5_0B9_
FN:312,_RNCNCNvNtNtCs86yVScfUyun_18timekeeper_backend8handlers4auth6logout0s6_0B9_
FN:318,_RNCNCNvNtNtCs86yVScfUyun_18timekeeper_backend8handlers4auth6logout0s7_0B9_
FN:322,_RNCNCNvNtNtCs86yVScfUyun_18timekeeper_backend8handlers4auth6logout0s8_0B9_
FN:326,_RNCNCNvNtNtCs86yVScfUyun_18timekeeper_backend8handlers4auth6logout0s9_0B9_
FN:268,_RNCNCNvNtNtCs86yVScfUyun_18timekeeper_backend8handlers4auth6logout0s_0B9_
FN:141,_RNCNCNvNtNtCs86yVScfUyun_18timekeeper_backend8handlers4auth7refresh00B9_
FN:150,_RNCNCNvNtNtCs86yVScfUyun_18timekeeper_backend8handlers4auth7refresh0s0_0B9_
FN:154,_RNCNCNvNtNtCs86yVScfUyun_18timekeeper_backend8handlers4auth7refresh0s1_0B9_
FN:155,_RNCNCNvNtNtCs86yVScfUyun_18timekeeper_backend8handlers4auth7refresh0s2_0B9_
FN:158,_RNCNCNvNtNtCs86yVScfUyun_18timekeeper_backend8handlers4auth7refresh0s3_0B9_
FN:165,_RNCNCNvNtNtCs86yVScfUyun_18timekeeper_backend8handlers4auth7refresh0s4_0B9_
FN:166,_RNCNCNvNtNtCs86yVScfUyun_18timekeeper_backend8handlers4auth7refresh0s5_0B9_
FN:179,_RNCNCNvNtNtCs86yVScfUyun_18timekeeper_backend8handlers4auth7refresh0s6_0B9_
FN:182,_RNCNCNvNtNtCs86yVScfUyun_18timekeeper_backend8handlers4auth7refresh0s7_0B9_
FN:185,_RNCNCNvNtNtCs86yVScfUyun_18timekeeper_backend8handlers4auth7refresh0s8_0B9_
FN:209,_RNCNCNvNtNtCs86yVScfUyun_18timekeeper_backend8handlers4auth7refresh0s9_0B9_
FN:147,_RNCNCNvNtNtCs86yVScfUyun_18timekeeper_backend8handlers4auth7refresh0s_0B9_
FN:230,_RNCNCNvNtNtCs86yVScfUyun_18timekeeper_backend8handlers4auth7refresh0sa_0B9_
FN:238,_RNCNCNvNtNtCs86yVScfUyun_18timekeeper_backend8handlers4auth7refresh0sb_0B9_
FN:242,_RNCNCNvNtNtCs86yVScfUyun_18timekeeper_backend8handlers4auth7refresh0sc_0B9_
FN:933,_RNCNvMNtNtCs86yVScfUyun_18timekeeper_backend8handlers4authNtB4_12AuditContext3new0B8_
FN:1000,_RNCNvMs_NtNtCs86yVScfUyun_18timekeeper_backend8handlers4authNtB6_11AuthSession13access_claims0Ba_
FN:1005,_RNCNvMs_NtNtCs86yVScfUyun_18timekeeper_backend8handlers4authNtB6_11AuthSession18refresh_token_data0Ba_
FN:1010,_RNCNvMs_NtNtCs86yVScfUyun_18timekeeper_backend8handlers4authNtB6_11AuthSession18refresh_token_datas0_0Ba_
FN:1007,_RNCNvMs_NtNtCs86yVScfUyun_18timekeeper_backend8handlers4authNtB6_11AuthSession18refresh_token_datas_0Ba_
FN:975,_RNCNvNtNtCs86yVScfUyun_18timekeeper_backend8handlers4auth10extract_ip0B7_
FN:980,_RNCNvNtNtCs86yVScfUyun_18timekeeper_backend8handlers4auth10extract_ips0_0B7_
FN:984,_RNCNvNtNtCs86yVScfUyun_18timekeeper_backend8handlers4auth10extract_ips1_0B7_
FN:985,_RNCNvNtNtCs86yVScfUyun_18timekeeper_backend8handlers4auth10extract_ips2_0B7_
FN:986,_RNCNvNtNtCs86yVScfUyun_18timekeeper_backend8handlers4auth10extract_ips3_0B7_
FN:979,_RNCNvNtNtCs86yVScfUyun_18timekeeper_backend8handlers4auth10extract_ips_0B7_
FN:352,_RNCNvNtNtCs86yVScfUyun_18timekeeper_backend8handlers4auth10mfa_status0B7_
FN:1085,_RNCNvNtNtCs86yVScfUyun_18timekeeper_backend8handlers4auth11enforce_mfa0B7_
FN:1091,_RNCNvNtNtCs86yVScfUyun_18timekeeper_backend8handlers4auth11enforce_mfas0_0B7_
FN:1095,_RNCNvNtNtCs86yVScfUyun_18timekeeper_backend8handlers4auth11enforce_mfas1_0B7_
FN:1096,_RNCNvNtNtCs86yVScfUyun_18timekeeper_backend8handlers4auth11enforce_mfas2_0B7_
FN:1090,_RNCNvNtNtCs86yVScfUyun_18timekeeper_backend8handlers4auth11enforce_mfas_0B7_
FN:452,_RNCNvNtNtCs86yVScfUyun_18timekeeper_backend8handlers4auth11mfa_disable0B7_
FN:413,_RNCNvNtNtCs86yVScfUyun_18timekeeper_backend8handlers4auth12mfa_activate0B7_
FN:392,_RNCNvNtNtCs86yVScfUyun_18timekeeper_backend8handlers4auth12mfa_register0B7_
FN:584,_RNCNvNtNtCs86yVScfUyun_18timekeeper_backend8handlers4auth14reset_password0B7_
FN:363,_RNCNvNtNtCs86yVScfUyun_18timekeeper_backend8handlers4auth14update_profile0B7_
FN:494,_RNCNvNtNtCs86yVScfUyun_18timekeeper_backend8handlers4auth15change_password0B7_
FN:992,_RNCNvNtNtCs86yVScfUyun_18timekeeper_backend8handlers4auth18extract_user_agent0B7_
FN:994,_RNCNvNtNtCs86yVScfUyun_18timekeeper_backend8handlers4auth18extract_user_agents0_0B7_
FN:993,_RNCNvNtNtCs86yVScfUyun_18timekeeper_backend8handlers4auth18extract_user_agents_0B7_
FN:1059,_RNCNvNtNtCs86yVScfUyun_18timekeeper_backend8handlers4auth19cookie_header_value0B7_
FN:655,_RNCNvNtNtCs86yVScfUyun_18timekeeper_backend8handlers4auth19create_auth_session0B7_
FN:681,_RNCNvNtNtCs86yVScfUyun_18timekeeper_backend8handlers4auth20begin_mfa_enrollment0B7_
FN:860,_RNCNvNtNtCs86yVScfUyun_18timekeeper_backend8handlers4auth21enforce_session_limit0B7_
FN:763,_RNCNvNtNtCs86yVScfUyun_18timekeeper_backend8handlers4auth21persist_refresh_token0B7_
FN:895,_RNCNvNtNtCs86yVScfUyun_18timekeeper_backend8handlers4auth21revoke_active_session0B7_
FN:770,_RNCNvNtNtCs86yVScfUyun_18timekeeper_backend8handlers4auth21sanitize_device_label0B7_
FN:556,_RNCNvNtNtCs86yVScfUyun_18timekeeper_backend8handlers4auth22request_password_reset0B7_
FN:1066,_RNCNvNtNtCs86yVScfUyun_18timekeeper_backend8handlers4auth23ensure_password_matches0B7_
FN:817,_RNCNvNtNtCs86yVScfUyun_18timekeeper_backend8handlers4auth23register_active_session0B7_
FN:1126,_RNCNvNtNtCs86yVScfUyun_18timekeeper_backend8handlers4auth26ensure_password_not_reused0B7_
FN:963,_RNCNvNtNtCs86yVScfUyun_18timekeeper_backend8handlers4auth26record_session_audit_event0B7_
FN:1112,_RNCNvNtNtCs86yVScfUyun_18timekeeper_backend8handlers4auth27enforce_password_expiration0B7_
FN:784,_RNCNvNtNtCs86yVScfUyun_18timekeeper_backend8handlers4auth27persist_active_access_token0B7_
FN:346,_RNCNvNtNtCs86yVScfUyun_18timekeeper_backend8handlers4auth2me0B7_
FN:67,_RNCNvNtNtCs86yVScfUyun_18timekeeper_backend8handlers4auth5login0B7_
FN:260,_RNCNvNtNtCs86yVScfUyun_18timekeeper_backend8handlers4auth6logout0B7_
FN:137,_RNCNvNtNtCs86yVScfUyun_18timekeeper_backend8handlers4auth7refresh0B7_
FN:402,_RNCNvNtNtCs86yVScfUyun_18timekeeper_backend8handlers4auth9mfa_setup0B7_
FN:922,_RNvMNtNtCs86yVScfUyun_18timekeeper_backend8handlers4authNtB2_12AuditContext3new
FN:998,_RNvMs_NtNtCs86yVScfUyun_18timekeeper_backend8handlers4authNtB4_11AuthSession13access_claims
FN:1003,_RNvMs_NtNtCs86yVScfUyun_18timekeeper_backend8handlers4authNtB4_11AuthSession18refresh_token_data
FN:974,_RNvNtNtCs86yVScfUyun_18timekeeper_backend8handlers4auth10extract_ip
FN:1080,_RNvNtNtCs86yVScfUyun_18timekeeper_backend8handlers4auth11enforce_mfa
FN:1021,_RNvNtNtCs86yVScfUyun_18timekeeper_backend8handlers4auth16set_auth_cookies
FN:1047,_RNvNtNtCs86yVScfUyun_18timekeeper_backend8handlers4auth18clear_auth_cookies
FN:989,_RNvNtNtCs86yVScfUyun_18timekeeper_backend8handlers4auth18extract_user_agent
FN:1058,_RNvNtNtCs86yVScfUyun_18timekeeper_backend8handlers4auth19cookie_header_value
FN:655,_RNvNtNtCs86yVScfUyun_18timekeeper_backend8handlers4auth19create_auth_session
FN:677,_RNvNtNtCs86yVScfUyun_18timekeeper_backend8handlers4auth20begin_mfa_enrollment
FN:853,_RNvNtNtCs86yVScfUyun_18timekeeper_backend8handlers4auth21enforce_session_limit
FN:759,_RNvNtNtCs86yVScfUyun_18timekeeper_backend8handlers4auth21persist_refresh_token
FN:891,_RNvNtNtCs86yVScfUyun_18timekeeper_backend8handlers4auth21revoke_active_session
FN:769,_RNvNtNtCs86yVScfUyun_18timekeeper_backend8handlers4auth21sanitize_device_label
FN:1062,_RNvNtNtCs86yVScfUyun_18timekeeper_backend8handlers4auth23ensure_password_matches
FN:806,_RNvNtNtCs86yVScfUyun_18timekeeper_backend8handlers4auth23register_active_session
FN:1120,_RNvNtNtCs86yVScfUyun_18timekeeper_backend8handlers4auth26ensure_password_not_reused
FN:938,_RNvNtNtCs86yVScfUyun_18timekeeper_backend8handlers4auth26record_session_audit_event
FN:1103,_RNvNtNtCs86yVScfUyun_18timekeeper_backend8handlers4auth27enforce_password_expiration
FN:780,_RNvNtNtCs86yVScfUyun_18timekeeper_backend8handlers4auth27persist_active_access_token
FN:1246,_RNCNvNtNtNtCs86yVScfUyun_18timekeeper_backend8handlers4auth5testss_46ensure_password_matches_rejects_wrong_password0B9_
FN:1287,_RNCNvNtNtNtCs86yVScfUyun_18timekeeper_backend8handlers4auth5testss_46ensure_password_not_reused_allows_history_zero0B9_
FN:1238,_RNCNvNtNtNtCs86yVScfUyun_18timekeeper_backend8handlers4auth5testss_48ensure_password_matches_accepts_correct_password0B9_
FN:1304,_RNCNvNtNtNtCs86yVScfUyun_18timekeeper_backend8handlers4auth5testss_50auth_session_exposes_claims_and_refresh_token_data0B9_
FN:1376,_RNCNvNtNtNtCs86yVScfUyun_18timekeeper_backend8handlers4auth5testss_50set_and_clear_auth_cookies_append_expected_headers0B9_
FN:1203,_RNvNtNtNtCs86yVScfUyun_18timekeeper_backend8handlers4auth5tests10build_user
FN:1162,_RNvNtNtNtCs86yVScfUyun_18timekeeper_backend8handlers4auth5tests11config_stub
FN:1216,_RNvNtNtNtCs86yVScfUyun_18timekeeper_backend8handlers4auth5tests17current_totp_code
FN:1255,_RNvNtNtNtCs86yVScfUyun_18timekeeper_backend8handlers4auth5testss_30enforce_mfa_accepts_valid_code
FN:1350,_RNvNtNtNtCs86yVScfUyun_18timekeeper_backend8handlers4auth5testss_30extract_user_agent_trims_value
FN:1265,_RNvNtNtNtCs86yVScfUyun_18timekeeper_backend8handlers4auth5testss_32enforce_mfa_rejects_missing_code
FN:1363,_RNvNtNtNtCs86yVScfUyun_18timekeeper_backend8handlers4auth5testss_39cookie_header_value_reads_cookie_string
FN:1323,_RNvNtNtNtCs86yVScfUyun_18timekeeper_backend8handlers4auth5testss_45sanitize_device_label_trims_and_limits_length
FN:1246,_RNvNtNtNtCs86yVScfUyun_18timekeeper_backend8handlers4auth5testss_46ensure_password_matches_rejects_wrong_password
FN:1287,_RNvNtNtNtCs86yVScfUyun_18timekeeper_backend8handlers4auth5testss_46ensure_password_not_reused_allows_history_zero
FN:1274,_RNvNtNtNtCs86yVScfUyun_18timekeeper_backend8handlers4auth5testss_47enforce_password_expiration_behaves_as_expected
FN:1238,_RNvNtNtNtCs86yVScfUyun_18timekeeper_backend8handlers4auth5testss_48ensure_password_matches_accepts_correct_password
FN:1304,_RNvNtNtNtCs86yVScfUyun_18timekeeper_backend8handlers4auth5testss_50auth_session_exposes_claims_and_refresh_token_data
FN:1376,_RNvNtNtNtCs86yVScfUyun_18timekeeper_backend8handlers4auth5testss_50set_and_clear_auth_cookies_append_expected_headers
FN:1337,_RNvNtNtNtCs86yVScfUyun_18timekeeper_backend8handlers4auth5testss_58extract_ip_prefers_forwarded_for_and_falls_back_to_real_ip
FNDA:1,_RINvNtNtCs2oPl7zguF9n_18timekeeper_backend8handlers4auth11bad_requestNtNtCshQKOepsJxml_5alloc6string6StringEB6_
FNDA:7,_RINvNtNtCs2oPl7zguF9n_18timekeeper_backend8handlers4auth11bad_requestReEB6_
FNDA:8,_RINvNtNtCs2oPl7zguF9n_18timekeeper_backend8handlers4auth12unauthorizedReEB6_
FNDA:0,_RINvNtNtCs2oPl7zguF9n_18timekeeper_backend8handlers4auth14internal_errorReEB6_
FNDA:6,_RINvNtNtCs2oPl7zguF9n_18timekeeper_backend8handlers4auth22process_login_for_userNCNCNvB2_5login0s0_0NCB1i_s1_0NCB1i_s2_0NCNCB1i_s0_00NCNCB1i_s1_00NCNCB1i_s2_00EB6_
FNDA:6,_RNCINvNtNtCs2oPl7zguF9n_18timekeeper_backend8handlers4auth22process_login_for_userNCNCNvB4_5login0s0_0NCB1k_s1_0NCB1k_s2_0NCNCB1k_s0_00NCNCB1k_s1_00NCNCB1k_s2_00E0B8_
FNDA:0,_RNCNCINvNtNtCs2oPl7zguF9n_18timekeeper_backend8handlers4auth22process_login_for_userNCNCNvB6_5login0s0_0NCB1m_s1_0NCB1m_s2_0NCNCB1m_s0_00NCNCB1m_s1_00NCNCB1m_s2_00E00Ba_
FNDA:0,_RNCNCINvNtNtCs2oPl7zguF9n_18timekeeper_backend8handlers4auth22process_login_for_userNCNCNvB6_5login0s0_0NCB1m_s1_0NCB1m_s2_0NCNCB1m_s0_00NCNCB1m_s1_00NCNCB1m_s2_00E0s0_0Ba_
FNDA:0,_RNCNCINvNtNtCs2oPl7zguF9n_18timekeeper_backend8handlers4auth22process_login_for_userNCNCNvB6_5login0s0_0NCB1m_s1_0NCB1m_s2_0NCNCB1m_s0_00NCNCB1m_s1_00NCNCB1m_s2_00E0s_0Ba_
FNDA:0,_RNCNCNCNCNvNtNtCs2oPl7zguF9n_18timekeeper_backend8handlers4auth5login0s1_000Bd_
FNDA:5,_RNCNCNCNvNtNtCs2oPl7zguF9n_18timekeeper_backend8handlers4auth5login0s0_00Bb_
FNDA:5,_RNCNCNCNvNtNtCs2oPl7zguF9n_18timekeeper_backend8handlers4auth5login0s1_00Bb_
FNDA:5,_RNCNCNCNvNtNtCs2oPl7zguF9n_18timekeeper_backend8handlers4auth5login0s2_00Bb_
FNDA:0,_RNCNCNCNvNtNtCs2oPl7zguF9n_18timekeeper_backend8handlers4auth6logout0s5_00Bb_
FNDA:0,_RNCNCNCNvNtNtCs2oPl7zguF9n_18timekeeper_backend8handlers4auth7refresh000Bb_
FNDA:0,_RNCNCNCNvNtNtCs2oPl7zguF9n_18timekeeper_backend8handlers4auth7refresh00s_0Bb_
FNDA:12,_RNCNCNvNtNtCs2oPl7zguF9n_18timekeeper_backend8handlers4auth11enforce_mfa00B9_
FNDA:0,_RNCNCNvNtNtCs2oPl7zguF9n_18timekeeper_backend8handlers4auth11mfa_disable00B9_
FNDA:0,_RNCNCNvNtNtCs2oPl7zguF9n_18timekeeper_backend8handlers4auth11mfa_disable0s0_0B9_
FNDA:0,_RNCNCNvNtNtCs2oPl7zguF9n_18timekeeper_backend8handlers4auth11mfa_disable0s1_0B9_
FNDA:0,_RNCNCNvNtNtCs2oPl7zguF9n_18timekeeper_backend8handlers4auth11mfa_disable0s2_0B9_
FNDA:0,_RNCNCNvNtNtCs2oPl7zguF9n_18timekeeper_backend8handlers4auth11mfa_disable0s_0B9_
FNDA:1,_RNCNCNvNtNtCs2oPl7zguF9n_18timekeeper_backend8handlers4auth12mfa_activate00B9_
FNDA:0,_RNCNCNvNtNtCs2oPl7zguF9n_18timekeeper_backend8handlers4auth12mfa_activate0s0_0B9_
FNDA:0,_RNCNCNvNtNtCs2oPl7zguF9n_18timekeeper_backend8handlers4auth12mfa_activate0s1_0B9_
FNDA:0,_RNCNCNvNtNtCs2oPl7zguF9n_18timekeeper_backend8handlers4auth12mfa_activate0s2_0B9_
FNDA:0,_RNCNCNvNtNtCs2oPl7zguF9n_18timekeeper_backend8handlers4auth12mfa_activate0s_0B9_
FNDA:0,_RNCNCNvNtNtCs2oPl7zguF9n_18timekeeper_backend8handlers4auth14reset_password00B9_
FNDA:1,_RNCNCNvNtNtCs2oPl7zguF9n_18timekeeper_backend8handlers4auth14reset_password0s0_0B9_
FNDA:0,_RNCNCNvNtNtCs2oPl7zguF9n_18timekeeper_backend8handlers4auth14reset_password0s1_0B9_
FNDA:0,_RNCNCNvNtNtCs2oPl7zguF9n_18timekeeper_backend8handlers4auth14reset_password0s2_0B9_
FNDA:1,_RNCNCNvNtNtCs2oPl7zguF9n_18timekeeper_backend8handlers4auth14reset_password0s3_0B9_
FNDA:0,_RNCNCNvNtNtCs2oPl7zguF9n_18timekeeper_backend8handlers4auth14reset_password0s4_0B9_
FNDA:0,_RNCNCNvNtNtCs2oPl7zguF9n_18timekeeper_backend8handlers4auth14reset_password0s5_0B9_
FNDA:0,_RNCNCNvNtNtCs2oPl7zguF9n_18timekeeper_backend8handlers4auth14reset_password0s6_0B9_
FNDA:0,_RNCNCNvNtNtCs2oPl7zguF9n_18timekeeper_backend8handlers4auth14reset_password0s7_0B9_
FNDA:0,_RNCNCNvNtNtCs2oPl7zguF9n_18timekeeper_backend8handlers4auth14reset_password0s8_0B9_
FNDA:0,_RNCNCNvNtNtCs2oPl7zguF9n_18timekeeper_backend8handlers4auth14reset_password0s9_0B9_
FNDA:0,_RNCNCNvNtNtCs2oPl7zguF9n_18timekeeper_backend8handlers4auth14reset_password0s_0B9_
FNDA:0,_RNCNCNvNtNtCs2oPl7zguF9n_18timekeeper_backend8handlers4auth14reset_password0sa_0B9_
FNDA:0,_RNCNCNvNtNtCs2oPl7zguF9n_18timekeeper_backend8handlers4auth14update_profile00B9_
FNDA:0,_RNCNCNvNtNtCs2oPl7zguF9n_18timekeeper_backend8handlers4auth14update_profile0s_0B9_
FNDA:1,_RNCNCNvNtNtCs2oPl7zguF9n_18timekeeper_backend8handlers4auth15change_password00B9_
FNDA:0,_RNCNCNvNtNtCs2oPl7zguF9n_18timekeeper_backend8handlers4auth15change_password0s0_0B9_
FNDA:0,_RNCNCNvNtNtCs2oPl7zguF9n_18timekeeper_backend8handlers4auth15change_password0s1_0B9_
FNDA:0,_RNCNCNvNtNtCs2oPl7zguF9n_18timekeeper_backend8handlers4auth15change_password0s2_0B9_
FNDA:0,_RNCNCNvNtNtCs2oPl7zguF9n_18timekeeper_backend8handlers4auth15change_password0s3_0B9_
FNDA:0,_RNCNCNvNtNtCs2oPl7zguF9n_18timekeeper_backend8handlers4auth15change_password0s4_0B9_
FNDA:1,_RNCNCNvNtNtCs2oPl7zguF9n_18timekeeper_backend8handlers4auth15change_password0s_0B9_
FNDA:0,_RNCNCNvNtNtCs2oPl7zguF9n_18timekeeper_backend8handlers4auth19create_auth_session00B9_
FNDA:0,_RNCNCNvNtNtCs2oPl7zguF9n_18timekeeper_backend8handlers4auth19create_auth_session0s_0B9_
FNDA:0,_RNCNCNvNtNtCs2oPl7zguF9n_18timekeeper_backend8handlers4auth20begin_mfa_enrollment00B9_
FNDA:0,_RNCNCNvNtNtCs2oPl7zguF9n_18timekeeper_backend8handlers4auth20begin_mfa_enrollment0s_0B9_
FNDA:0,_RNCNCNvNtNtCs2oPl7zguF9n_18timekeeper_backend8handlers4auth21enforce_session_limit00B9_
FNDA:0,_RNCNCNvNtNtCs2oPl7zguF9n_18timekeeper_backend8handlers4auth21persist_refresh_token00B9_
FNDA:0,_RNCNCNvNtNtCs2oPl7zguF9n_18timekeeper_backend8handlers4auth21revoke_active_session00B9_
FNDA:0,_RNCNCNvNtNtCs2oPl7zguF9n_18timekeeper_backend8handlers4auth21revoke_active_session0s_0B9_
FNDA:0,_RNCNCNvNtNtCs2oPl7zguF9n_18timekeeper_backend8handlers4auth22request_password_reset00B9_
FNDA:0,_RNCNCNvNtNtCs2oPl7zguF9n_18timekeeper_backend8handlers4auth22request_password_reset0s0_0B9_
FNDA:0,_RNCNCNvNtNtCs2oPl7zguF9n_18timekeeper_backend8handlers4auth22request_password_reset0s_0B9_
FNDA:13,_RNCNCNvNtNtCs2oPl7zguF9n_18timekeeper_backend8handlers4auth23ensure_password_matches00B9_
FNDA:0,_RNCNCNvNtNtCs2oPl7zguF9n_18timekeeper_backend8handlers4auth23ensure_password_matches0s0_0B9_
FNDA:0,_RNCNCNvNtNtCs2oPl7zguF9n_18timekeeper_backend8handlers4auth23ensure_password_matches0s_0B9_
FNDA:0,_RNCNCNvNtNtCs2oPl7zguF9n_18timekeeper_backend8handlers4auth23register_active_session00B9_
FNDA:0,_RNCNCNvNtNtCs2oPl7zguF9n_18timekeeper_backend8handlers4auth26ensure_password_not_reused00B9_
FNDA:0,_RNCNCNvNtNtCs2oPl7zguF9n_18timekeeper_backend8handlers4auth26ensure_password_not_reused0s0_0B9_
FNDA:0,_RNCNCNvNtNtCs2oPl7zguF9n_18timekeeper_backend8handlers4auth26ensure_password_not_reused0s1_0B9_
FNDA:2,_RNCNCNvNtNtCs2oPl7zguF9n_18timekeeper_backend8handlers4auth26ensure_password_not_reused0s_0B9_
FNDA:0,_RNCNCNvNtNtCs2oPl7zguF9n_18timekeeper_backend8handlers4auth27persist_active_access_token00B9_
FNDA:0,_RNCNCNvNtNtCs2oPl7zguF9n_18timekeeper_backend8handlers4auth27persist_active_access_token0s0_0B9_
FNDA:0,_RNCNCNvNtNtCs2oPl7zguF9n_18timekeeper_backend8handlers4auth27persist_active_access_token0s1_0B9_
FNDA:0,_RNCNCNvNtNtCs2oPl7zguF9n_18timekeeper_backend8handlers4auth27persist_active_access_token0s_0B9_
FNDA:0,_RNCNCNvNtNtCs2oPl7zguF9n_18timekeeper_backend8handlers4auth5login00B9_
FNDA:5,_RNCNCNvNtNtCs2oPl7zguF9n_18timekeeper_backend8handlers4auth5login0s0_0B9_
FNDA:5,_RNCNCNvNtNtCs2oPl7zguF9n_18timekeeper_backend8handlers4auth5login0s1_0B9_
FNDA:5,_RNCNCNvNtNtCs2oPl7zguF9n_18timekeeper_backend8handlers4auth5login0s2_0B9_
FNDA:0,_RNCNCNvNtNtCs2oPl7zguF9n_18timekeeper_backend8handlers4auth5login0s_0B9_
FNDA:1,_RNCNCNvNtNtCs2oPl7zguF9n_18timekeeper_backend8handlers4auth6logout00B9_
FNDA:0,_RNCNCNvNtNtCs2oPl7zguF9n_18timekeeper_backend8handlers4auth6logout0s0_0B9_
FNDA:0,_RNCNCNvNtNtCs2oPl7zguF9n_18timekeeper_backend8handlers4auth6logout0s1_0B9_
FNDA:0,_RNCNCNvNtNtCs2oPl7zguF9n_18timekeeper_backend8handlers4auth6logout0s2_0B9_
FNDA:1,_RNCNCNvNtNtCs2oPl7zguF9n_18timekeeper_backend8handlers4auth6logout0s3_0B9_
FNDA:1,_RNCNCNvNtNtCs2oPl7zguF9n_18timekeeper_backend8handlers4auth6logout0s4_0B9_
FNDA:0,_RNCNCNvNtNtCs2oPl7zguF9n_18timekeeper_backend8handlers4auth6logout0s5_0B9_
FNDA:0,_RNCNCNvNtNtCs2oPl7zguF9n_18timekeeper_backend8handlers4auth6logout0s6_0B9_
FNDA:0,_RNCNCNvNtNtCs2oPl7zguF9n_18timekeeper_backend8handlers4auth6logout0s7_0B9_
FNDA:0,_RNCNCNvNtNtCs2oPl7zguF9n_18timekeeper_backend8handlers4auth6logout0s8_0B9_
FNDA:0,_RNCNCNvNtNtCs2oPl7zguF9n_18timekeeper_backend8handlers4auth6logout0s9_0B9_
FNDA:0,_RNCNCNvNtNtCs2oPl7zguF9n_18timekeeper_backend8handlers4auth6logout0s_0B9_
FNDA:1,_RNCNCNvNtNtCs2oPl7zguF9n_18timekeeper_backend8handlers4auth7refresh00B9_
FNDA:1,_RNCNCNvNtNtCs2oPl7zguF9n_18timekeeper_backend8handlers4auth7refresh0s0_0B9_
FNDA:0,_RNCNCNvNtNtCs2oPl7zguF9n_18timekeeper_backend8handlers4auth7refresh0s1_0B9_
FNDA:0,_RNCNCNvNtNtCs2oPl7zguF9n_18timekeeper_backend8handlers4auth7refresh0s2_0B9_
FNDA:0,_RNCNCNvNtNtCs2oPl7zguF9n_18timekeeper_backend8handlers4auth7refresh0s3_0B9_
FNDA:0,_RNCNCNvNtNtCs2oPl7zguF9n_18timekeeper_backend8handlers4auth7refresh0s4_0B9_
FNDA:0,_RNCNCNvNtNtCs2oPl7zguF9n_18timekeeper_backend8handlers4auth7refresh0s5_0B9_
FNDA:0,_RNCNCNvNtNtCs2oPl7zguF9n_18timekeeper_backend8handlers4auth7refresh0s6_0B9_
FNDA:1,_RNCNCNvNtNtCs2oPl7zguF9n_18timekeeper_backend8handlers4auth7refresh0s7_0B9_
FNDA:1,_RNCNCNvNtNtCs2oPl7zguF9n_18timekeeper_backend8handlers4auth7refresh0s8_0B9_
FNDA:0,_RNCNCNvNtNtCs2oPl7zguF9n_18timekeeper_backend8handlers4auth7refresh0s9_0B9_
FNDA:1,_RNCNCNvNtNtCs2oPl7zguF9n_18timekeeper_backend8handlers4auth7refresh0s_0B9_
FNDA:0,_RNCNCNvNtNtCs2oPl7zguF9n_18timekeeper_backend8handlers4auth7refresh0sa_0B9_
FNDA:0,_RNCNCNvNtNtCs2oPl7zguF9n_18timekeeper_backend8handlers4auth7refresh0sb_0B9_
FNDA:0,_RNCNCNvNtNtCs2oPl7zguF9n_18timekeeper_backend8handlers4auth7refresh0sc_0B9_
FNDA:8,_RNCNvMNtNtCs2oPl7zguF9n_18timekeeper_backend8handlers4authNtB4_12AuditContext3new0B8_
FNDA:0,_RNCNvMs_NtNtCs2oPl7zguF9n_18timekeeper_backend8handlers4authNtB6_11AuthSession13access_claims0Ba_
FNDA:0,_RNCNvMs_NtNtCs2oPl7zguF9n_18timekeeper_backend8handlers4authNtB6_11AuthSession18refresh_token_data0Ba_
FNDA:0,_RNCNvMs_NtNtCs2oPl7zguF9n_18timekeeper_backend8handlers4authNtB6_11AuthSession18refresh_token_datas0_0Ba_
FNDA:0,_RNCNvMs_NtNtCs2oPl7zguF9n_18timekeeper_backend8handlers4authNtB6_11AuthSession18refresh_token_datas_0Ba_
FNDA:0,_RNCNvNtNtCs2oPl7zguF9n_18timekeeper_backend8handlers4auth10extract_ip0B7_
FNDA:0,_RNCNvNtNtCs2oPl7zguF9n_18timekeeper_backend8handlers4auth10extract_ips0_0B7_
FNDA:0,_RNCNvNtNtCs2oPl7zguF9n_18timekeeper_backend8handlers4auth10extract_ips1_0B7_
FNDA:0,_RNCNvNtNtCs2oPl7zguF9n_18timekeeper_backend8handlers4auth10extract_ips2_0B7_
FNDA:0,_RNCNvNtNtCs2oPl7zguF9n_18timekeeper_backend8handlers4auth10extract_ips3_0B7_
FNDA:0,_RNCNvNtNtCs2oPl7zguF9n_18timekeeper_backend8handlers4auth10extract_ips_0B7_
FNDA:2,_RNCNvNtNtCs2oPl7zguF9n_18timekeeper_backend8handlers4auth10mfa_status0B7_
FNDA:2,_RNCNvNtNtCs2oPl7zguF9n_18timekeeper_backend8handlers4auth11enforce_mfa0B7_
FNDA:1,_RNCNvNtNtCs2oPl7zguF9n_18timekeeper_backend8handlers4auth11enforce_mfas0_0B7_
FNDA:0,_RNCNvNtNtCs2oPl7zguF9n_18timekeeper_backend8handlers4auth11enforce_mfas1_0B7_
FNDA:0,_RNCNvNtNtCs2oPl7zguF9n_18timekeeper_backend8handlers4auth11enforce_mfas2_0B7_
FNDA:2,_RNCNvNtNtCs2oPl7zguF9n_18timekeeper_backend8handlers4auth11enforce_mfas_0B7_
FNDA:3,_RNCNvNtNtCs2oPl7zguF9n_18timekeeper_backend8handlers4auth11mfa_disable0B7_
FNDA:3,_RNCNvNtNtCs2oPl7zguF9n_18timekeeper_backend8handlers4auth12mfa_activate0B7_
FNDA:0,_RNCNvNtNtCs2oPl7zguF9n_18timekeeper_backend8handlers4auth12mfa_register0B7_
FNDA:2,_RNCNvNtNtCs2oPl7zguF9n_18timekeeper_backend8handlers4auth14reset_password0B7_
FNDA:2,_RNCNvNtNtCs2oPl7zguF9n_18timekeeper_backend8handlers4auth14update_profile0B7_
FNDA:9,_RNCNvNtNtCs2oPl7zguF9n_18timekeeper_backend8handlers4auth15change_password0B7_
FNDA:0,_RNCNvNtNtCs2oPl7zguF9n_18timekeeper_backend8handlers4auth18extract_user_agent0B7_
FNDA:0,_RNCNvNtNtCs2oPl7zguF9n_18timekeeper_backend8handlers4auth18extract_user_agents0_0B7_
FNDA:0,_RNCNvNtNtCs2oPl7zguF9n_18timekeeper_backend8handlers4auth18extract_user_agents_0B7_
FNDA:2,_RNCNvNtNtCs2oPl7zguF9n_18timekeeper_backend8handlers4auth19cookie_header_value0B7_
FNDA:1,_RNCNvNtNtCs2oPl7zguF9n_18timekeeper_backend8handlers4auth19create_auth_session0B7_
FNDA:2,_RNCNvNtNtCs2oPl7zguF9n_18timekeeper_backend8handlers4auth20begin_mfa_enrollment0B7_
FNDA:5,_RNCNvNtNtCs2oPl7zguF9n_18timekeeper_backend8handlers4auth21enforce_session_limit0B7_
FNDA:6,_RNCNvNtNtCs2oPl7zguF9n_18timekeeper_backend8handlers4auth21persist_refresh_token0B7_
FNDA:1,_RNCNvNtNtCs2oPl7zguF9n_18timekeeper_backend8handlers4auth21revoke_active_session0B7_
FNDA:1,_RNCNvNtNtCs2oPl7zguF9n_18timekeeper_backend8handlers4auth21sanitize_device_label0B7_
FNDA:1,_RNCNvNtNtCs2oPl7zguF9n_18timekeeper_backend8handlers4auth22request_password_reset0B7_
FNDA:13,_RNCNvNtNtCs2oPl7zguF9n_18timekeeper_backend8handlers4auth23ensure_password_matches0B7_
FNDA:5,_RNCNvNtNtCs2oPl7zguF9n_18timekeeper_backend8handlers4auth23register_active_session0B7_
FNDA:2,_RNCNvNtNtCs2oPl7zguF9n_18timekeeper_backend8handlers4auth26ensure_password_not_reused0B7_
FNDA:8,_RNCNvNtNtCs2oPl7zguF9n_18timekeeper_backend8handlers4auth26record_session_audit_event0B7_
FNDA:0,_RNCNvNtNtCs2oPl7zguF9n_18timekeeper_backend8handlers4auth27enforce_password_expiration0B7_
FNDA:6,_RNCNvNtNtCs2oPl7zguF9n_18timekeeper_backend8handlers4auth27persist_active_access_token0B7_
FNDA:1,_RNCNvNtNtCs2oPl7zguF9n_18timekeeper_backend8handlers4auth2me0B7_
FNDA:6,_RNCNvNtNtCs2oPl7zguF9n_18timekeeper_backend8handlers4auth5login0B7_
FNDA:2,_RNCNvNtNtCs2oPl7zguF9n_18timekeeper_backend8handlers4auth6logout0B7_
FNDA:3,_RNCNvNtNtCs2oPl7zguF9n_18timekeeper_backend8handlers4auth7refresh0B7_
FNDA:2,_RNCNvNtNtCs2oPl7zguF9n_18timekeeper_backend8handlers4auth9mfa_setup0B7_
FNDA:8,_RNvMNtNtCs2oPl7zguF9n_18timekeeper_backend8handlers4authNtB2_12AuditContext3new
FNDA:1,_RNvMs_NtNtCs2oPl7zguF9n_18timekeeper_backend8handlers4authNtB4_11AuthSession13access_claims
FNDA:1,_RNvMs_NtNtCs2oPl7zguF9n_18timekeeper_backend8handlers4authNtB4_11AuthSession18refresh_token_data
FNDA:8,_RNvNtNtCs2oPl7zguF9n_18timekeeper_backend8handlers4auth10extract_ip
FNDA:2,_RNvNtNtCs2oPl7zguF9n_18timekeeper_backend8handlers4auth10mfa_status
FNDA:9,_RNvNtNtCs2oPl7zguF9n_18timekeeper_backend8handlers4auth11enforce_mfa
FNDA:3,_RNvNtNtCs2oPl7zguF9n_18timekeeper_backend8handlers4auth11mfa_disable
FNDA:3,_RNvNtNtCs2oPl7zguF9n_18timekeeper_backend8handlers4auth12mfa_activate
FNDA:0,_RNvNtNtCs2oPl7zguF9n_18timekeeper_backend8handlers4auth12mfa_register
FNDA:2,_RNvNtNtCs2oPl7zguF9n_18timekeeper_backend8handlers4auth14reset_password
FNDA:2,_RNvNtNtCs2oPl7zguF9n_18timekeeper_backend8handlers4auth14update_profile
FNDA:9,_RNvNtNtCs2oPl7zguF9n_18timekeeper_backend8handlers4auth15change_password
FNDA:6,_RNvNtNtCs2oPl7zguF9n_18timekeeper_backend8handlers4auth16set_auth_cookies
FNDA:2,_RNvNtNtCs2oPl7zguF9n_18timekeeper_backend8handlers4auth18clear_auth_cookies
FNDA:8,_RNvNtNtCs2oPl7zguF9n_18timekeeper_backend8handlers4auth18extract_user_agent
FNDA:3,_RNvNtNtCs2oPl7zguF9n_18timekeeper_backend8handlers4auth19cookie_header_value
FNDA:1,_RNvNtNtCs2oPl7zguF9n_18timekeeper_backend8handlers4auth19create_auth_session
FNDA:2,_RNvNtNtCs2oPl7zguF9n_18timekeeper_backend8handlers4auth20begin_mfa_enrollment
FNDA:5,_RNvNtNtCs2oPl7zguF9n_18timekeeper_backend8handlers4auth21enforce_session_limit
FNDA:6,_RNvNtNtCs2oPl7zguF9n_18timekeeper_backend8handlers4auth21persist_refresh_token
FNDA:1,_RNvNtNtCs2oPl7zguF9n_18timekeeper_backend8handlers4auth21revoke_active_session
FNDA:11,_RNvNtNtCs2oPl7zguF9n_18timekeeper_backend8handlers4auth21sanitize_device_label
FNDA:1,_RNvNtNtCs2oPl7zguF9n_18timekeeper_backend8handlers4auth22request_password_reset
FNDA:13,_RNvNtNtCs2oPl7zguF9n_18timekeeper_backend8handlers4auth23ensure_password_matches
FNDA:5,_RNvNtNtCs2oPl7zguF9n_18timekeeper_backend8handlers4auth23register_active_session
FNDA:2,_RNvNtNtCs2oPl7zguF9n_18timekeeper_backend8handlers4auth26ensure_password_not_reused
FNDA:8,_RNvNtNtCs2oPl7zguF9n_18timekeeper_backend8handlers4auth26record_session_audit_event
FNDA:8,_RNvNtNtCs2oPl7zguF9n_18timekeeper_backend8handlers4auth27enforce_password_expiration
FNDA:6,_RNvNtNtCs2oPl7zguF9n_18timekeeper_backend8handlers4auth27persist_active_access_token
FNDA:1,_RNvNtNtCs2oPl7zguF9n_18timekeeper_backend8handlers4auth2me
FNDA:6,_RNvNtNtCs2oPl7zguF9n_18timekeeper_backend8handlers4auth5login
FNDA:2,_RNvNtNtCs2oPl7zguF9n_18timekeeper_backend8handlers4auth6logout
FNDA:3,_RNvNtNtCs2oPl7zguF9n_18timekeeper_backend8handlers4auth7refresh
FNDA:2,_RNvNtNtCs2oPl7zguF9n_18timekeeper_backend8handlers4auth9mfa_setup
FNDA:1,_RINvNtNtCs2oPl7zguF9n_18timekeeper_backend8handlers4auth22process_login_for_userNCNvCs11XoOfbnZWl_8auth_apis_41login_rejects_invalid_password_without_db0NCB1i_s_0NCB1i_s0_0NCNCB1i_00NCNCB1i_s_00NCNCB1i_s0_00EB1k_
FNDA:1,_RINvNtNtCs2oPl7zguF9n_18timekeeper_backend8handlers4auth22process_login_for_userNCNvCs11XoOfbnZWl_8auth_apis_44login_requires_totp_code_when_mfa_is_enabled0NCB1i_s_0NCB1i_s0_0NCNCB1i_00NCNCB1i_s_00NCNCB1i_s0_00EB1k_
FNDA:1,_RINvNtNtCs2oPl7zguF9n_18timekeeper_backend8handlers4auth22process_login_for_userNCNvCs11XoOfbnZWl_8auth_apis_47login_succeeds_when_password_matches_without_db0NCB1i_s_0NCB1i_s0_0NCNCB1i_00NCNCB1i_s_00NCNCB1i_s0_00EB1k_
FNDA:1,_RINvNtNtCs2oPl7zguF9n_18timekeeper_backend8handlers4auth22process_login_for_userNCNvCs11XoOfbnZWl_8auth_apis_49login_accepts_valid_totp_code_when_mfa_is_enabled0NCB1i_s_0NCB1i_s0_0NCNCB1i_00NCNCB1i_s_00NCNCB1i_s0_00EB1k_
FNDA:1,_RINvNtNtCs2oPl7zguF9n_18timekeeper_backend8handlers4auth22process_login_for_userNCNvCs11XoOfbnZWl_8auth_apis_51login_rejects_invalid_totp_code_when_mfa_is_enabled0NCB1i_s_0NCB1i_s0_0NCNCB1i_00NCNCB1i_s_00NCNCB1i_s0_00EB1k_
FNDA:1,_RNCINvNtNtCs2oPl7zguF9n_18timekeeper_backend8handlers4auth22process_login_for_userNCNvCs11XoOfbnZWl_8auth_apis_41login_rejects_invalid_password_without_db0NCB1k_s_0NCB1k_s0_0NCNCB1k_00NCNCB1k_s_00NCNCB1k_s0_00E0B1m_
FNDA:1,_RNCINvNtNtCs2oPl7zguF9n_18timekeeper_backend8handlers4auth22process_login_for_userNCNvCs11XoOfbnZWl_8auth_apis_44login_requires_totp_code_when_mfa_is_enabled0NCB1k_s_0NCB1k_s0_0NCNCB1k_00NCNCB1k_s_00NCNCB1k_s0_00E0B1m_
FNDA:1,_RNCINvNtNtCs2oPl7zguF9n_18timekeeper_backend8handlers4auth22process_login_for_userNCNvCs11XoOfbnZWl_8auth_apis_47login_succeeds_when_password_matches_without_db0NCB1k_s_0NCB1k_s0_0NCNCB1k_00NCNCB1k_s_00NCNCB1k_s0_00E0B1m_
FNDA:1,_RNCINvNtNtCs2oPl7zguF9n_18timekeeper_backend8handlers4auth22process_login_for_userNCNvCs11XoOfbnZWl_8auth_apis_49login_accepts_valid_totp_code_when_mfa_is_enabled0NCB1k_s_0NCB1k_s0_0NCNCB1k_00NCNCB1k_s_00NCNCB1k_s0_00E0B1m_
FNDA:1,_RNCINvNtNtCs2oPl7zguF9n_18timekeeper_backend8handlers4auth22process_login_for_userNCNvCs11XoOfbnZWl_8auth_apis_51login_rejects_invalid_totp_code_when_mfa_is_enabled0NCB1k_s_0NCB1k_s0_0NCNCB1k_00NCNCB1k_s_00NCNCB1k_s0_00E0B1m_
FNDA:0,_RNCNCINvNtNtCs2oPl7zguF9n_18timekeeper_backend8handlers4auth22process_login_for_userNCNvCs11XoOfbnZWl_8auth_apis_41login_rejects_invalid_password_without_db0NCB1m_s_0NCB1m_s0_0NCNCB1m_00NCNCB1m_s_00NCNCB1m_s0_00E00B1o_
FNDA:0,_RNCNCINvNtNtCs2oPl7zguF9n_18timekeeper_backend8handlers4auth22process_login_for_userNCNvCs11XoOfbnZWl_8auth_apis_41login_rejects_invalid_password_without_db0NCB1m_s_0NCB1m_s0_0NCNCB1m_00NCNCB1m_s_00NCNCB1m_s0_00E0s0_0B1o_
FNDA:0,_RNCNCINvNtNtCs2oPl7zguF9n_18timekeeper_backend8handlers4auth22process_login_for_userNCNvCs11XoOfbnZWl_8auth_apis_41login_rejects_invalid_password_without_db0NCB1m_s_0NCB1m_s0_0NCNCB1m_00NCNCB1m_s_00NCNCB1m_s0_00E0s_0B1o_
FNDA:0,_RNCNCINvNtNtCs2oPl7zguF9n_18timekeeper_backend8handlers4auth22process_login_for_userNCNvCs11XoOfbnZWl_8auth_apis_44login_requires_totp_code_when_mfa_is_enabled0NCB1m_s_0NCB1m_s0_0NCNCB1m_00NCNCB1m_s_00NCNCB1m_s0_00E00B1o_
FNDA:0,_RNCNCINvNtNtCs2oPl7zguF9n_18timekeeper_backend8handlers4auth22process_login_for_userNCNvCs11XoOfbnZWl_8auth_apis_44login_requires_totp_code_when_mfa_is_enabled0NCB1m_s_0NCB1m_s0_0NCNCB1m_00NCNCB1m_s_00NCNCB1m_s0_00E0s0_0B1o_
FNDA:0,_RNCNCINvNtNtCs2oPl7zguF9n_18timekeeper_backend8handlers4auth22process_login_for_userNCNvCs11XoOfbnZWl_8auth_apis_44login_requires_totp_code_when_mfa_is_enabled0NCB1m_s_0NCB1m_s0_0NCNCB1m_00NCNCB1m_s_00NCNCB1m_s0_00E0s_0B1o_
FNDA:0,_RNCNCINvNtNtCs2oPl7zguF9n_18timekeeper_backend8handlers4auth22process_login_for_userNCNvCs11XoOfbnZWl_8auth_apis_47login_succeeds_when_password_matches_without_db0NCB1m_s_0NCB1m_s0_0NCNCB1m_00NCNCB1m_s_00NCNCB1m_s0_00E00B1o_
FNDA:1,_RNCNCINvNtNtCs2oPl7zguF9n_18timekeeper_backend8handlers4auth22process_login_for_userNCNvCs11XoOfbnZWl_8auth_apis_47login_succeeds_when_password_matches_without_db0NCB1m_s_0NCB1m_s0_0NCNCB1m_00NCNCB1m_s_00NCNCB1m_s0_00E0s0_0B1o_
FNDA:0,_RNCNCINvNtNtCs2oPl7zguF9n_18timekeeper_backend8handlers4auth22process_login_for_userNCNvCs11XoOfbnZWl_8auth_apis_47login_succeeds_when_password_matches_without_db0NCB1m_s_0NCB1m_s0_0NCNCB1m_00NCNCB1m_s_00NCNCB1m_s0_00E0s_0B1o_
FNDA:0,_RNCNCINvNtNtCs2oPl7zguF9n_18timekeeper_backend8handlers4auth22process_login_for_userNCNvCs11XoOfbnZWl_8auth_apis_49login_accepts_valid_totp_code_when_mfa_is_enabled0NCB1m_s_0NCB1m_s0_0NCNCB1m_00NCNCB1m_s_00NCNCB1m_s0_00E00B1o_
FNDA:1,_RNCNCINvNtNtCs2oPl7zguF9n_18timekeeper_backend8handlers4auth22process_login_for_userNCNvCs11XoOfbnZWl_8auth_apis_49login_accepts_valid_totp_code_when_mfa_is_enabled0NCB1m_s_0NCB1m_s0_0NCNCB1m_00NCNCB1m_s_00NCNCB1m_s0_00E0s0_0B1o_
FNDA:0,_RNCNCINvNtNtCs2oPl7zguF9n_18timekeeper_backend8handlers4auth22process_login_for_userNCNvCs11XoOfbnZWl_8auth_apis_49login_accepts_valid_totp_code_when_mfa_is_enabled0NCB1m_s_0NCB1m_s0_0NCNCB1m_00NCNCB1m_s_00NCNCB1m_s0_00E0s_0B1o_
FNDA:0,_RNCNCINvNtNtCs2oPl7zguF9n_18timekeeper_backend8handlers4auth22process_login_for_userNCNvCs11XoOfbnZWl_8auth_apis_51login_rejects_invalid_totp_code_when_mfa_is_enabled0NCB1m_s_0NCB1m_s0_0NCNCB1m_00NCNCB1m_s_00NCNCB1m_s0_00E00B1o_
FNDA:0,_RNCNCINvNtNtCs2oPl7zguF9n_18timekeeper_backend8handlers4auth22process_login_for_userNCNvCs11XoOfbnZWl_8auth_apis_51login_rejects_invalid_totp_code_when_mfa_is_enabled0NCB1m_s_0NCB1m_s0_0NCNCB1m_00NCNCB1m_s_00NCNCB1m_s0_00E0s0_0B1o_
FNDA:0,_RNCNCINvNtNtCs2oPl7zguF9n_18timekeeper_backend8handlers4auth22process_login_for_userNCNvCs11XoOfbnZWl_8auth_apis_51login_rejects_invalid_totp_code_when_mfa_is_enabled0NCB1m_s_0NCB1m_s0_0NCNCB1m_00NCNCB1m_s_00NCNCB1m_s0_00E0s_0B1o_
FNDA:0,_RNvNtNtCsjEFxG0ag9NF_18timekeeper_backend8handlers4auth10mfa_status
FNDA:0,_RNvNtNtCsjEFxG0ag9NF_18timekeeper_backend8handlers4auth11mfa_disable
FNDA:0,_RNvNtNtCsjEFxG0ag9NF_18timekeeper_backend8handlers4auth12mfa_activate
FNDA:0,_RNvNtNtCsjEFxG0ag9NF_18timekeeper_backend8handlers4auth12mfa_register
FNDA:0,_RNvNtNtCsjEFxG0ag9NF_18timekeeper_backend8handlers4auth14update_profile
FNDA:0,_RNvNtNtCsjEFxG0ag9NF_18timekeeper_backend8handlers4auth15change_password
FNDA:0,_RNvNtNtCsjEFxG0ag9NF_18timekeeper_backend8handlers4auth2me
FNDA:0,_RNvNtNtCsjEFxG0ag9NF_18timekeeper_backend8handlers4auth6logout
FNDA:0,_RNvNtNtCsjEFxG0ag9NF_18timekeeper_backend8handlers4auth9mfa_setup
FNDA:0,_RINvNtNtCsjEFxG0ag9NF_18timekeeper_backend8handlers4auth11bad_requestNtNtCshQKOepsJxml_5alloc6string6StringEB6_
FNDA:0,_RINvNtNtCsjEFxG0ag9NF_18timekeeper_backend8handlers4auth11bad_requestReEB6_
FNDA:3,_RINvNtNtCsjEFxG0ag9NF_18timekeeper_backend8handlers4auth12unauthorizedReEB6_
FNDA:0,_RINvNtNtCsjEFxG0ag9NF_18timekeeper_backend8handlers4auth14internal_errorReEB6_
FNDA:0,_RINvNtNtCsjEFxG0ag9NF_18timekeeper_backend8handlers4auth22process_login_for_userNCNCNvB2_5login0s0_0NCB1i_s1_0NCB1i_s2_0NCNCB1i_s0_00NCNCB1i_s1_00NCNCB1i_s2_00EB6_
FNDA:0,_RNCINvNtNtCsjEFxG0ag9NF_18timekeeper_backend8handlers4auth22process_login_for_userNCNCNvB4_5login0s0_0NCB1k_s1_0NCB1k_s2_0NCNCB1k_s0_00NCNCB1k_s1_00NCNCB1k_s2_00E0B8_
FNDA:0,_RNCNCINvNtNtCsjEFxG0ag9NF_18timekeeper_backend8handlers4auth22process_login_for_userNCNCNvB6_5login0s0_0NCB1m_s1_0NCB1m_s2_0NCNCB1m_s0_00NCNCB1m_s1_00NCNCB1m_s2_00E00Ba_
FNDA:0,_RNCNCINvNtNtCsjEFxG0ag9NF_18timekeeper_backend8handlers4auth22process_login_for_userNCNCNvB6_5login0s0_0NCB1m_s1_0NCB1m_s2_0NCNCB1m_s0_00NCNCB1m_s1_00NCNCB1m_s2_00E0s0_0Ba_
FNDA:0,_RNCNCINvNtNtCsjEFxG0ag9NF_18timekeeper_backend8handlers4auth22process_login_for_userNCNCNvB6_5login0s0_0NCB1m_s1_0NCB1m_s2_0NCNCB1m_s0_00NCNCB1m_s1_00NCNCB1m_s2_00E0s_0Ba_
FNDA:0,_RNCNCNCNCNvNtNtCsjEFxG0ag9NF_18timekeeper_backend8handlers4auth5login0s1_000Bd_
FNDA:0,_RNCNCNCNvNtNtCsjEFxG0ag9NF_18timekeeper_backend8handlers4auth5login0s0_00Bb_
FNDA:0,_RNCNCNCNvNtNtCsjEFxG0ag9NF_18timekeeper_backend8handlers4auth5login0s1_00Bb_
FNDA:0,_RNCNCNCNvNtNtCsjEFxG0ag9NF_18timekeeper_backend8handlers4auth5login0s2_00Bb_
FNDA:0,_RNCNCNCNvNtNtCsjEFxG0ag9NF_18timekeeper_backend8handlers4auth6logout0s5_00Bb_
FNDA:0,_RNCNCNCNvNtNtCsjEFxG0ag9NF_18timekeeper_backend8handlers4auth7refresh000Bb_
FNDA:0,_RNCNCNCNvNtNtCsjEFxG0ag9NF_18timekeeper_backend8handlers4auth7refresh00s_0Bb_
FNDA:6,_RNCNCNvNtNtCsjEFxG0ag9NF_18timekeeper_backend8handlers4auth11enforce_mfa00B9_
FNDA:0,_RNCNCNvNtNtCsjEFxG0ag9NF_18timekeeper_backend8handlers4auth11mfa_disable00B9_
FNDA:0,_RNCNCNvNtNtCsjEFxG0ag9NF_18timekeeper_backend8handlers4auth11mfa_disable0s0_0B9_
FNDA:0,_RNCNCNvNtNtCsjEFxG0ag9NF_18timekeeper_backend8handlers4auth11mfa_disable0s1_0B9_
FNDA:0,_RNCNCNvNtNtCsjEFxG0ag9NF_18timekeeper_backend8handlers4auth11mfa_disable0s2_0B9_
FNDA:0,_RNCNCNvNtNtCsjEFxG0ag9NF_18timekeeper_backend8handlers4auth11mfa_disable0s_0B9_
FNDA:0,_RNCNCNvNtNtCsjEFxG0ag9NF_18timekeeper_backend8handlers4auth12mfa_activate00B9_
FNDA:0,_RNCNCNvNtNtCsjEFxG0ag9NF_18timekeeper_backend8handlers4auth12mfa_activate0s0_0B9_
FNDA:0,_RNCNCNvNtNtCsjEFxG0ag9NF_18timekeeper_backend8handlers4auth12mfa_activate0s1_0B9_
FNDA:0,_RNCNCNvNtNtCsjEFxG0ag9NF_18timekeeper_backend8handlers4auth12mfa_activate0s2_0B9_
FNDA:0,_RNCNCNvNtNtCsjEFxG0ag9NF_18timekeeper_backend8handlers4auth12mfa_activate0s_0B9_
FNDA:0,_RNCNCNvNtNtCsjEFxG0ag9NF_18timekeeper_backend8handlers4auth14reset_password00B9_
FNDA:0,_RNCNCNvNtNtCsjEFxG0ag9NF_18timekeeper_backend8handlers4auth14reset_password0s0_0B9_
FNDA:0,_RNCNCNvNtNtCsjEFxG0ag9NF_18timekeeper_backend8handlers4auth14reset_password0s1_0B9_
FNDA:0,_RNCNCNvNtNtCsjEFxG0ag9NF_18timekeeper_backend8handlers4auth14reset_password0s2_0B9_
FNDA:0,_RNCNCNvNtNtCsjEFxG0ag9NF_18timekeeper_backend8handlers4auth14reset_password0s3_0B9_
FNDA:0,_RNCNCNvNtNtCsjEFxG0ag9NF_18timekeeper_backend8handlers4auth14reset_password0s4_0B9_
FNDA:0,_RNCNCNvNtNtCsjEFxG0ag9NF_18timekeeper_backend8handlers4auth14reset_password0s5_0B9_
FNDA:0,_RNCNCNvNtNtCsjEFxG0ag9NF_18timekeeper_backend8handlers4auth14reset_password0s6_0B9_
FNDA:0,_RNCNCNvNtNtCsjEFxG0ag9NF_18timekeeper_backend8handlers4auth14reset_password0s7_0B9_
FNDA:0,_RNCNCNvNtNtCsjEFxG0ag9NF_18timekeeper_backend8handlers4auth14reset_password0s8_0B9_
FNDA:0,_RNCNCNvNtNtCsjEFxG0ag9NF_18timekeeper_backend8handlers4auth14reset_password0s9_0B9_
FNDA:0,_RNCNCNvNtNtCsjEFxG0ag9NF_18timekeeper_backend8handlers4auth14reset_password0s_0B9_
FNDA:0,_RNCNCNvNtNtCsjEFxG0ag9NF_18timekeeper_backend8handlers4auth14reset_password0sa_0B9_
FNDA:0,_RNCNCNvNtNtCsjEFxG0ag9NF_18timekeeper_backend8handlers4auth14update_profile00B9_
FNDA:0,_RNCNCNvNtNtCsjEFxG0ag9NF_18timekeeper_backend8handlers4auth14update_profile0s_0B9_
FNDA:0,_RNCNCNvNtNtCsjEFxG0ag9NF_18timekeeper_backend8handlers4auth15change_password00B9_
FNDA:0,_RNCNCNvNtNtCsjEFxG0ag9NF_18timekeeper_backend8handlers4auth15change_password0s0_0B9_
FNDA:0,_RNCNCNvNtNtCsjEFxG0ag9NF_18timekeeper_backend8handlers4auth15change_password0s1_0B9_
FNDA:0,_RNCNCNvNtNtCsjEFxG0ag9NF_18timekeeper_backend8handlers4auth15change_password0s2_0B9_
FNDA:0,_RNCNCNvNtNtCsjEFxG0ag9NF_18timekeeper_backend8handlers4auth15change_password0s3_0B9_
FNDA:0,_RNCNCNvNtNtCsjEFxG0ag9NF_18timekeeper_backend8handlers4auth15change_password0s4_0B9_
FNDA:0,_RNCNCNvNtNtCsjEFxG0ag9NF_18timekeeper_backend8handlers4auth15change_password0s_0B9_
FNDA:0,_RNCNCNvNtNtCsjEFxG0ag9NF_18timekeeper_backend8handlers4auth19create_auth_session00B9_
FNDA:0,_RNCNCNvNtNtCsjEFxG0ag9NF_18timekeeper_backend8handlers4auth19create_auth_session0s_0B9_
FNDA:0,_RNCNCNvNtNtCsjEFxG0ag9NF_18timekeeper_backend8handlers4auth20begin_mfa_enrollment00B9_
FNDA:0,_RNCNCNvNtNtCsjEFxG0ag9NF_18timekeeper_backend8handlers4auth20begin_mfa_enrollment0s_0B9_
FNDA:0,_RNCNCNvNtNtCsjEFxG0ag9NF_18timekeeper_backend8handlers4auth21enforce_session_limit00B9_
FNDA:0,_RNCNCNvNtNtCsjEFxG0ag9NF_18timekeeper_backend8handlers4auth21persist_refresh_token00B9_
FNDA:0,_RNCNCNvNtNtCsjEFxG0ag9NF_18timekeeper_backend8handlers4auth21revoke_active_session00B9_
FNDA:0,_RNCNCNvNtNtCsjEFxG0ag9NF_18timekeeper_backend8handlers4auth21revoke_active_session0s_0B9_
FNDA:0,_RNCNCNvNtNtCsjEFxG0ag9NF_18timekeeper_backend8handlers4auth22request_password_reset00B9_
FNDA:0,_RNCNCNvNtNtCsjEFxG0ag9NF_18timekeeper_backend8handlers4auth22request_password_reset0s0_0B9_
FNDA:0,_RNCNCNvNtNtCsjEFxG0ag9NF_18timekeeper_backend8handlers4auth22request_password_reset0s_0B9_
FNDA:2,_RNCNCNvNtNtCsjEFxG0ag9NF_18timekeeper_backend8handlers4auth23ensure_password_matches00B9_
FNDA:0,_RNCNCNvNtNtCsjEFxG0ag9NF_18timekeeper_backend8handlers4auth23ensure_password_matches0s0_0B9_
FNDA:0,_RNCNCNvNtNtCsjEFxG0ag9NF_18timekeeper_backend8handlers4auth23ensure_password_matches0s_0B9_
FNDA:0,_RNCNCNvNtNtCsjEFxG0ag9NF_18timekeeper_backend8handlers4auth23register_active_session00B9_
FNDA:0,_RNCNCNvNtNtCsjEFxG0ag9NF_18timekeeper_backend8handlers4auth26ensure_password_not_reused00B9_
FNDA:0,_RNCNCNvNtNtCsjEFxG0ag9NF_18timekeeper_backend8handlers4auth26ensure_password_not_reused0s0_0B9_
FNDA:0,_RNCNCNvNtNtCsjEFxG0ag9NF_18timekeeper_backend8handlers4auth26ensure_password_not_reused0s1_0B9_
FNDA:0,_RNCNCNvNtNtCsjEFxG0ag9NF_18timekeeper_backend8handlers4auth26ensure_password_not_reused0s_0B9_
FNDA:0,_RNCNCNvNtNtCsjEFxG0ag9NF_18timekeeper_backend8handlers4auth27persist_active_access_token00B9_
FNDA:0,_RNCNCNvNtNtCsjEFxG0ag9NF_18timekeeper_backend8handlers4auth27persist_active_access_token0s0_0B9_
FNDA:0,_RNCNCNvNtNtCsjEFxG0ag9NF_18timekeeper_backend8handlers4auth27persist_active_access_token0s1_0B9_
FNDA:0,_RNCNCNvNtNtCsjEFxG0ag9NF_18timekeeper_backend8handlers4auth27persist_active_access_token0s_0B9_
FNDA:0,_RNCNCNvNtNtCsjEFxG0ag9NF_18timekeeper_backend8handlers4auth5login00B9_
FNDA:0,_RNCNCNvNtNtCsjEFxG0ag9NF_18timekeeper_backend8handlers4auth5login0s0_0B9_
FNDA:0,_RNCNCNvNtNtCsjEFxG0ag9NF_18timekeeper_backend8handlers4auth5login0s1_0B9_
FNDA:0,_RNCNCNvNtNtCsjEFxG0ag9NF_18timekeeper_backend8handlers4auth5login0s2_0B9_
FNDA:0,_RNCNCNvNtNtCsjEFxG0ag9NF_18timekeeper_backend8handlers4auth5login0s_0B9_
FNDA:0,_RNCNCNvNtNtCsjEFxG0ag9NF_18timekeeper_backend8handlers4auth6logout00B9_
FNDA:0,_RNCNCNvNtNtCsjEFxG0ag9NF_18timekeeper_backend8handlers4auth6logout0s0_0B9_
FNDA:0,_RNCNCNvNtNtCsjEFxG0ag9NF_18timekeeper_backend8handlers4auth6logout0s1_0B9_
FNDA:0,_RNCNCNvNtNtCsjEFxG0ag9NF_18timekeeper_backend8handlers4auth6logout0s2_0B9_
FNDA:0,_RNCNCNvNtNtCsjEFxG0ag9NF_18timekeeper_backend8handlers4auth6logout0s3_0B9_
FNDA:0,_RNCNCNvNtNtCsjEFxG0ag9NF_18timekeeper_backend8handlers4auth6logout0s4_0B9_
FNDA:0,_RNCNCNvNtNtCsjEFxG0ag9NF_18timekeeper_backend8handlers4auth6logout0s5_0B9_
FNDA:0,_RNCNCNvNtNtCsjEFxG0ag9NF_18timekeeper_backend8handlers4auth6logout0s6_0B9_
FNDA:0,_RNCNCNvNtNtCsjEFxG0ag9NF_18timekeeper_backend8handlers4auth6logout0s7_0B9_
FNDA:0,_RNCNCNvNtNtCsjEFxG0ag9NF_18timekeeper_backend8handlers4auth6logout0s8_0B9_
FNDA:0,_RNCNCNvNtNtCsjEFxG0ag9NF_18timekeeper_backend8handlers4auth6logout0s9_0B9_
FNDA:0,_RNCNCNvNtNtCsjEFxG0ag9NF_18timekeeper_backend8handlers4auth6logout0s_0B9_
FNDA:0,_RNCNCNvNtNtCsjEFxG0ag9NF_18timekeeper_backend8handlers4auth7refresh00B9_
FNDA:0,_RNCNCNvNtNtCsjEFxG0ag9NF_18timekeeper_backend8handlers4auth7refresh0s0_0B9_
FNDA:0,_RNCNCNvNtNtCsjEFxG0ag9NF_18timekeeper_backend8handlers4auth7refresh0s1_0B9_
FNDA:0,_RNCNCNvNtNtCsjEFxG0ag9NF_18timekeeper_backend8handlers4auth7refresh0s2_0B9_
FNDA:0,_RNCNCNvNtNtCsjEFxG0ag9NF_18timekeeper_backend8handlers4auth7refresh0s3_0B9_
FNDA:0,_RNCNCNvNtNtCsjEFxG0ag9NF_18timekeeper_backend8handlers4auth7refresh0s4_0B9_
FNDA:0,_RNCNCNvNtNtCsjEFxG0ag9NF_18timekeeper_backend8handlers4auth7refresh0s5_0B9_
FNDA:0,_RNCNCNvNtNtCsjEFxG0ag9NF_18timekeeper_backend8handlers4auth7refresh0s6_0B9_
FNDA:0,_RNCNCNvNtNtCsjEFxG0ag9NF_18timekeeper_backend8handlers4auth7refresh0s7_0B9_
FNDA:0,_RNCNCNvNtNtCsjEFxG0ag9NF_18timekeeper_backend8handlers4auth7refresh0s8_0B9_
FNDA:0,_RNCNCNvNtNtCsjEFxG0ag9NF_18timekeeper_backend8handlers4auth7refresh0s9_0B9_
FNDA:0,_RNCNCNvNtNtCsjEFxG0ag9NF_18timekeeper_backend8handlers4auth7refresh0s_0B9_
FNDA:0,_RNCNCNvNtNtCsjEFxG0ag9NF_18timekeeper_backend8handlers4auth7refresh0sa_0B9_
FNDA:0,_RNCNCNvNtNtCsjEFxG0ag9NF_18timekeeper_backend8handlers4auth7refresh0sb_0B9_
FNDA:0,_RNCNCNvNtNtCsjEFxG0ag9NF_18timekeeper_backend8handlers4auth7refresh0sc_0B9_
FNDA:0,_RNCNvMNtNtCsjEFxG0ag9NF_18timekeeper_backend8handlers4authNtB4_12AuditContext3new0B8_
FNDA:0,_RNCNvMs_NtNtCsjEFxG0ag9NF_18timekeeper_backend8handlers4authNtB6_11AuthSession13access_claims0Ba_
FNDA:0,_RNCNvMs_NtNtCsjEFxG0ag9NF_18timekeeper_backend8handlers4authNtB6_11AuthSession18refresh_token_data0Ba_
FNDA:0,_RNCNvMs_NtNtCsjEFxG0ag9NF_18timekeeper_backend8handlers4authNtB6_11AuthSession18refresh_token_datas0_0Ba_
FNDA:0,_RNCNvMs_NtNtCsjEFxG0ag9NF_18timekeeper_backend8handlers4authNtB6_11AuthSession18refresh_token_datas_0Ba_
FNDA:1,_RNCNvNtNtCsjEFxG0ag9NF_18timekeeper_backend8handlers4auth10extract_ip0B7_
FNDA:1,_RNCNvNtNtCsjEFxG0ag9NF_18timekeeper_backend8handlers4auth10extract_ips0_0B7_
FNDA:1,_RNCNvNtNtCsjEFxG0ag9NF_18timekeeper_backend8handlers4auth10extract_ips1_0B7_
FNDA:1,_RNCNvNtNtCsjEFxG0ag9NF_18timekeeper_backend8handlers4auth10extract_ips2_0B7_
FNDA:1,_RNCNvNtNtCsjEFxG0ag9NF_18timekeeper_backend8handlers4auth10extract_ips3_0B7_
FNDA:1,_RNCNvNtNtCsjEFxG0ag9NF_18timekeeper_backend8handlers4auth10extract_ips_0B7_
FNDA:0,_RNCNvNtNtCsjEFxG0ag9NF_18timekeeper_backend8handlers4auth10mfa_status0B7_
FNDA:1,_RNCNvNtNtCsjEFxG0ag9NF_18timekeeper_backend8handlers4auth11enforce_mfa0B7_
FNDA:1,_RNCNvNtNtCsjEFxG0ag9NF_18timekeeper_backend8handlers4auth11enforce_mfas0_0B7_
FNDA:0,_RNCNvNtNtCsjEFxG0ag9NF_18timekeeper_backend8handlers4auth11enforce_mfas1_0B7_
FNDA:0,_RNCNvNtNtCsjEFxG0ag9NF_18timekeeper_backend8handlers4auth11enforce_mfas2_0B7_
FNDA:1,_RNCNvNtNtCsjEFxG0ag9NF_18timekeeper_backend8handlers4auth11enforce_mfas_0B7_
FNDA:0,_RNCNvNtNtCsjEFxG0ag9NF_18timekeeper_backend8handlers4auth11mfa_disable0B7_
FNDA:0,_RNCNvNtNtCsjEFxG0ag9NF_18timekeeper_backend8handlers4auth12mfa_activate0B7_
FNDA:0,_RNCNvNtNtCsjEFxG0ag9NF_18timekeeper_backend8handlers4auth12mfa_register0B7_
FNDA:0,_RNCNvNtNtCsjEFxG0ag9NF_18timekeeper_backend8handlers4auth14reset_password0B7_
FNDA:0,_RNCNvNtNtCsjEFxG0ag9NF_18timekeeper_backend8handlers4auth14update_profile0B7_
FNDA:0,_RNCNvNtNtCsjEFxG0ag9NF_18timekeeper_backend8handlers4auth15change_password0B7_
FNDA:1,_RNCNvNtNtCsjEFxG0ag9NF_18timekeeper_backend8handlers4auth18extract_user_agent0B7_
FNDA:1,_RNCNvNtNtCsjEFxG0ag9NF_18timekeeper_backend8handlers4auth18extract_user_agents0_0B7_
FNDA:1,_RNCNvNtNtCsjEFxG0ag9NF_18timekeeper_backend8handlers4auth18extract_user_agents_0B7_
FNDA:1,_RNCNvNtNtCsjEFxG0ag9NF_18timekeeper_backend8handlers4auth19cookie_header_value0B7_
FNDA:2,_RNCNvNtNtCsjEFxG0ag9NF_18timekeeper_backend8handlers4auth19create_auth_session0B7_
FNDA:0,_RNCNvNtNtCsjEFxG0ag9NF_18timekeeper_backend8handlers4auth20begin_mfa_enrollment0B7_
FNDA:0,_RNCNvNtNtCsjEFxG0ag9NF_18timekeeper_backend8handlers4auth21enforce_session_limit0B7_
FNDA:0,_RNCNvNtNtCsjEFxG0ag9NF_18timekeeper_backend8handlers4auth21persist_refresh_token0B7_
FNDA:0,_RNCNvNtNtCsjEFxG0ag9NF_18timekeeper_backend8handlers4auth21revoke_active_session0B7_
FNDA:3,_RNCNvNtNtCsjEFxG0ag9NF_18timekeeper_backend8handlers4auth21sanitize_device_label0B7_
FNDA:0,_RNCNvNtNtCsjEFxG0ag9NF_18timekeeper_backend8handlers4auth22request_password_reset0B7_
FNDA:2,_RNCNvNtNtCsjEFxG0ag9NF_18timekeeper_backend8handlers4auth23ensure_password_matches0B7_
FNDA:0,_RNCNvNtNtCsjEFxG0ag9NF_18timekeeper_backend8handlers4auth23register_active_session0B7_
FNDA:1,_RNCNvNtNtCsjEFxG0ag9NF_18timekeeper_backend8handlers4auth26ensure_password_not_reused0B7_
FNDA:0,_RNCNvNtNtCsjEFxG0ag9NF_18timekeeper_backend8handlers4auth26record_session_audit_event0B7_
FNDA:0,_RNCNvNtNtCsjEFxG0ag9NF_18timekeeper_backend8handlers4auth27enforce_password_expiration0B7_
FNDA:0,_RNCNvNtNtCsjEFxG0ag9NF_18timekeeper_backend8handlers4auth27persist_active_access_token0B7_
FNDA:0,_RNCNvNtNtCsjEFxG0ag9NF_18timekeeper_backend8handlers4auth2me0B7_
FNDA:0,_RNCNvNtNtCsjEFxG0ag9NF_18timekeeper_backend8handlers4auth5login0B7_
FNDA:0,_RNCNvNtNtCsjEFxG0ag9NF_18timekeeper_backend8handlers4auth6logout0B7_
FNDA:0,_RNCNvNtNtCsjEFxG0ag9NF_18timekeeper_backend8handlers4auth7refresh0B7_
FNDA:0,_RNCNvNtNtCsjEFxG0ag9NF_18timekeeper_backend8handlers4auth9mfa_setup0B7_
FNDA:1,_RNCNvNtNtNtCsjEFxG0ag9NF_18timekeeper_backend8handlers4auth5testss_46ensure_password_matches_rejects_wrong_password0B9_
FNDA:1,_RNCNvNtNtNtCsjEFxG0ag9NF_18timekeeper_backend8handlers4auth5testss_46ensure_password_not_reused_allows_history_zero0B9_
FNDA:1,_RNCNvNtNtNtCsjEFxG0ag9NF_18timekeeper_backend8handlers4auth5testss_48ensure_password_matches_accepts_correct_password0B9_
FNDA:1,_RNCNvNtNtNtCsjEFxG0ag9NF_18timekeeper_backend8handlers4auth5testss_50auth_session_exposes_claims_and_refresh_token_data0B9_
FNDA:1,_RNCNvNtNtNtCsjEFxG0ag9NF_18timekeeper_backend8handlers4auth5testss_50set_and_clear_auth_cookies_append_expected_headers0B9_
FNDA:7,_RNvNtNtNtCsjEFxG0ag9NF_18timekeeper_backend8handlers4auth5tests10build_user
FNDA:3,_RNvNtNtNtCsjEFxG0ag9NF_18timekeeper_backend8handlers4auth5tests11config_stub
FNDA:1,_RNvNtNtNtCsjEFxG0ag9NF_18timekeeper_backend8handlers4auth5tests17current_totp_code
FNDA:1,_RNvNtNtNtCsjEFxG0ag9NF_18timekeeper_backend8handlers4auth5testss_30enforce_mfa_accepts_valid_code
FNDA:1,_RNvNtNtNtCsjEFxG0ag9NF_18timekeeper_backend8handlers4auth5testss_30extract_user_agent_trims_value
FNDA:1,_RNvNtNtNtCsjEFxG0ag9NF_18timekeeper_backend8handlers4auth5testss_32enforce_mfa_rejects_missing_code
FNDA:1,_RNvNtNtNtCsjEFxG0ag9NF_18timekeeper_backend8handlers4auth5testss_39cookie_header_value_reads_cookie_string
FNDA:1,_RNvNtNtNtCsjEFxG0ag9NF_18timekeeper_backend8handlers4auth5testss_45sanitize_device_label_trims_and_limits_length
FNDA:1,_RNvNtNtNtCsjEFxG0ag9NF_18timekeeper_backend8handlers4auth5testss_46ensure_password_matches_rejects_wrong_password
FNDA:1,_RNvNtNtNtCsjEFxG0ag9NF_18timekeeper_backend8handlers4auth5testss_46ensure_password_not_reused_allows_history_zero
FNDA:1,_RNvNtNtNtCsjEFxG0ag9NF_18timekeeper_backend8handlers4auth5testss_47enforce_password_expiration_behaves_as_expected
FNDA:1,_RNvNtNtNtCsjEFxG0ag9NF_18timekeeper_backend8handlers4auth5testss_48ensure_password_matches_accepts_correct_password
FNDA:1,_RNvNtNtNtCsjEFxG0ag9NF_18timekeeper_backend8handlers4auth5testss_50auth_session_exposes_claims_and_refresh_token_data
FNDA:1,_RNvNtNtNtCsjEFxG0ag9NF_18timekeeper_backend8handlers4auth5testss_50set_and_clear_auth_cookies_append_expected_headers
FNDA:1,_RNvNtNtNtCsjEFxG0ag9NF_18timekeeper_backend8handlers4auth5testss_58extract_ip_prefers_forwarded_for_and_falls_back_to_real_ip
FNDA:0,_RNvMNtNtCsjEFxG0ag9NF_18timekeeper_backend8handlers4authNtB2_12AuditContext3new
FNDA:1,_RNvMs_NtNtCsjEFxG0ag9NF_18timekeeper_backend8handlers4authNtB4_11AuthSession13access_claims
FNDA:1,_RNvMs_NtNtCsjEFxG0ag9NF_18timekeeper_backend8handlers4authNtB4_11AuthSession18refresh_token_data
FNDA:2,_RNvNtNtCsjEFxG0ag9NF_18timekeeper_backend8handlers4auth10extract_ip
FNDA:2,_RNvNtNtCsjEFxG0ag9NF_18timekeeper_backend8handlers4auth11enforce_mfa
FNDA:0,_RNvNtNtCsjEFxG0ag9NF_18timekeeper_backend8handlers4auth14reset_password
FNDA:1,_RNvNtNtCsjEFxG0ag9NF_18timekeeper_backend8handlers4auth16set_auth_cookies
FNDA:1,_RNvNtNtCsjEFxG0ag9NF_18timekeeper_backend8handlers4auth18clear_auth_cookies
FNDA:1,_RNvNtNtCsjEFxG0ag9NF_18timekeeper_backend8handlers4auth18extract_user_agent
FNDA:1,_RNvNtNtCsjEFxG0ag9NF_18timekeeper_backend8handlers4auth19cookie_header_value
FNDA:2,_RNvNtNtCsjEFxG0ag9NF_18timekeeper_backend8handlers4auth19create_auth_session
FNDA:0,_RNvNtNtCsjEFxG0ag9NF_18timekeeper_backend8handlers4auth20begin_mfa_enrollment
FNDA:0,_RNvNtNtCsjEFxG0ag9NF_18timekeeper_backend8handlers4auth21enforce_session_limit
FNDA:0,_RNvNtNtCsjEFxG0ag9NF_18timekeeper_backend8handlers4auth21persist_refresh_token
FNDA:0,_RNvNtNtCsjEFxG0ag9NF_18timekeeper_backend8handlers4auth21revoke_active_session
FNDA:3,_RNvNtNtCsjEFxG0ag9NF_18timekeeper_backend8handlers4auth21sanitize_device_label
FNDA:0,_RNvNtNtCsjEFxG0ag9NF_18timekeeper_backend8handlers4auth22request_password_reset
FNDA:2,_RNvNtNtCsjEFxG0ag9NF_18timekeeper_backend8handlers4auth23ensure_password_matches
FNDA:0,_RNvNtNtCsjEFxG0ag9NF_18timekeeper_backend8handlers4auth23register_active_session
FNDA:1,_RNvNtNtCsjEFxG0ag9NF_18timekeeper_backend8handlers4auth26ensure_password_not_reused
FNDA:0,_RNvNtNtCsjEFxG0ag9NF_18timekeeper_backend8handlers4auth26record_session_audit_event
FNDA:3,_RNvNtNtCsjEFxG0ag9NF_18timekeeper_backend8handlers4auth27enforce_password_expiration
FNDA:0,_RNvNtNtCsjEFxG0ag9NF_18timekeeper_backend8handlers4auth27persist_active_access_token
FNDA:0,_RNvNtNtCsjEFxG0ag9NF_18timekeeper_backend8handlers4auth5login
FNDA:0,_RNvNtNtCsjEFxG0ag9NF_18timekeeper_backend8handlers4auth7refresh
FNDA:0,_RNvMNtNtCsiqn6J3Zmf7c_18timekeeper_backend8handlers4authNtB2_12AuditContext3new
FNDA:0,_RNvMs_NtNtCsiqn6J3Zmf7c_18timekeeper_backend8handlers4authNtB4_11AuthSession13access_claims
FNDA:0,_RNvMs_NtNtCsiqn6J3Zmf7c_18timekeeper_backend8handlers4authNtB4_11AuthSession18refresh_token_data
FNDA:0,_RNvNtNtCsiqn6J3Zmf7c_18timekeeper_backend8handlers4auth10extract_ip
FNDA:0,_RNvNtNtCsiqn6J3Zmf7c_18timekeeper_backend8handlers4auth10mfa_status
FNDA:0,_RNvNtNtCsiqn6J3Zmf7c_18timekeeper_backend8handlers4auth11enforce_mfa
FNDA:0,_RNvNtNtCsiqn6J3Zmf7c_18timekeeper_backend8handlers4auth11mfa_disable
FNDA:0,_RNvNtNtCsiqn6J3Zmf7c_18timekeeper_backend8handlers4auth12mfa_activate
FNDA:0,_RNvNtNtCsiqn6J3Zmf7c_18timekeeper_backend8handlers4auth12mfa_register
FNDA:0,_RNvNtNtCsiqn6J3Zmf7c_18timekeeper_backend8handlers4auth14reset_password
FNDA:0,_RNvNtNtCsiqn6J3Zmf7c_18timekeeper_backend8handlers4auth14update_profile
FNDA:0,_RNvNtNtCsiqn6J3Zmf7c_18timekeeper_backend8handlers4auth15change_password
FNDA:0,_RNvNtNtCsiqn6J3Zmf7c_18timekeeper_backend8handlers4auth16set_auth_cookies
FNDA:0,_RNvNtNtCsiqn6J3Zmf7c_18timekeeper_backend8handlers4auth18clear_auth_cookies
FNDA:0,_RNvNtNtCsiqn6J3Zmf7c_18timekeeper_backend8handlers4auth18extract_user_agent
FNDA:0,_RNvNtNtCsiqn6J3Zmf7c_18timekeeper_backend8handlers4auth19cookie_header_value
FNDA:0,_RNvNtNtCsiqn6J3Zmf7c_18timekeeper_backend8handlers4auth19create_auth_session
FNDA:0,_RNvNtNtCsiqn6J3Zmf7c_18timekeeper_backend8handlers4auth20begin_mfa_enrollment
FNDA:0,_RNvNtNtCsiqn6J3Zmf7c_18timekeeper_backend8handlers4auth21enforce_session_limit
FNDA:0,_RNvNtNtCsiqn6J3Zmf7c_18timekeeper_backend8handlers4auth21persist_refresh_token
FNDA:0,_RNvNtNtCsiqn6J3Zmf7c_18timekeeper_backend8handlers4auth21revoke_active_session
FNDA:0,_RNvNtNtCsiqn6J3Zmf7c_18timekeeper_backend8handlers4auth21sanitize_device_label
FNDA:0,_RNvNtNtCsiqn6J3Zmf7c_18timekeeper_backend8handlers4auth22request_password_reset
FNDA:0,_RNvNtNtCsiqn6J3Zmf7c_18timekeeper_backend8handlers4auth23ensure_password_matches
FNDA:0,_RNvNtNtCsiqn6J3Zmf7c_18timekeeper_backend8handlers4auth23register_active_session
FNDA:0,_RNvNtNtCsiqn6J3Zmf7c_18timekeeper_backend8handlers4auth26ensure_password_not_reused
FNDA:0,_RNvNtNtCsiqn6J3Zmf7c_18timekeeper_backend8handlers4auth26record_session_audit_event
FNDA:0,_RNvNtNtCsiqn6J3Zmf7c_18timekeeper_backend8handlers4auth27enforce_password_expiration
FNDA:0,_RNvNtNtCsiqn6J3Zmf7c_18timekeeper_backend8handlers4auth27persist_active_access_token
FNDA:0,_RNvNtNtCsiqn6J3Zmf7c_18timekeeper_backend8handlers4auth2me
FNDA:0,_RNvNtNtCsiqn6J3Zmf7c_18timekeeper_backend8handlers4auth5login
FNDA:0,_RNvNtNtCsiqn6J3Zmf7c_18timekeeper_backend8handlers4auth6logout
FNDA:0,_RNvNtNtCsiqn6J3Zmf7c_18timekeeper_backend8handlers4auth7refresh
FNDA:0,_RNvNtNtCsiqn6J3Zmf7c_18timekeeper_backend8handlers4auth9mfa_setup
FNDA:0,_RINvNtNtCsiqn6J3Zmf7c_18timekeeper_backend8handlers4auth11bad_requestNtNtCshQKOepsJxml_5alloc6string6StringEB6_
FNDA:0,_RINvNtNtCsiqn6J3Zmf7c_18timekeeper_backend8handlers4auth11bad_requestReEB6_
FNDA:0,_RINvNtNtCsiqn6J3Zmf7c_18timekeeper_backend8handlers4auth12unauthorizedReEB6_
FNDA:0,_RINvNtNtCsiqn6J3Zmf7c_18timekeeper_backend8handlers4auth14internal_errorReEB6_
FNDA:0,_RINvNtNtCsiqn6J3Zmf7c_18timekeeper_backend8handlers4auth22process_login_for_userNCNCNvB2_5login0s0_0NCB1i_s1_0NCB1i_s2_0NCNCB1i_s0_00NCNCB1i_s1_00NCNCB1i_s2_00EB6_
FNDA:0,_RNCINvNtNtCsiqn6J3Zmf7c_18timekeeper_backend8handlers4auth22process_login_for_userNCNCNvB4_5login0s0_0NCB1k_s1_0NCB1k_s2_0NCNCB1k_s0_00NCNCB1k_s1_00NCNCB1k_s2_00E0B8_
FNDA:0,_RNCNCINvNtNtCsiqn6J3Zmf7c_18timekeeper_backend8handlers4auth22process_login_for_userNCNCNvB6_5login0s0_0NCB1m_s1_0NCB1m_s2_0NCNCB1m_s0_00NCNCB1m_s1_00NCNCB1m_s2_00E00Ba_
FNDA:0,_RNCNCINvNtNtCsiqn6J3Zmf7c_18timekeeper_backend8handlers4auth22process_login_for_userNCNCNvB6_5login0s0_0NCB1m_s1_0NCB1m_s2_0NCNCB1m_s0_00NCNCB1m_s1_00NCNCB1m_s2_00E0s0_0Ba_
FNDA:0,_RNCNCINvNtNtCsiqn6J3Zmf7c_18timekeeper_backend8handlers4auth22process_login_for_userNCNCNvB6_5login0s0_0NCB1m_s1_0NCB1m_s2_0NCNCB1m_s0_00NCNCB1m_s1_00NCNCB1m_s2_00E0s_0Ba_
FNDA:0,_RNCNCNCNCNvNtNtCsiqn6J3Zmf7c_18timekeeper_backend8handlers4auth5login0s1_000Bd_
FNDA:0,_RNCNCNCNvNtNtCsiqn6J3Zmf7c_18timekeeper_backend8handlers4auth5login0s0_00Bb_
FNDA:0,_RNCNCNCNvNtNtCsiqn6J3Zmf7c_18timekeeper_backend8handlers4auth5login0s1_00Bb_
FNDA:0,_RNCNCNCNvNtNtCsiqn6J3Zmf7c_18timekeeper_backend8handlers4auth5login0s2_00Bb_
FNDA:0,_RNCNCNCNvNtNtCsiqn6J3Zmf7c_18timekeeper_backend8handlers4auth6logout0s5_00Bb_
FNDA:0,_RNCNCNCNvNtNtCsiqn6J3Zmf7c_18timekeeper_backend8handlers4auth7refresh000Bb_
FNDA:0,_RNCNCNCNvNtNtCsiqn6J3Zmf7c_18timekeeper_backend8handlers4auth7refresh00s_0Bb_
FNDA:0,_RNCNCNvNtNtCsiqn6J3Zmf7c_18timekeeper_backend8handlers4auth11enforce_mfa00B9_
FNDA:0,_RNCNCNvNtNtCsiqn6J3Zmf7c_18timekeeper_backend8handlers4auth11mfa_disable00B9_
FNDA:0,_RNCNCNvNtNtCsiqn6J3Zmf7c_18timekeeper_backend8handlers4auth11mfa_disable0s0_0B9_
FNDA:0,_RNCNCNvNtNtCsiqn6J3Zmf7c_18timekeeper_backend8handlers4auth11mfa_disable0s1_0B9_
FNDA:0,_RNCNCNvNtNtCsiqn6J3Zmf7c_18timekeeper_backend8handlers4auth11mfa_disable0s2_0B9_
FNDA:0,_RNCNCNvNtNtCsiqn6J3Zmf7c_18timekeeper_backend8handlers4auth11mfa_disable0s_0B9_
FNDA:0,_RNCNCNvNtNtCsiqn6J3Zmf7c_18timekeeper_backend8handlers4auth12mfa_activate00B9_
FNDA:0,_RNCNCNvNtNtCsiqn6J3Zmf7c_18timekeeper_backend8handlers4auth12mfa_activate0s0_0B9_
FNDA:0,_RNCNCNvNtNtCsiqn6J3Zmf7c_18timekeeper_backend8handlers4auth12mfa_activate0s1_0B9_
FNDA:0,_RNCNCNvNtNtCsiqn6J3Zmf7c_18timekeeper_backend8handlers4auth12mfa_activate0s2_0B9_
FNDA:0,_RNCNCNvNtNtCsiqn6J3Zmf7c_18timekeeper_backend8handlers4auth12mfa_activate0s_0B9_
FNDA:0,_RNCNCNvNtNtCsiqn6J3Zmf7c_18timekeeper_backend8handlers4auth14reset_password00B9_
FNDA:0,_RNCNCNvNtNtCsiqn6J3Zmf7c_18timekeeper_backend8handlers4auth14reset_password0s0_0B9_
FNDA:0,_RNCNCNvNtNtCsiqn6J3Zmf7c_18timekeeper_backend8handlers4auth14reset_password0s1_0B9_
FNDA:0,_RNCNCNvNtNtCsiqn6J3Zmf7c_18timekeeper_backend8handlers4auth14reset_password0s2_0B9_
FNDA:0,_RNCNCNvNtNtCsiqn6J3Zmf7c_18timekeeper_backend8handlers4auth14reset_password0s3_0B9_
FNDA:0,_RNCNCNvNtNtCsiqn6J3Zmf7c_18timekeeper_backend8handlers4auth14reset_password0s4_0B9_
FNDA:0,_RNCNCNvNtNtCsiqn6J3Zmf7c_18timekeeper_backend8handlers4auth14reset_password0s5_0B9_
FNDA:0,_RNCNCNvNtNtCsiqn6J3Zmf7c_18timekeeper_backend8handlers4auth14reset_password0s6_0B9_
FNDA:0,_RNCNCNvNtNtCsiqn6J3Zmf7c_18timekeeper_backend8handlers4auth14reset_password0s7_0B9_
FNDA:0,_RNCNCNvNtNtCsiqn6J3Zmf7c_18timekeeper_backend8handlers4auth14reset_password0s8_0B9_
FNDA:0,_RNCNCNvNtNtCsiqn6J3Zmf7c_18timekeeper_backend8handlers4auth14reset_password0s9_0B9_
FNDA:0,_RNCNCNvNtNtCsiqn6J3Zmf7c_18timekeeper_backend8handlers4auth14reset_password0s_0B9_
FNDA:0,_RNCNCNvNtNtCsiqn6J3Zmf7c_18timekeeper_backend8handlers4auth14reset_password0sa_0B9_
FNDA:0,_RNCNCNvNtNtCsiqn6J3Zmf7c_18timekeeper_backend8handlers4auth14update_profile00B9_
FNDA:0,_RNCNCNvNtNtCsiqn6J3Zmf7c_18timekeeper_backend8handlers4auth14update_profile0s_0B9_
FNDA:0,_RNCNCNvNtNtCsiqn6J3Zmf7c_18timekeeper_backend8handlers4auth15change_password00B9_
FNDA:0,_RNCNCNvNtNtCsiqn6J3Zmf7c_18timekeeper_backend8handlers4auth15change_password0s0_0B9_
FNDA:0,_RNCNCNvNtNtCsiqn6J3Zmf7c_18timekeeper_backend8handlers4auth15change_password0s1_0B9_
FNDA:0,_RNCNCNvNtNtCsiqn6J3Zmf7c_18timekeeper_backend8handlers4auth15change_password0s2_0B9_
FNDA:0,_RNCNCNvNtNtCsiqn6J3Zmf7c_18timekeeper_backend8handlers4auth15change_password0s3_0B9_
FNDA:0,_RNCNCNvNtNtCsiqn6J3Zmf7c_18timekeeper_backend8handlers4auth15change_password0s4_0B9_
FNDA:0,_RNCNCNvNtNtCsiqn6J3Zmf7c_18timekeeper_backend8handlers4auth15change_password0s_0B9_
FNDA:0,_RNCNCNvNtNtCsiqn6J3Zmf7c_18timekeeper_backend8handlers4auth19create_auth_session00B9_
FNDA:0,_RNCNCNvNtNtCsiqn6J3Zmf7c_18timekeeper_backend8handlers4auth19create_auth_session0s_0B9_
FNDA:0,_RNCNCNvNtNtCsiqn6J3Zmf7c_18timekeeper_backend8handlers4auth20begin_mfa_enrollment00B9_
FNDA:0,_RNCNCNvNtNtCsiqn6J3Zmf7c_18timekeeper_backend8handlers4auth20begin_mfa_enrollment0s_0B9_
FNDA:0,_RNCNCNvNtNtCsiqn6J3Zmf7c_18timekeeper_backend8handlers4auth21enforce_session_limit00B9_
FNDA:0,_RNCNCNvNtNtCsiqn6J3Zmf7c_18timekeeper_backend8handlers4auth21persist_refresh_token00B9_
FNDA:0,_RNCNCNvNtNtCsiqn6J3Zmf7c_18timekeeper_backend8handlers4auth21revoke_active_session00B9_
FNDA:0,_RNCNCNvNtNtCsiqn6J3Zmf7c_18timekeeper_backend8handlers4auth21revoke_active_session0s_0B9_
FNDA:0,_RNCNCNvNtNtCsiqn6J3Zmf7c_18timekeeper_backend8handlers4auth22request_password_reset00B9_
FNDA:0,_RNCNCNvNtNtCsiqn6J3Zmf7c_18timekeeper_backend8handlers4auth22request_password_reset0s0_0B9_
FNDA:0,_RNCNCNvNtNtCsiqn6J3Zmf7c_18timekeeper_backend8handlers4auth22request_password_reset0s_0B9_
FNDA:0,_RNCNCNvNtNtCsiqn6J3Zmf7c_18timekeeper_backend8handlers4auth23ensure_password_matches00B9_
FNDA:0,_RNCNCNvNtNtCsiqn6J3Zmf7c_18timekeeper_backend8handlers4auth23ensure_password_matches0s0_0B9_
FNDA:0,_RNCNCNvNtNtCsiqn6J3Zmf7c_18timekeeper_backend8handlers4auth23ensure_password_matches0s_0B9_
FNDA:0,_RNCNCNvNtNtCsiqn6J3Zmf7c_18timekeeper_backend8handlers4auth23register_active_session00B9_
FNDA:0,_RNCNCNvNtNtCsiqn6J3Zmf7c_18timekeeper_backend8handlers4auth26ensure_password_not_reused00B9_
FNDA:0,_RNCNCNvNtNtCsiqn6J3Zmf7c_18timekeeper_backend8handlers4auth26ensure_password_not_reused0s0_0B9_
FNDA:0,_RNCNCNvNtNtCsiqn6J3Zmf7c_18timekeeper_backend8handlers4auth26ensure_password_not_reused0s1_0B9_
FNDA:0,_RNCNCNvNtNtCsiqn6J3Zmf7c_18timekeeper_backend8handlers4auth26ensure_password_not_reused0s_0B9_
FNDA:0,_RNCNCNvNtNtCsiqn6J3Zmf7c_18timekeeper_backend8handlers4auth27persist_active_access_token00B9_
FNDA:0,_RNCNCNvNtNtCsiqn6J3Zmf7c_18timekeeper_backend8handlers4auth27persist_active_access_token0s0_0B9_
FNDA:0,_RNCNCNvNtNtCsiqn6J3Zmf7c_18timekeeper_backend8handlers4auth27persist_active_access_token0s1_0B9_
FNDA:0,_RNCNCNvNtNtCsiqn6J3Zmf7c_18timekeeper_backend8handlers4auth27persist_active_access_token0s_0B9_
FNDA:0,_RNCNCNvNtNtCsiqn6J3Zmf7c_18timekeeper_backend8handlers4auth5login00B9_
FNDA:0,_RNCNCNvNtNtCsiqn6J3Zmf7c_18timekeeper_backend8handlers4auth5login0s0_0B9_
FNDA:0,_RNCNCNvNtNtCsiqn6J3Zmf7c_18timekeeper_backend8handlers4auth5login0s1_0B9_
FNDA:0,_RNCNCNvNtNtCsiqn6J3Zmf7c_18timekeeper_backend8handlers4auth5login0s2_0B9_
FNDA:0,_RNCNCNvNtNtCsiqn6J3Zmf7c_18timekeeper_backend8handlers4auth5login0s_0B9_
FNDA:0,_RNCNCNvNtNtCsiqn6J3Zmf7c_18timekeeper_backend8handlers4auth6logout00B9_
FNDA:0,_RNCNCNvNtNtCsiqn6J3Zmf7c_18timekeeper_backend8handlers4auth6logout0s0_0B9_
FNDA:0,_RNCNCNvNtNtCsiqn6J3Zmf7c_18timekeeper_backend8handlers4auth6logout0s1_0B9_
FNDA:0,_RNCNCNvNtNtCsiqn6J3Zmf7c_18timekeeper_backend8handlers4auth6logout0s2_0B9_
FNDA:0,_RNCNCNvNtNtCsiqn6J3Zmf7c_18timekeeper_backend8handlers4auth6logout0s3_0B9_
FNDA:0,_RNCNCNvNtNtCsiqn6J3Zmf7c_18timekeeper_backend8handlers4auth6logout0s4_0B9_
FNDA:0,_RNCNCNvNtNtCsiqn6J3Zmf7c_18timekeeper_backend8handlers4auth6logout0s5_0B9_
FNDA:0,_RNCNCNvNtNtCsiqn6J3Zmf7c_18timekeeper_backend8handlers4auth6logout0s6_0B9_
FNDA:0,_RNCNCNvNtNtCsiqn6J3Zmf7c_18timekeeper_backend8handlers4auth6logout0s7_0B9_
FNDA:0,_RNCNCNvNtNtCsiqn6J3Zmf7c_18timekeeper_backend8handlers4auth6logout0s8_0B9_
FNDA:0,_RNCNCNvNtNtCsiqn6J3Zmf7c_18timekeeper_backend8handlers4auth6logout0s9_0B9_
FNDA:0,_RNCNCNvNtNtCsiqn6J3Zmf7c_18timekeeper_backend8handlers4auth6logout0s_0B9_
FNDA:0,_RNCNCNvNtNtCsiqn6J3Zmf7c_18timekeeper_backend8handlers4auth7refresh00B9_
FNDA:0,_RNCNCNvNtNtCsiqn6J3Zmf7c_18timekeeper_backend8handlers4auth7refresh0s0_0B9_
FNDA:0,_RNCNCNvNtNtCsiqn6J3Zmf7c_18timekeeper_backend8handlers4auth7refresh0s1_0B9_
FNDA:0,_RNCNCNvNtNtCsiqn6J3Zmf7c_18timekeeper_backend8handlers4auth7refresh0s2_0B9_
FNDA:0,_RNCNCNvNtNtCsiqn6J3Zmf7c_18timekeeper_backend8handlers4auth7refresh0s3_0B9_
FNDA:0,_RNCNCNvNtNtCsiqn6J3Zmf7c_18timekeeper_backend8handlers4auth7refresh0s4_0B9_
FNDA:0,_RNCNCNvNtNtCsiqn6J3Zmf7c_18timekeeper_backend8handlers4auth7refresh0s5_0B9_
FNDA:0,_RNCNCNvNtNtCsiqn6J3Zmf7c_18timekeeper_backend8handlers4auth7refresh0s6_0B9_
FNDA:0,_RNCNCNvNtNtCsiqn6J3Zmf7c_18timekeeper_backend8handlers4auth7refresh0s7_0B9_
FNDA:0,_RNCNCNvNtNtCsiqn6J3Zmf7c_18timekeeper_backend8handlers4auth7refresh0s8_0B9_
FNDA:0,_RNCNCNvNtNtCsiqn6J3Zmf7c_18timekeeper_backend8handlers4auth7refresh0s9_0B9_
FNDA:0,_RNCNCNvNtNtCsiqn6J3Zmf7c_18timekeeper_backend8handlers4auth7refresh0s_0B9_
FNDA:0,_RNCNCNvNtNtCsiqn6J3Zmf7c_18timekeeper_backend8handlers4auth7refresh0sa_0B9_
FNDA:0,_RNCNCNvNtNtCsiqn6J3Zmf7c_18timekeeper_backend8handlers4auth7refresh0sb_0B9_
FNDA:0,_RNCNCNvNtNtCsiqn6J3Zmf7c_18timekeeper_backend8handlers4auth7refresh0sc_0B9_
FNDA:0,_RNCNvMNtNtCsiqn6J3Zmf7c_18timekeeper_backend8handlers4authNtB4_12AuditContext3new0B8_
FNDA:0,_RNCNvMs_NtNtCsiqn6J3Zmf7c_18timekeeper_backend8handlers4authNtB6_11AuthSession13access_claims0Ba_
FNDA:0,_RNCNvMs_NtNtCsiqn6J3Zmf7c_18timekeeper_backend8handlers4authNtB6_11AuthSession18refresh_token_data0Ba_
FNDA:0,_RNCNvMs_NtNtCsiqn6J3Zmf7c_18timekeeper_backend8handlers4authNtB6_11AuthSession18refresh_token_datas0_0Ba_
FNDA:0,_RNCNvMs_NtNtCsiqn6J3Zmf7c_18timekeeper_backend8handlers4authNtB6_11AuthSession18refresh_token_datas_0Ba_
FNDA:0,_RNCNvNtNtCsiqn6J3Zmf7c_18timekeeper_backend8handlers4auth10extract_ip0B7_
FNDA:0,_RNCNvNtNtCsiqn6J3Zmf7c_18timekeeper_backend8handlers4auth10extract_ips0_0B7_
FNDA:0,_RNCNvNtNtCsiqn6J3Zmf7c_18timekeeper_backend8handlers4auth10extract_ips1_0B7_
FNDA:0,_RNCNvNtNtCsiqn6J3Zmf7c_18timekeeper_backend8handlers4auth10extract_ips2_0B7_
FNDA:0,_RNCNvNtNtCsiqn6J3Zmf7c_18timekeeper_backend8handlers4auth10extract_ips3_0B7_
FNDA:0,_RNCNvNtNtCsiqn6J3Zmf7c_18timekeeper_backend8handlers4auth10extract_ips_0B7_
FNDA:0,_RNCNvNtNtCsiqn6J3Zmf7c_18timekeeper_backend8handlers4auth10mfa_status0B7_
FNDA:0,_RNCNvNtNtCsiqn6J3Zmf7c_18timekeeper_backend8handlers4auth11enforce_mfa0B7_
FNDA:0,_RNCNvNtNtCsiqn6J3Zmf7c_18timekeeper_backend8handlers4auth11enforce_mfas0_0B7_
FNDA:0,_RNCNvNtNtCsiqn6J3Zmf7c_18timekeeper_backend8handlers4auth11enforce_mfas1_0B7_
FNDA:0,_RNCNvNtNtCsiqn6J3Zmf7c_18timekeeper_backend8handlers4auth11enforce_mfas2_0B7_
FNDA:0,_RNCNvNtNtCsiqn6J3Zmf7c_18timekeeper_backend8handlers4auth11enforce_mfas_0B7_
FNDA:0,_RNCNvNtNtCsiqn6J3Zmf7c_18timekeeper_backend8handlers4auth11mfa_disable0B7_
FNDA:0,_RNCNvNtNtCsiqn6J3Zmf7c_18timekeeper_backend8handlers4auth12mfa_activate0B7_
FNDA:0,_RNCNvNtNtCsiqn6J3Zmf7c_18timekeeper_backend8handlers4auth12mfa_register0B7_
FNDA:0,_RNCNvNtNtCsiqn6J3Zmf7c_18timekeeper_backend8handlers4auth14reset_password0B7_
FNDA:0,_RNCNvNtNtCsiqn6J3Zmf7c_18timekeeper_backend8handlers4auth14update_profile0B7_
FNDA:0,_RNCNvNtNtCsiqn6J3Zmf7c_18timekeeper_backend8handlers4auth15change_password0B7_
FNDA:0,_RNCNvNtNtCsiqn6J3Zmf7c_18timekeeper_backend8handlers4auth18extract_user_agent0B7_
FNDA:0,_RNCNvNtNtCsiqn6J3Zmf7c_18timekeeper_backend8handlers4auth18extract_user_agents0_0B7_
FNDA:0,_RNCNvNtNtCsiqn6J3Zmf7c_18timekeeper_backend8handlers4auth18extract_user_agents_0B7_
FNDA:0,_RNCNvNtNtCsiqn6J3Zmf7c_18timekeeper_backend8handlers4auth19cookie_header_value0B7_
FNDA:0,_RNCNvNtNtCsiqn6J3Zmf7c_18timekeeper_backend8handlers4auth19create_auth_session0B7_
FNDA:0,_RNCNvNtNtCsiqn6J3Zmf7c_18timekeeper_backend8handlers4auth20begin_mfa_enrollment0B7_
FNDA:0,_RNCNvNtNtCsiqn6J3Zmf7c_18timekeeper_backend8handlers4auth21enforce_session_limit0B7_
FNDA:0,_RNCNvNtNtCsiqn6J3Zmf7c_18timekeeper_backend8handlers4auth21persist_refresh_token0B7_
FNDA:0,_RNCNvNtNtCsiqn6J3Zmf7c_18timekeeper_backend8handlers4auth21revoke_active_session0B7_
FNDA:0,_RNCNvNtNtCsiqn6J3Zmf7c_18timekeeper_backend8handlers4auth21sanitize_device_label0B7_
FNDA:0,_RNCNvNtNtCsiqn6J3Zmf7c_18timekeeper_backend8handlers4auth22request_password_reset0B7_
FNDA:0,_RNCNvNtNtCsiqn6J3Zmf7c_18timekeeper_backend8handlers4auth23ensure_password_matches0B7_
FNDA:0,_RNCNvNtNtCsiqn6J3Zmf7c_18timekeeper_backend8handlers4auth23register_active_session0B7_
FNDA:0,_RNCNvNtNtCsiqn6J3Zmf7c_18timekeeper_backend8handlers4auth26ensure_password_not_reused0B7_
FNDA:0,_RNCNvNtNtCsiqn6J3Zmf7c_18timekeeper_backend8handlers4auth26record_session_audit_event0B7_
FNDA:0,_RNCNvNtNtCsiqn6J3Zmf7c_18timekeeper_backend8handlers4auth27enforce_password_expiration0B7_
FNDA:0,_RNCNvNtNtCsiqn6J3Zmf7c_18timekeeper_backend8handlers4auth27persist_active_access_token0B7_
FNDA:0,_RNCNvNtNtCsiqn6J3Zmf7c_18timekeeper_backend8handlers4auth2me0B7_
FNDA:0,_RNCNvNtNtCsiqn6J3Zmf7c_18timekeeper_backend8handlers4auth5login0B7_
FNDA:0,_RNCNvNtNtCsiqn6J3Zmf7c_18timekeeper_backend8handlers4auth6logout0B7_
FNDA:0,_RNCNvNtNtCsiqn6J3Zmf7c_18timekeeper_backend8handlers4auth7refresh0B7_
FNDA:0,_RNCNvNtNtCsiqn6J3Zmf7c_18timekeeper_backend8handlers4auth9mfa_setup0B7_
FNDA:0,_RNvNtNtCs86yVScfUyun_18timekeeper_backend8handlers4auth10mfa_status
FNDA:0,_RNvNtNtCs86yVScfUyun_18timekeeper_backend8handlers4auth11mfa_disable
FNDA:0,_RNvNtNtCs86yVScfUyun_18timekeeper_backend8handlers4auth12mfa_activate
FNDA:0,_RNvNtNtCs86yVScfUyun_18timekeeper_backend8handlers4auth12mfa_register
FNDA:0,_RNvNtNtCs86yVScfUyun_18timekeeper_backend8handlers4auth14reset_password
FNDA:0,_RNvNtNtCs86yVScfUyun_18timekeeper_backend8handlers4auth14update_profile
